	.file	"main.cpp"
	.text
	.section	.text$_ZNSt11char_traitsIcE6assignERcRKc,"x"
	.linkonce discard
	.globl	_ZNSt11char_traitsIcE6assignERcRKc
	.def	_ZNSt11char_traitsIcE6assignERcRKc;	.scl	2;	.type	32;	.endef
	.seh_proc	_ZNSt11char_traitsIcE6assignERcRKc
_ZNSt11char_traitsIcE6assignERcRKc:
.LFB170:
	pushq	%rbp
	.seh_pushreg	%rbp
	movq	%rsp, %rbp
	.seh_setframe	%rbp, 0
	.seh_endprologue
	movq	%rcx, 16(%rbp)
	movq	%rdx, 24(%rbp)
	movq	24(%rbp), %rax
	movzbl	(%rax), %edx
	movq	16(%rbp), %rax
	movb	%dl, (%rax)
	nop
	popq	%rbp
	ret
	.seh_endproc
	.section	.text$_ZNSt11char_traitsIcE2ltERKcS2_,"x"
	.linkonce discard
	.globl	_ZNSt11char_traitsIcE2ltERKcS2_
	.def	_ZNSt11char_traitsIcE2ltERKcS2_;	.scl	2;	.type	32;	.endef
	.seh_proc	_ZNSt11char_traitsIcE2ltERKcS2_
_ZNSt11char_traitsIcE2ltERKcS2_:
.LFB172:
	pushq	%rbp
	.seh_pushreg	%rbp
	movq	%rsp, %rbp
	.seh_setframe	%rbp, 0
	.seh_endprologue
	movq	%rcx, 16(%rbp)
	movq	%rdx, 24(%rbp)
	movq	16(%rbp), %rax
	movzbl	(%rax), %eax
	movl	%eax, %edx
	movq	24(%rbp), %rax
	movzbl	(%rax), %eax
	cmpb	%al, %dl
	setb	%al
	popq	%rbp
	ret
	.seh_endproc
	.section	.text$_ZNSt11char_traitsIcE7compareEPKcS2_y,"x"
	.linkonce discard
	.globl	_ZNSt11char_traitsIcE7compareEPKcS2_y
	.def	_ZNSt11char_traitsIcE7compareEPKcS2_y;	.scl	2;	.type	32;	.endef
	.seh_proc	_ZNSt11char_traitsIcE7compareEPKcS2_y
_ZNSt11char_traitsIcE7compareEPKcS2_y:
.LFB173:
	pushq	%rbp
	.seh_pushreg	%rbp
	movq	%rsp, %rbp
	.seh_setframe	%rbp, 0
	subq	$48, %rsp
	.seh_stackalloc	48
	.seh_endprologue
	movq	%rcx, 16(%rbp)
	movq	%rdx, 24(%rbp)
	movq	%r8, 32(%rbp)
	cmpq	$0, 32(%rbp)
	jne	.L5
	movl	$0, %eax
	jmp	.L6
.L5:
	movl	$0, %eax
	testb	%al, %al
	je	.L8
	movq	$0, -8(%rbp)
	jmp	.L9
.L12:
	movq	24(%rbp), %rdx
	movq	-8(%rbp), %rax
	addq	%rax, %rdx
	movq	16(%rbp), %rcx
	movq	-8(%rbp), %rax
	addq	%rcx, %rax
	movq	%rax, %rcx
	call	_ZNSt11char_traitsIcE2ltERKcS2_
	testb	%al, %al
	je	.L10
	movl	$-1, %eax
	jmp	.L6
.L10:
	movq	16(%rbp), %rdx
	movq	-8(%rbp), %rax
	addq	%rax, %rdx
	movq	24(%rbp), %rcx
	movq	-8(%rbp), %rax
	addq	%rcx, %rax
	movq	%rax, %rcx
	call	_ZNSt11char_traitsIcE2ltERKcS2_
	testb	%al, %al
	je	.L11
	movl	$1, %eax
	jmp	.L6
.L11:
	addq	$1, -8(%rbp)
.L9:
	movq	-8(%rbp), %rax
	cmpq	32(%rbp), %rax
	jb	.L12
	movl	$0, %eax
	jmp	.L6
.L8:
	movq	32(%rbp), %rcx
	movq	24(%rbp), %rdx
	movq	16(%rbp), %rax
	movq	%rcx, %r8
	movq	%rax, %rcx
	call	memcmp
	nop
.L6:
	addq	$48, %rsp
	popq	%rbp
	ret
	.seh_endproc
	.section	.text$_ZNSt11char_traitsIcE6lengthEPKc,"x"
	.linkonce discard
	.globl	_ZNSt11char_traitsIcE6lengthEPKc
	.def	_ZNSt11char_traitsIcE6lengthEPKc;	.scl	2;	.type	32;	.endef
	.seh_proc	_ZNSt11char_traitsIcE6lengthEPKc
_ZNSt11char_traitsIcE6lengthEPKc:
.LFB174:
	pushq	%rbp
	.seh_pushreg	%rbp
	movq	%rsp, %rbp
	.seh_setframe	%rbp, 0
	subq	$32, %rsp
	.seh_stackalloc	32
	.seh_endprologue
	movq	%rcx, 16(%rbp)
	movl	$0, %eax
	testb	%al, %al
	je	.L15
	movq	16(%rbp), %rax
	movq	%rax, %rcx
	call	_ZN9__gnu_cxx11char_traitsIcE6lengthEPKc
	jmp	.L16
.L15:
	movq	16(%rbp), %rax
	movq	%rax, %rcx
	call	strlen
	nop
.L16:
	addq	$32, %rsp
	popq	%rbp
	ret
	.seh_endproc
	.section	.text$_ZNSt11char_traitsIcE12to_char_typeERKi,"x"
	.linkonce discard
	.globl	_ZNSt11char_traitsIcE12to_char_typeERKi
	.def	_ZNSt11char_traitsIcE12to_char_typeERKi;	.scl	2;	.type	32;	.endef
	.seh_proc	_ZNSt11char_traitsIcE12to_char_typeERKi
_ZNSt11char_traitsIcE12to_char_typeERKi:
.LFB179:
	pushq	%rbp
	.seh_pushreg	%rbp
	movq	%rsp, %rbp
	.seh_setframe	%rbp, 0
	.seh_endprologue
	movq	%rcx, 16(%rbp)
	movq	16(%rbp), %rax
	movl	(%rax), %eax
	popq	%rbp
	ret
	.seh_endproc
	.section	.text$_ZNSt11char_traitsIcE11eq_int_typeERKiS2_,"x"
	.linkonce discard
	.globl	_ZNSt11char_traitsIcE11eq_int_typeERKiS2_
	.def	_ZNSt11char_traitsIcE11eq_int_typeERKiS2_;	.scl	2;	.type	32;	.endef
	.seh_proc	_ZNSt11char_traitsIcE11eq_int_typeERKiS2_
_ZNSt11char_traitsIcE11eq_int_typeERKiS2_:
.LFB181:
	pushq	%rbp
	.seh_pushreg	%rbp
	movq	%rsp, %rbp
	.seh_setframe	%rbp, 0
	.seh_endprologue
	movq	%rcx, 16(%rbp)
	movq	%rdx, 24(%rbp)
	movq	16(%rbp), %rax
	movl	(%rax), %edx
	movq	24(%rbp), %rax
	movl	(%rax), %eax
	cmpl	%eax, %edx
	sete	%al
	popq	%rbp
	ret
	.seh_endproc
	.section	.text$_ZNSt11char_traitsIcE3eofEv,"x"
	.linkonce discard
	.globl	_ZNSt11char_traitsIcE3eofEv
	.def	_ZNSt11char_traitsIcE3eofEv;	.scl	2;	.type	32;	.endef
	.seh_proc	_ZNSt11char_traitsIcE3eofEv
_ZNSt11char_traitsIcE3eofEv:
.LFB182:
	pushq	%rbp
	.seh_pushreg	%rbp
	movq	%rsp, %rbp
	.seh_setframe	%rbp, 0
	.seh_endprologue
	movl	$-1, %eax
	popq	%rbp
	ret
	.seh_endproc
	.section	.text$_ZnwyPv,"x"
	.linkonce discard
	.globl	_ZnwyPv
	.def	_ZnwyPv;	.scl	2;	.type	32;	.endef
	.seh_proc	_ZnwyPv
_ZnwyPv:
.LFB235:
	pushq	%rbp
	.seh_pushreg	%rbp
	movq	%rsp, %rbp
	.seh_setframe	%rbp, 0
	.seh_endprologue
	movq	%rcx, 16(%rbp)
	movq	%rdx, 24(%rbp)
	movq	24(%rbp), %rax
	popq	%rbp
	ret
	.seh_endproc
	.section	.text$_ZdlPvS_,"x"
	.linkonce discard
	.globl	_ZdlPvS_
	.def	_ZdlPvS_;	.scl	2;	.type	32;	.endef
	.seh_proc	_ZdlPvS_
_ZdlPvS_:
.LFB237:
	pushq	%rbp
	.seh_pushreg	%rbp
	movq	%rsp, %rbp
	.seh_setframe	%rbp, 0
	.seh_endprologue
	movq	%rcx, 16(%rbp)
	movq	%rdx, 24(%rbp)
	nop
	popq	%rbp
	ret
	.seh_endproc
	.globl	_ZSt19piecewise_construct
	.section	.rdata$_ZSt19piecewise_construct,"dr"
	.linkonce same_size
_ZSt19piecewise_construct:
	.space 1
	.section	.text$_ZNSt10_Hash_impl4hashEPKvyy,"x"
	.linkonce discard
	.globl	_ZNSt10_Hash_impl4hashEPKvyy
	.def	_ZNSt10_Hash_impl4hashEPKvyy;	.scl	2;	.type	32;	.endef
	.seh_proc	_ZNSt10_Hash_impl4hashEPKvyy
_ZNSt10_Hash_impl4hashEPKvyy:
.LFB972:
	pushq	%rbp
	.seh_pushreg	%rbp
	movq	%rsp, %rbp
	.seh_setframe	%rbp, 0
	subq	$32, %rsp
	.seh_stackalloc	32
	.seh_endprologue
	movq	%rcx, 16(%rbp)
	movq	%rdx, 24(%rbp)
	movq	%r8, 32(%rbp)
	movq	32(%rbp), %rcx
	movq	24(%rbp), %rdx
	movq	16(%rbp), %rax
	movq	%rcx, %r8
	movq	%rax, %rcx
	call	_ZSt11_Hash_bytesPKvyy
	addq	$32, %rsp
	popq	%rbp
	ret
	.seh_endproc
	.section	.text$_ZNKSt17basic_string_viewIcSt11char_traitsIcEE4dataEv,"x"
	.linkonce discard
	.align 2
	.globl	_ZNKSt17basic_string_viewIcSt11char_traitsIcEE4dataEv
	.def	_ZNKSt17basic_string_viewIcSt11char_traitsIcEE4dataEv;	.scl	2;	.type	32;	.endef
	.seh_proc	_ZNKSt17basic_string_viewIcSt11char_traitsIcEE4dataEv
_ZNKSt17basic_string_viewIcSt11char_traitsIcEE4dataEv:
.LFB1356:
	pushq	%rbp
	.seh_pushreg	%rbp
	movq	%rsp, %rbp
	.seh_setframe	%rbp, 0
	.seh_endprologue
	movq	%rcx, 16(%rbp)
	movq	16(%rbp), %rax
	movq	8(%rax), %rax
	popq	%rbp
	ret
	.seh_endproc
	.section	.text$_ZNSt8__detail15_Hash_node_baseC2Ev,"x"
	.linkonce discard
	.align 2
	.globl	_ZNSt8__detail15_Hash_node_baseC2Ev
	.def	_ZNSt8__detail15_Hash_node_baseC2Ev;	.scl	2;	.type	32;	.endef
	.seh_proc	_ZNSt8__detail15_Hash_node_baseC2Ev
_ZNSt8__detail15_Hash_node_baseC2Ev:
.LFB1671:
	pushq	%rbp
	.seh_pushreg	%rbp
	movq	%rsp, %rbp
	.seh_setframe	%rbp, 0
	.seh_endprologue
	movq	%rcx, 16(%rbp)
	movq	16(%rbp), %rax
	movq	$0, (%rax)
	nop
	popq	%rbp
	ret
	.seh_endproc
	.section	.text$_ZNSt8__detail15_Hash_node_baseC1Ev,"x"
	.linkonce discard
	.align 2
	.globl	_ZNSt8__detail15_Hash_node_baseC1Ev
	.def	_ZNSt8__detail15_Hash_node_baseC1Ev;	.scl	2;	.type	32;	.endef
	.seh_proc	_ZNSt8__detail15_Hash_node_baseC1Ev
_ZNSt8__detail15_Hash_node_baseC1Ev:
.LFB1672:
	pushq	%rbp
	.seh_pushreg	%rbp
	movq	%rsp, %rbp
	.seh_setframe	%rbp, 0
	.seh_endprologue
	movq	%rcx, 16(%rbp)
	movq	16(%rbp), %rax
	movq	$0, (%rax)
	nop
	popq	%rbp
	ret
	.seh_endproc
	.section	.text$_ZNKSt8__detail18_Mod_range_hashingclEyy,"x"
	.linkonce discard
	.align 2
	.globl	_ZNKSt8__detail18_Mod_range_hashingclEyy
	.def	_ZNKSt8__detail18_Mod_range_hashingclEyy;	.scl	2;	.type	32;	.endef
	.seh_proc	_ZNKSt8__detail18_Mod_range_hashingclEyy
_ZNKSt8__detail18_Mod_range_hashingclEyy:
.LFB1697:
	pushq	%rbp
	.seh_pushreg	%rbp
	movq	%rsp, %rbp
	.seh_setframe	%rbp, 0
	.seh_endprologue
	movq	%rcx, 16(%rbp)
	movq	%rdx, 24(%rbp)
	movq	%r8, 32(%rbp)
	movq	24(%rbp), %rax
	movl	$0, %edx
	divq	32(%rbp)
	movq	%rdx, %rax
	popq	%rbp
	ret
	.seh_endproc
	.section	.text$_ZNSt8__detail20_Prime_rehash_policyC1Ef,"x"
	.linkonce discard
	.align 2
	.globl	_ZNSt8__detail20_Prime_rehash_policyC1Ef
	.def	_ZNSt8__detail20_Prime_rehash_policyC1Ef;	.scl	2;	.type	32;	.endef
	.seh_proc	_ZNSt8__detail20_Prime_rehash_policyC1Ef
_ZNSt8__detail20_Prime_rehash_policyC1Ef:
.LFB1700:
	pushq	%rbp
	.seh_pushreg	%rbp
	movq	%rsp, %rbp
	.seh_setframe	%rbp, 0
	.seh_endprologue
	movq	%rcx, 16(%rbp)
	movss	%xmm1, 24(%rbp)
	movq	16(%rbp), %rax
	movss	24(%rbp), %xmm0
	movss	%xmm0, (%rax)
	movq	16(%rbp), %rax
	movq	$0, 8(%rax)
	nop
	popq	%rbp
	ret
	.seh_endproc
	.section	.text$_ZNKSt8__detail20_Prime_rehash_policy8_M_stateEv,"x"
	.linkonce discard
	.align 2
	.globl	_ZNKSt8__detail20_Prime_rehash_policy8_M_stateEv
	.def	_ZNKSt8__detail20_Prime_rehash_policy8_M_stateEv;	.scl	2;	.type	32;	.endef
	.seh_proc	_ZNKSt8__detail20_Prime_rehash_policy8_M_stateEv
_ZNKSt8__detail20_Prime_rehash_policy8_M_stateEv:
.LFB1703:
	pushq	%rbp
	.seh_pushreg	%rbp
	movq	%rsp, %rbp
	.seh_setframe	%rbp, 0
	.seh_endprologue
	movq	%rcx, 16(%rbp)
	movq	16(%rbp), %rax
	movq	8(%rax), %rax
	popq	%rbp
	ret
	.seh_endproc
	.section	.text$_ZNSt8__detail20_Prime_rehash_policy8_M_resetEy,"x"
	.linkonce discard
	.align 2
	.globl	_ZNSt8__detail20_Prime_rehash_policy8_M_resetEy
	.def	_ZNSt8__detail20_Prime_rehash_policy8_M_resetEy;	.scl	2;	.type	32;	.endef
	.seh_proc	_ZNSt8__detail20_Prime_rehash_policy8_M_resetEy
_ZNSt8__detail20_Prime_rehash_policy8_M_resetEy:
.LFB1705:
	pushq	%rbp
	.seh_pushreg	%rbp
	movq	%rsp, %rbp
	.seh_setframe	%rbp, 0
	.seh_endprologue
	movq	%rcx, 16(%rbp)
	movq	%rdx, 24(%rbp)
	movq	16(%rbp), %rax
	movq	24(%rbp), %rdx
	movq	%rdx, 8(%rax)
	nop
	popq	%rbp
	ret
	.seh_endproc
	.section	.text$_ZSt3minIyERKT_S2_S2_,"x"
	.linkonce discard
	.globl	_ZSt3minIyERKT_S2_S2_
	.def	_ZSt3minIyERKT_S2_S2_;	.scl	2;	.type	32;	.endef
	.seh_proc	_ZSt3minIyERKT_S2_S2_
_ZSt3minIyERKT_S2_S2_:
.LFB1713:
	pushq	%rbp
	.seh_pushreg	%rbp
	movq	%rsp, %rbp
	.seh_setframe	%rbp, 0
	.seh_endprologue
	movq	%rcx, 16(%rbp)
	movq	%rdx, 24(%rbp)
	movq	24(%rbp), %rax
	movq	(%rax), %rdx
	movq	16(%rbp), %rax
	movq	(%rax), %rax
	cmpq	%rax, %rdx
	jnb	.L39
	movq	24(%rbp), %rax
	jmp	.L40
.L39:
	movq	16(%rbp), %rax
.L40:
	popq	%rbp
	ret
	.seh_endproc
	.section	.text$_ZNSt14_Bit_referenceC1EPmm,"x"
	.linkonce discard
	.align 2
	.globl	_ZNSt14_Bit_referenceC1EPmm
	.def	_ZNSt14_Bit_referenceC1EPmm;	.scl	2;	.type	32;	.endef
	.seh_proc	_ZNSt14_Bit_referenceC1EPmm
_ZNSt14_Bit_referenceC1EPmm:
.LFB2295:
	pushq	%rbp
	.seh_pushreg	%rbp
	movq	%rsp, %rbp
	.seh_setframe	%rbp, 0
	.seh_endprologue
	movq	%rcx, 16(%rbp)
	movq	%rdx, 24(%rbp)
	movl	%r8d, 32(%rbp)
	movq	16(%rbp), %rax
	movq	24(%rbp), %rdx
	movq	%rdx, (%rax)
	movq	16(%rbp), %rax
	movl	32(%rbp), %edx
	movl	%edx, 8(%rax)
	nop
	popq	%rbp
	ret
	.seh_endproc
	.section	.text$_ZNKSt14_Bit_referencecvbEv,"x"
	.linkonce discard
	.align 2
	.globl	_ZNKSt14_Bit_referencecvbEv
	.def	_ZNKSt14_Bit_referencecvbEv;	.scl	2;	.type	32;	.endef
	.seh_proc	_ZNKSt14_Bit_referencecvbEv
_ZNKSt14_Bit_referencecvbEv:
.LFB2299:
	pushq	%rbp
	.seh_pushreg	%rbp
	movq	%rsp, %rbp
	.seh_setframe	%rbp, 0
	.seh_endprologue
	movq	%rcx, 16(%rbp)
	movq	16(%rbp), %rax
	movq	(%rax), %rax
	movl	(%rax), %edx
	movq	16(%rbp), %rax
	movl	8(%rax), %eax
	andl	%edx, %eax
	testl	%eax, %eax
	setne	%al
	popq	%rbp
	ret
	.seh_endproc
	.section	.text$_ZNSt14_Bit_referenceaSEb,"x"
	.linkonce discard
	.align 2
	.globl	_ZNSt14_Bit_referenceaSEb
	.def	_ZNSt14_Bit_referenceaSEb;	.scl	2;	.type	32;	.endef
	.seh_proc	_ZNSt14_Bit_referenceaSEb
_ZNSt14_Bit_referenceaSEb:
.LFB2300:
	pushq	%rbp
	.seh_pushreg	%rbp
	movq	%rsp, %rbp
	.seh_setframe	%rbp, 0
	.seh_endprologue
	movq	%rcx, 16(%rbp)
	movl	%edx, %eax
	movb	%al, 24(%rbp)
	cmpb	$0, 24(%rbp)
	je	.L45
	movq	16(%rbp), %rax
	movq	(%rax), %rax
	movl	(%rax), %ecx
	movq	16(%rbp), %rax
	movl	8(%rax), %edx
	movq	16(%rbp), %rax
	movq	(%rax), %rax
	orl	%ecx, %edx
	movl	%edx, (%rax)
	jmp	.L46
.L45:
	movq	16(%rbp), %rax
	movq	(%rax), %rax
	movl	(%rax), %edx
	movq	16(%rbp), %rax
	movl	8(%rax), %eax
	notl	%eax
	movl	%eax, %ecx
	movq	16(%rbp), %rax
	movq	(%rax), %rax
	andl	%ecx, %edx
	movl	%edx, (%rax)
.L46:
	movq	16(%rbp), %rax
	popq	%rbp
	ret
	.seh_endproc
	.section	.text$_ZNSt18_Bit_iterator_baseC2EPmj,"x"
	.linkonce discard
	.align 2
	.globl	_ZNSt18_Bit_iterator_baseC2EPmj
	.def	_ZNSt18_Bit_iterator_baseC2EPmj;	.scl	2;	.type	32;	.endef
	.seh_proc	_ZNSt18_Bit_iterator_baseC2EPmj
_ZNSt18_Bit_iterator_baseC2EPmj:
.LFB2310:
	pushq	%rbp
	.seh_pushreg	%rbp
	movq	%rsp, %rbp
	.seh_setframe	%rbp, 0
	.seh_endprologue
	movq	%rcx, 16(%rbp)
	movq	%rdx, 24(%rbp)
	movl	%r8d, 32(%rbp)
	movq	16(%rbp), %rax
	movq	24(%rbp), %rdx
	movq	%rdx, (%rax)
	movq	16(%rbp), %rax
	movl	32(%rbp), %edx
	movl	%edx, 8(%rax)
	nop
	popq	%rbp
	ret
	.seh_endproc
	.section	.text$_ZNSt18_Bit_iterator_base7_M_incrEx,"x"
	.linkonce discard
	.align 2
	.globl	_ZNSt18_Bit_iterator_base7_M_incrEx
	.def	_ZNSt18_Bit_iterator_base7_M_incrEx;	.scl	2;	.type	32;	.endef
	.seh_proc	_ZNSt18_Bit_iterator_base7_M_incrEx
_ZNSt18_Bit_iterator_base7_M_incrEx:
.LFB2314:
	pushq	%rbp
	.seh_pushreg	%rbp
	movq	%rsp, %rbp
	.seh_setframe	%rbp, 0
	subq	$32, %rsp
	.seh_stackalloc	32
	.seh_endprologue
	movq	%rcx, 16(%rbp)
	movq	%rdx, 24(%rbp)
	movq	16(%rbp), %rax
	movq	%rax, -16(%rbp)
	movq	-16(%rbp), %rax
	movl	8(%rax), %eax
	movl	%eax, -20(%rbp)
	cmpl	$31, -20(%rbp)
	nop
	movq	16(%rbp), %rax
	movl	8(%rax), %eax
	movl	%eax, %edx
	movq	24(%rbp), %rax
	addq	%rdx, %rax
	movq	%rax, -8(%rbp)
	movq	16(%rbp), %rax
	movq	(%rax), %rdx
	movq	-8(%rbp), %rax
	leaq	31(%rax), %rcx
	testq	%rax, %rax
	cmovs	%rcx, %rax
	sarq	$5, %rax
	salq	$2, %rax
	addq	%rax, %rdx
	movq	16(%rbp), %rax
	movq	%rdx, (%rax)
	movq	-8(%rbp), %rdx
	movq	%rdx, %rax
	sarq	$63, %rax
	shrq	$59, %rax
	addq	%rax, %rdx
	andl	$31, %edx
	subq	%rax, %rdx
	movq	%rdx, -8(%rbp)
	cmpq	$0, -8(%rbp)
	jns	.L51
	addq	$32, -8(%rbp)
	movq	16(%rbp), %rax
	movq	(%rax), %rax
	leaq	-4(%rax), %rdx
	movq	16(%rbp), %rax
	movq	%rdx, (%rax)
.L51:
	movq	-8(%rbp), %rax
	movl	%eax, %edx
	movq	16(%rbp), %rax
	movl	%edx, 8(%rax)
	nop
	addq	$32, %rsp
	popq	%rbp
	ret
	.seh_endproc
	.section	.text$_ZStmiRKSt18_Bit_iterator_baseS1_,"x"
	.linkonce discard
	.globl	_ZStmiRKSt18_Bit_iterator_baseS1_
	.def	_ZStmiRKSt18_Bit_iterator_baseS1_;	.scl	2;	.type	32;	.endef
	.seh_proc	_ZStmiRKSt18_Bit_iterator_baseS1_
_ZStmiRKSt18_Bit_iterator_baseS1_:
.LFB2321:
	pushq	%rbp
	.seh_pushreg	%rbp
	movq	%rsp, %rbp
	.seh_setframe	%rbp, 0
	subq	$32, %rsp
	.seh_stackalloc	32
	.seh_endprologue
	movq	%rcx, 16(%rbp)
	movq	%rdx, 24(%rbp)
	movq	16(%rbp), %rax
	movq	%rax, -24(%rbp)
	movq	-24(%rbp), %rax
	movl	8(%rax), %eax
	movl	%eax, -28(%rbp)
	cmpl	$31, -28(%rbp)
	nop
	movq	24(%rbp), %rax
	movq	%rax, -8(%rbp)
	movq	-8(%rbp), %rax
	movl	8(%rax), %eax
	movl	%eax, -12(%rbp)
	cmpl	$31, -12(%rbp)
	nop
	movq	16(%rbp), %rax
	movq	(%rax), %rdx
	movq	24(%rbp), %rax
	movq	(%rax), %rax
	subq	%rax, %rdx
	salq	$3, %rdx
	movq	16(%rbp), %rax
	movl	8(%rax), %eax
	movl	%eax, %eax
	addq	%rax, %rdx
	movq	24(%rbp), %rax
	movl	8(%rax), %eax
	movl	%eax, %ecx
	movq	%rdx, %rax
	subq	%rcx, %rax
	addq	$32, %rsp
	popq	%rbp
	ret
	.seh_endproc
	.section	.text$_ZNSt13_Bit_iteratorC1Ev,"x"
	.linkonce discard
	.align 2
	.globl	_ZNSt13_Bit_iteratorC1Ev
	.def	_ZNSt13_Bit_iteratorC1Ev;	.scl	2;	.type	32;	.endef
	.seh_proc	_ZNSt13_Bit_iteratorC1Ev
_ZNSt13_Bit_iteratorC1Ev:
.LFB2324:
	pushq	%rbp
	.seh_pushreg	%rbp
	movq	%rsp, %rbp
	.seh_setframe	%rbp, 0
	subq	$32, %rsp
	.seh_stackalloc	32
	.seh_endprologue
	movq	%rcx, 16(%rbp)
	movq	16(%rbp), %rax
	movl	$0, %r8d
	movl	$0, %edx
	movq	%rax, %rcx
	call	_ZNSt18_Bit_iterator_baseC2EPmj
	nop
	addq	$32, %rsp
	popq	%rbp
	ret
	.seh_endproc
	.section	.text$_ZNSt13_Bit_iteratorC1EPmj,"x"
	.linkonce discard
	.align 2
	.globl	_ZNSt13_Bit_iteratorC1EPmj
	.def	_ZNSt13_Bit_iteratorC1EPmj;	.scl	2;	.type	32;	.endef
	.seh_proc	_ZNSt13_Bit_iteratorC1EPmj
_ZNSt13_Bit_iteratorC1EPmj:
.LFB2327:
	pushq	%rbp
	.seh_pushreg	%rbp
	movq	%rsp, %rbp
	.seh_setframe	%rbp, 0
	subq	$32, %rsp
	.seh_stackalloc	32
	.seh_endprologue
	movq	%rcx, 16(%rbp)
	movq	%rdx, 24(%rbp)
	movl	%r8d, 32(%rbp)
	movq	16(%rbp), %rax
	movl	32(%rbp), %ecx
	movq	24(%rbp), %rdx
	movl	%ecx, %r8d
	movq	%rax, %rcx
	call	_ZNSt18_Bit_iterator_baseC2EPmj
	nop
	addq	$32, %rsp
	popq	%rbp
	ret
	.seh_endproc
	.section	.text$_ZNKSt13_Bit_iteratordeEv,"x"
	.linkonce discard
	.align 2
	.globl	_ZNKSt13_Bit_iteratordeEv
	.def	_ZNKSt13_Bit_iteratordeEv;	.scl	2;	.type	32;	.endef
	.seh_proc	_ZNKSt13_Bit_iteratordeEv
_ZNKSt13_Bit_iteratordeEv:
.LFB2329:
	pushq	%rbp
	.seh_pushreg	%rbp
	movq	%rsp, %rbp
	.seh_setframe	%rbp, 0
	subq	$48, %rsp
	.seh_stackalloc	48
	.seh_endprologue
	movq	%rcx, 16(%rbp)
	movq	%rdx, 24(%rbp)
	movq	24(%rbp), %rax
	movq	%rax, -8(%rbp)
	movq	-8(%rbp), %rax
	movl	8(%rax), %eax
	movl	%eax, -12(%rbp)
	cmpl	$31, -12(%rbp)
	nop
	movq	24(%rbp), %rax
	movl	8(%rax), %eax
	movl	$1, %edx
	movl	%eax, %ecx
	sall	%cl, %edx
	movl	%edx, %ecx
	movq	24(%rbp), %rax
	movq	(%rax), %rdx
	movq	16(%rbp), %rax
	movl	%ecx, %r8d
	movq	%rax, %rcx
	call	_ZNSt14_Bit_referenceC1EPmm
	movq	16(%rbp), %rax
	addq	$48, %rsp
	popq	%rbp
	ret
	.seh_endproc
	.section	.text$_ZNSt13_Bit_iteratorpLEx,"x"
	.linkonce discard
	.align 2
	.globl	_ZNSt13_Bit_iteratorpLEx
	.def	_ZNSt13_Bit_iteratorpLEx;	.scl	2;	.type	32;	.endef
	.seh_proc	_ZNSt13_Bit_iteratorpLEx
_ZNSt13_Bit_iteratorpLEx:
.LFB2334:
	pushq	%rbp
	.seh_pushreg	%rbp
	movq	%rsp, %rbp
	.seh_setframe	%rbp, 0
	subq	$32, %rsp
	.seh_stackalloc	32
	.seh_endprologue
	movq	%rcx, 16(%rbp)
	movq	%rdx, 24(%rbp)
	movq	16(%rbp), %rax
	movq	24(%rbp), %rdx
	movq	%rax, %rcx
	call	_ZNSt18_Bit_iterator_base7_M_incrEx
	movq	16(%rbp), %rax
	addq	$32, %rsp
	popq	%rbp
	ret
	.seh_endproc
	.section	.text$_ZNKSt13_Bit_iteratorixEx,"x"
	.linkonce discard
	.align 2
	.globl	_ZNKSt13_Bit_iteratorixEx
	.def	_ZNKSt13_Bit_iteratorixEx;	.scl	2;	.type	32;	.endef
	.seh_proc	_ZNKSt13_Bit_iteratorixEx
_ZNKSt13_Bit_iteratorixEx:
.LFB2336:
	pushq	%rbp
	.seh_pushreg	%rbp
	movq	%rsp, %rbp
	.seh_setframe	%rbp, 0
	subq	$48, %rsp
	.seh_stackalloc	48
	.seh_endprologue
	movq	%rcx, 16(%rbp)
	movq	%rdx, 24(%rbp)
	movq	%r8, 32(%rbp)
	leaq	-16(%rbp), %rax
	movq	32(%rbp), %rcx
	movq	24(%rbp), %rdx
	movq	%rcx, %r8
	movq	%rax, %rcx
	call	_ZStplRKSt13_Bit_iteratorx
	movq	16(%rbp), %rax
	leaq	-16(%rbp), %rdx
	movq	%rax, %rcx
	call	_ZNKSt13_Bit_iteratordeEv
	movq	16(%rbp), %rax
	addq	$48, %rsp
	popq	%rbp
	ret
	.seh_endproc
	.section	.text$_ZStplRKSt13_Bit_iteratorx,"x"
	.linkonce discard
	.globl	_ZStplRKSt13_Bit_iteratorx
	.def	_ZStplRKSt13_Bit_iteratorx;	.scl	2;	.type	32;	.endef
	.seh_proc	_ZStplRKSt13_Bit_iteratorx
_ZStplRKSt13_Bit_iteratorx:
.LFB2337:
	pushq	%rbp
	.seh_pushreg	%rbp
	movq	%rsp, %rbp
	.seh_setframe	%rbp, 0
	subq	$32, %rsp
	.seh_stackalloc	32
	.seh_endprologue
	movq	%rcx, 16(%rbp)
	movq	%rdx, 24(%rbp)
	movq	%r8, 32(%rbp)
	movq	16(%rbp), %rcx
	movq	24(%rbp), %rax
	movq	8(%rax), %rdx
	movq	(%rax), %rax
	movq	%rax, (%rcx)
	movq	%rdx, 8(%rcx)
	movq	32(%rbp), %rdx
	movq	16(%rbp), %rax
	movq	%rax, %rcx
	call	_ZNSt13_Bit_iteratorpLEx
	nop
	movq	16(%rbp), %rax
	addq	$32, %rsp
	popq	%rbp
	ret
	.seh_endproc
	.section	.text$_ZNSt19_Bit_const_iteratorC1EPmj,"x"
	.linkonce discard
	.align 2
	.globl	_ZNSt19_Bit_const_iteratorC1EPmj
	.def	_ZNSt19_Bit_const_iteratorC1EPmj;	.scl	2;	.type	32;	.endef
	.seh_proc	_ZNSt19_Bit_const_iteratorC1EPmj
_ZNSt19_Bit_const_iteratorC1EPmj:
.LFB2345:
	pushq	%rbp
	.seh_pushreg	%rbp
	movq	%rsp, %rbp
	.seh_setframe	%rbp, 0
	subq	$32, %rsp
	.seh_stackalloc	32
	.seh_endprologue
	movq	%rcx, 16(%rbp)
	movq	%rdx, 24(%rbp)
	movl	%r8d, 32(%rbp)
	movq	16(%rbp), %rax
	movl	32(%rbp), %ecx
	movq	24(%rbp), %rdx
	movl	%ecx, %r8d
	movq	%rax, %rcx
	call	_ZNSt18_Bit_iterator_baseC2EPmj
	nop
	addq	$32, %rsp
	popq	%rbp
	ret
	.seh_endproc
	.section	.text$_ZNSt19_Bit_const_iteratorC1ERKSt13_Bit_iterator,"x"
	.linkonce discard
	.align 2
	.globl	_ZNSt19_Bit_const_iteratorC1ERKSt13_Bit_iterator
	.def	_ZNSt19_Bit_const_iteratorC1ERKSt13_Bit_iterator;	.scl	2;	.type	32;	.endef
	.seh_proc	_ZNSt19_Bit_const_iteratorC1ERKSt13_Bit_iterator
_ZNSt19_Bit_const_iteratorC1ERKSt13_Bit_iterator:
.LFB2348:
	pushq	%rbp
	.seh_pushreg	%rbp
	movq	%rsp, %rbp
	.seh_setframe	%rbp, 0
	subq	$32, %rsp
	.seh_stackalloc	32
	.seh_endprologue
	movq	%rcx, 16(%rbp)
	movq	%rdx, 24(%rbp)
	movq	16(%rbp), %rax
	movq	24(%rbp), %rdx
	movl	8(%rdx), %ecx
	movq	24(%rbp), %rdx
	movq	(%rdx), %rdx
	movl	%ecx, %r8d
	movq	%rax, %rcx
	call	_ZNSt18_Bit_iterator_baseC2EPmj
	nop
	addq	$32, %rsp
	popq	%rbp
	ret
	.seh_endproc
	.section	.text$_ZNSt15_Rb_tree_headerC2Ev,"x"
	.linkonce discard
	.align 2
	.globl	_ZNSt15_Rb_tree_headerC2Ev
	.def	_ZNSt15_Rb_tree_headerC2Ev;	.scl	2;	.type	32;	.endef
	.seh_proc	_ZNSt15_Rb_tree_headerC2Ev
_ZNSt15_Rb_tree_headerC2Ev:
.LFB2503:
	pushq	%rbp
	.seh_pushreg	%rbp
	movq	%rsp, %rbp
	.seh_setframe	%rbp, 0
	subq	$32, %rsp
	.seh_stackalloc	32
	.seh_endprologue
	movq	%rcx, 16(%rbp)
	movq	16(%rbp), %rax
	movl	$0, (%rax)
	movq	16(%rbp), %rax
	movq	%rax, %rcx
	call	_ZNSt15_Rb_tree_header8_M_resetEv
	nop
	addq	$32, %rsp
	popq	%rbp
	ret
	.seh_endproc
	.section	.text$_ZNSt15_Rb_tree_header8_M_resetEv,"x"
	.linkonce discard
	.align 2
	.globl	_ZNSt15_Rb_tree_header8_M_resetEv
	.def	_ZNSt15_Rb_tree_header8_M_resetEv;	.scl	2;	.type	32;	.endef
	.seh_proc	_ZNSt15_Rb_tree_header8_M_resetEv
_ZNSt15_Rb_tree_header8_M_resetEv:
.LFB2509:
	pushq	%rbp
	.seh_pushreg	%rbp
	movq	%rsp, %rbp
	.seh_setframe	%rbp, 0
	.seh_endprologue
	movq	%rcx, 16(%rbp)
	movq	16(%rbp), %rax
	movq	$0, 8(%rax)
	movq	16(%rbp), %rdx
	movq	16(%rbp), %rax
	movq	%rdx, 16(%rax)
	movq	16(%rbp), %rdx
	movq	16(%rbp), %rax
	movq	%rdx, 24(%rax)
	movq	16(%rbp), %rax
	movq	$0, 32(%rax)
	nop
	popq	%rbp
	ret
	.seh_endproc
	.globl	_Z12keywordsListB5cxx11
	.section	.data$_Z12keywordsListB5cxx11,"w"
	.linkonce same_size
	.align 32
_Z12keywordsListB5cxx11:
	.space 56
	.globl	_Z9inputPinsB5cxx11
	.section	.data$_Z9inputPinsB5cxx11,"w"
	.linkonce same_size
	.align 32
_Z9inputPinsB5cxx11:
	.space 48
	.section	.text$_ZNSt8_Rb_treeINSt7__cxx1112basic_stringIcSt11char_traitsIcESaIcEEES5_St9_IdentityIS5_ESt4lessIS5_ESaIS5_EE13_Rb_tree_implIS9_Lb1EED1Ev,"x"
	.linkonce discard
	.align 2
	.globl	_ZNSt8_Rb_treeINSt7__cxx1112basic_stringIcSt11char_traitsIcESaIcEEES5_St9_IdentityIS5_ESt4lessIS5_ESaIS5_EE13_Rb_tree_implIS9_Lb1EED1Ev
	.def	_ZNSt8_Rb_treeINSt7__cxx1112basic_stringIcSt11char_traitsIcESaIcEEES5_St9_IdentityIS5_ESt4lessIS5_ESaIS5_EE13_Rb_tree_implIS9_Lb1EED1Ev;	.scl	2;	.type	32;	.endef
	.seh_proc	_ZNSt8_Rb_treeINSt7__cxx1112basic_stringIcSt11char_traitsIcESaIcEEES5_St9_IdentityIS5_ESt4lessIS5_ESaIS5_EE13_Rb_tree_implIS9_Lb1EED1Ev
_ZNSt8_Rb_treeINSt7__cxx1112basic_stringIcSt11char_traitsIcESaIcEEES5_St9_IdentityIS5_ESt4lessIS5_ESaIS5_EE13_Rb_tree_implIS9_Lb1EED1Ev:
.LFB3894:
	pushq	%rbp
	.seh_pushreg	%rbp
	movq	%rsp, %rbp
	.seh_setframe	%rbp, 0
	subq	$48, %rsp
	.seh_stackalloc	48
	.seh_endprologue
	movq	%rcx, 16(%rbp)
	movq	16(%rbp), %rax
	movq	%rax, -8(%rbp)
	movq	-8(%rbp), %rax
	movq	%rax, %rcx
	call	_ZNSt15__new_allocatorISt13_Rb_tree_nodeINSt7__cxx1112basic_stringIcSt11char_traitsIcESaIcEEEEED2Ev
	nop
	nop
	addq	$48, %rsp
	popq	%rbp
	ret
	.seh_endproc
	.section	.text$_ZNSt8_Rb_treeINSt7__cxx1112basic_stringIcSt11char_traitsIcESaIcEEES5_St9_IdentityIS5_ESt4lessIS5_ESaIS5_EEC1Ev,"x"
	.linkonce discard
	.align 2
	.globl	_ZNSt8_Rb_treeINSt7__cxx1112basic_stringIcSt11char_traitsIcESaIcEEES5_St9_IdentityIS5_ESt4lessIS5_ESaIS5_EEC1Ev
	.def	_ZNSt8_Rb_treeINSt7__cxx1112basic_stringIcSt11char_traitsIcESaIcEEES5_St9_IdentityIS5_ESt4lessIS5_ESaIS5_EEC1Ev;	.scl	2;	.type	32;	.endef
	.seh_proc	_ZNSt8_Rb_treeINSt7__cxx1112basic_stringIcSt11char_traitsIcESaIcEEES5_St9_IdentityIS5_ESt4lessIS5_ESaIS5_EEC1Ev
_ZNSt8_Rb_treeINSt7__cxx1112basic_stringIcSt11char_traitsIcESaIcEEES5_St9_IdentityIS5_ESt4lessIS5_ESaIS5_EEC1Ev:
.LFB3896:
	pushq	%rbp
	.seh_pushreg	%rbp
	movq	%rsp, %rbp
	.seh_setframe	%rbp, 0
	subq	$32, %rsp
	.seh_stackalloc	32
	.seh_endprologue
	movq	%rcx, 16(%rbp)
	movq	16(%rbp), %rax
	movq	%rax, %rcx
	call	_ZNSt8_Rb_treeINSt7__cxx1112basic_stringIcSt11char_traitsIcESaIcEEES5_St9_IdentityIS5_ESt4lessIS5_ESaIS5_EE13_Rb_tree_implIS9_Lb1EEC1Ev
	nop
	addq	$32, %rsp
	popq	%rbp
	ret
	.seh_endproc
	.section	.text$_ZNSt3setINSt7__cxx1112basic_stringIcSt11char_traitsIcESaIcEEESt4lessIS5_ESaIS5_EEC1Ev,"x"
	.linkonce discard
	.align 2
	.globl	_ZNSt3setINSt7__cxx1112basic_stringIcSt11char_traitsIcESaIcEEESt4lessIS5_ESaIS5_EEC1Ev
	.def	_ZNSt3setINSt7__cxx1112basic_stringIcSt11char_traitsIcESaIcEEESt4lessIS5_ESaIS5_EEC1Ev;	.scl	2;	.type	32;	.endef
	.seh_proc	_ZNSt3setINSt7__cxx1112basic_stringIcSt11char_traitsIcESaIcEEESt4lessIS5_ESaIS5_EEC1Ev
_ZNSt3setINSt7__cxx1112basic_stringIcSt11char_traitsIcESaIcEEESt4lessIS5_ESaIS5_EEC1Ev:
.LFB3898:
	pushq	%rbp
	.seh_pushreg	%rbp
	movq	%rsp, %rbp
	.seh_setframe	%rbp, 0
	subq	$32, %rsp
	.seh_stackalloc	32
	.seh_endprologue
	movq	%rcx, 16(%rbp)
	movq	16(%rbp), %rax
	movq	%rax, %rcx
	call	_ZNSt8_Rb_treeINSt7__cxx1112basic_stringIcSt11char_traitsIcESaIcEEES5_St9_IdentityIS5_ESt4lessIS5_ESaIS5_EEC1Ev
	nop
	addq	$32, %rsp
	popq	%rbp
	ret
	.seh_endproc
	.globl	_Z10outputPinsB5cxx11
	.section	.data$_Z10outputPinsB5cxx11,"w"
	.linkonce same_size
	.align 32
_Z10outputPinsB5cxx11:
	.space 48
	.globl	_Z10funcParamsB5cxx11
	.section	.data$_Z10funcParamsB5cxx11,"w"
	.linkonce same_size
	.align 32
_Z10funcParamsB5cxx11:
	.space 48
	.globl	_Z15parsedVariablesB5cxx11
	.section	.data$_Z15parsedVariablesB5cxx11,"w"
	.linkonce same_size
	.align 32
_Z15parsedVariablesB5cxx11:
	.space 48
	.globl	_Z17includedLibrariesB5cxx11
	.section	.data$_Z17includedLibrariesB5cxx11,"w"
	.linkonce same_size
	.align 32
_Z17includedLibrariesB5cxx11:
	.space 48
	.globl	_Z17declaredVariablesB5cxx11
	.section	.data$_Z17declaredVariablesB5cxx11,"w"
	.linkonce same_size
	.align 32
_Z17declaredVariablesB5cxx11:
	.space 48
	.globl	_Z19reassignedVariablesB5cxx11
	.section	.data$_Z19reassignedVariablesB5cxx11,"w"
	.linkonce same_size
	.align 32
_Z19reassignedVariablesB5cxx11:
	.space 48
	.globl	_Z20userFuncOutputParamsB5cxx11
	.section	.data$_Z20userFuncOutputParamsB5cxx11,"w"
	.linkonce same_size
	.align 32
_Z20userFuncOutputParamsB5cxx11:
	.space 48
	.section	.text$_ZNSt8_Rb_treeINSt7__cxx1112basic_stringIcSt11char_traitsIcESaIcEEESt4pairIKS5_St6vectorIbSaIbEEESt10_Select1stISB_ESt4lessIS5_ESaISB_EE13_Rb_tree_implISF_Lb1EED1Ev,"x"
	.linkonce discard
	.align 2
	.globl	_ZNSt8_Rb_treeINSt7__cxx1112basic_stringIcSt11char_traitsIcESaIcEEESt4pairIKS5_St6vectorIbSaIbEEESt10_Select1stISB_ESt4lessIS5_ESaISB_EE13_Rb_tree_implISF_Lb1EED1Ev
	.def	_ZNSt8_Rb_treeINSt7__cxx1112basic_stringIcSt11char_traitsIcESaIcEEESt4pairIKS5_St6vectorIbSaIbEEESt10_Select1stISB_ESt4lessIS5_ESaISB_EE13_Rb_tree_implISF_Lb1EED1Ev;	.scl	2;	.type	32;	.endef
	.seh_proc	_ZNSt8_Rb_treeINSt7__cxx1112basic_stringIcSt11char_traitsIcESaIcEEESt4pairIKS5_St6vectorIbSaIbEEESt10_Select1stISB_ESt4lessIS5_ESaISB_EE13_Rb_tree_implISF_Lb1EED1Ev
_ZNSt8_Rb_treeINSt7__cxx1112basic_stringIcSt11char_traitsIcESaIcEEESt4pairIKS5_St6vectorIbSaIbEEESt10_Select1stISB_ESt4lessIS5_ESaISB_EE13_Rb_tree_implISF_Lb1EED1Ev:
.LFB3904:
	pushq	%rbp
	.seh_pushreg	%rbp
	movq	%rsp, %rbp
	.seh_setframe	%rbp, 0
	subq	$48, %rsp
	.seh_stackalloc	48
	.seh_endprologue
	movq	%rcx, 16(%rbp)
	movq	16(%rbp), %rax
	movq	%rax, -8(%rbp)
	movq	-8(%rbp), %rax
	movq	%rax, %rcx
	call	_ZNSt15__new_allocatorISt13_Rb_tree_nodeISt4pairIKNSt7__cxx1112basic_stringIcSt11char_traitsIcESaIcEEESt6vectorIbSaIbEEEEED2Ev
	nop
	nop
	addq	$48, %rsp
	popq	%rbp
	ret
	.seh_endproc
	.section	.text$_ZNSt8_Rb_treeINSt7__cxx1112basic_stringIcSt11char_traitsIcESaIcEEESt4pairIKS5_St6vectorIbSaIbEEESt10_Select1stISB_ESt4lessIS5_ESaISB_EEC1Ev,"x"
	.linkonce discard
	.align 2
	.globl	_ZNSt8_Rb_treeINSt7__cxx1112basic_stringIcSt11char_traitsIcESaIcEEESt4pairIKS5_St6vectorIbSaIbEEESt10_Select1stISB_ESt4lessIS5_ESaISB_EEC1Ev
	.def	_ZNSt8_Rb_treeINSt7__cxx1112basic_stringIcSt11char_traitsIcESaIcEEESt4pairIKS5_St6vectorIbSaIbEEESt10_Select1stISB_ESt4lessIS5_ESaISB_EEC1Ev;	.scl	2;	.type	32;	.endef
	.seh_proc	_ZNSt8_Rb_treeINSt7__cxx1112basic_stringIcSt11char_traitsIcESaIcEEESt4pairIKS5_St6vectorIbSaIbEEESt10_Select1stISB_ESt4lessIS5_ESaISB_EEC1Ev
_ZNSt8_Rb_treeINSt7__cxx1112basic_stringIcSt11char_traitsIcESaIcEEESt4pairIKS5_St6vectorIbSaIbEEESt10_Select1stISB_ESt4lessIS5_ESaISB_EEC1Ev:
.LFB3906:
	pushq	%rbp
	.seh_pushreg	%rbp
	movq	%rsp, %rbp
	.seh_setframe	%rbp, 0
	subq	$32, %rsp
	.seh_stackalloc	32
	.seh_endprologue
	movq	%rcx, 16(%rbp)
	movq	16(%rbp), %rax
	movq	%rax, %rcx
	call	_ZNSt8_Rb_treeINSt7__cxx1112basic_stringIcSt11char_traitsIcESaIcEEESt4pairIKS5_St6vectorIbSaIbEEESt10_Select1stISB_ESt4lessIS5_ESaISB_EE13_Rb_tree_implISF_Lb1EEC1Ev
	nop
	addq	$32, %rsp
	popq	%rbp
	ret
	.seh_endproc
	.section	.text$_ZNSt3mapINSt7__cxx1112basic_stringIcSt11char_traitsIcESaIcEEESt6vectorIbSaIbEESt4lessIS5_ESaISt4pairIKS5_S8_EEEC1Ev,"x"
	.linkonce discard
	.align 2
	.globl	_ZNSt3mapINSt7__cxx1112basic_stringIcSt11char_traitsIcESaIcEEESt6vectorIbSaIbEESt4lessIS5_ESaISt4pairIKS5_S8_EEEC1Ev
	.def	_ZNSt3mapINSt7__cxx1112basic_stringIcSt11char_traitsIcESaIcEEESt6vectorIbSaIbEESt4lessIS5_ESaISt4pairIKS5_S8_EEEC1Ev;	.scl	2;	.type	32;	.endef
	.seh_proc	_ZNSt3mapINSt7__cxx1112basic_stringIcSt11char_traitsIcESaIcEEESt6vectorIbSaIbEESt4lessIS5_ESaISt4pairIKS5_S8_EEEC1Ev
_ZNSt3mapINSt7__cxx1112basic_stringIcSt11char_traitsIcESaIcEEESt6vectorIbSaIbEESt4lessIS5_ESaISt4pairIKS5_S8_EEEC1Ev:
.LFB3908:
	pushq	%rbp
	.seh_pushreg	%rbp
	movq	%rsp, %rbp
	.seh_setframe	%rbp, 0
	subq	$32, %rsp
	.seh_stackalloc	32
	.seh_endprologue
	movq	%rcx, 16(%rbp)
	movq	16(%rbp), %rax
	movq	%rax, %rcx
	call	_ZNSt8_Rb_treeINSt7__cxx1112basic_stringIcSt11char_traitsIcESaIcEEESt4pairIKS5_St6vectorIbSaIbEEESt10_Select1stISB_ESt4lessIS5_ESaISB_EEC1Ev
	nop
	addq	$32, %rsp
	popq	%rbp
	ret
	.seh_endproc
	.globl	_Z19userFuncInputParamsB5cxx11
	.section	.data$_Z19userFuncInputParamsB5cxx11,"w"
	.linkonce same_size
	.align 32
_Z19userFuncInputParamsB5cxx11:
	.space 48
	.globl	_Z22currentParsingUserFuncB5cxx11
	.section	.data$_Z22currentParsingUserFuncB5cxx11,"w"
	.linkonce same_size
	.align 32
_Z22currentParsingUserFuncB5cxx11:
	.space 32
	.globl	_Z21currentFuncParamNamesB5cxx11
	.section	.data$_Z21currentFuncParamNamesB5cxx11,"w"
	.linkonce same_size
	.align 16
_Z21currentFuncParamNamesB5cxx11:
	.space 24
	.section	.text$_ZNSt12_Vector_baseINSt7__cxx1112basic_stringIcSt11char_traitsIcESaIcEEESaIS5_EE12_Vector_implD1Ev,"x"
	.linkonce discard
	.align 2
	.globl	_ZNSt12_Vector_baseINSt7__cxx1112basic_stringIcSt11char_traitsIcESaIcEEESaIS5_EE12_Vector_implD1Ev
	.def	_ZNSt12_Vector_baseINSt7__cxx1112basic_stringIcSt11char_traitsIcESaIcEEESaIS5_EE12_Vector_implD1Ev;	.scl	2;	.type	32;	.endef
	.seh_proc	_ZNSt12_Vector_baseINSt7__cxx1112basic_stringIcSt11char_traitsIcESaIcEEESaIS5_EE12_Vector_implD1Ev
_ZNSt12_Vector_baseINSt7__cxx1112basic_stringIcSt11char_traitsIcESaIcEEESaIS5_EE12_Vector_implD1Ev:
.LFB3913:
	pushq	%rbp
	.seh_pushreg	%rbp
	movq	%rsp, %rbp
	.seh_setframe	%rbp, 0
	subq	$48, %rsp
	.seh_stackalloc	48
	.seh_endprologue
	movq	%rcx, 16(%rbp)
	movq	16(%rbp), %rax
	movq	%rax, -8(%rbp)
	movq	-8(%rbp), %rax
	movq	%rax, %rcx
	call	_ZNSt15__new_allocatorINSt7__cxx1112basic_stringIcSt11char_traitsIcESaIcEEEED2Ev
	nop
	nop
	addq	$48, %rsp
	popq	%rbp
	ret
	.seh_endproc
	.section	.text$_ZNSt12_Vector_baseINSt7__cxx1112basic_stringIcSt11char_traitsIcESaIcEEESaIS5_EEC2Ev,"x"
	.linkonce discard
	.align 2
	.globl	_ZNSt12_Vector_baseINSt7__cxx1112basic_stringIcSt11char_traitsIcESaIcEEESaIS5_EEC2Ev
	.def	_ZNSt12_Vector_baseINSt7__cxx1112basic_stringIcSt11char_traitsIcESaIcEEESaIS5_EEC2Ev;	.scl	2;	.type	32;	.endef
	.seh_proc	_ZNSt12_Vector_baseINSt7__cxx1112basic_stringIcSt11char_traitsIcESaIcEEESaIS5_EEC2Ev
_ZNSt12_Vector_baseINSt7__cxx1112basic_stringIcSt11char_traitsIcESaIcEEESaIS5_EEC2Ev:
.LFB3914:
	pushq	%rbp
	.seh_pushreg	%rbp
	movq	%rsp, %rbp
	.seh_setframe	%rbp, 0
	subq	$32, %rsp
	.seh_stackalloc	32
	.seh_endprologue
	movq	%rcx, 16(%rbp)
	movq	16(%rbp), %rax
	movq	%rax, %rcx
	call	_ZNSt12_Vector_baseINSt7__cxx1112basic_stringIcSt11char_traitsIcESaIcEEESaIS5_EE12_Vector_implC1Ev
	nop
	addq	$32, %rsp
	popq	%rbp
	ret
	.seh_endproc
	.section	.text$_ZNSt6vectorINSt7__cxx1112basic_stringIcSt11char_traitsIcESaIcEEESaIS5_EEC1Ev,"x"
	.linkonce discard
	.align 2
	.globl	_ZNSt6vectorINSt7__cxx1112basic_stringIcSt11char_traitsIcESaIcEEESaIS5_EEC1Ev
	.def	_ZNSt6vectorINSt7__cxx1112basic_stringIcSt11char_traitsIcESaIcEEESaIS5_EEC1Ev;	.scl	2;	.type	32;	.endef
	.seh_proc	_ZNSt6vectorINSt7__cxx1112basic_stringIcSt11char_traitsIcESaIcEEESaIS5_EEC1Ev
_ZNSt6vectorINSt7__cxx1112basic_stringIcSt11char_traitsIcESaIcEEESaIS5_EEC1Ev:
.LFB3917:
	pushq	%rbp
	.seh_pushreg	%rbp
	movq	%rsp, %rbp
	.seh_setframe	%rbp, 0
	subq	$32, %rsp
	.seh_stackalloc	32
	.seh_endprologue
	movq	%rcx, 16(%rbp)
	movq	16(%rbp), %rax
	movq	%rax, %rcx
	call	_ZNSt12_Vector_baseINSt7__cxx1112basic_stringIcSt11char_traitsIcESaIcEEESaIS5_EEC2Ev
	nop
	addq	$32, %rsp
	popq	%rbp
	ret
	.seh_endproc
	.section	.text$_ZN7ASTNodeC2Ev,"x"
	.linkonce discard
	.align 2
	.globl	_ZN7ASTNodeC2Ev
	.def	_ZN7ASTNodeC2Ev;	.scl	2;	.type	32;	.endef
	.seh_proc	_ZN7ASTNodeC2Ev
_ZN7ASTNodeC2Ev:
.LFB3921:
	pushq	%rbp
	.seh_pushreg	%rbp
	movq	%rsp, %rbp
	.seh_setframe	%rbp, 0
	.seh_endprologue
	movq	%rcx, 16(%rbp)
	leaq	16+_ZTV7ASTNode(%rip), %rdx
	movq	16(%rbp), %rax
	movq	%rdx, (%rax)
	nop
	popq	%rbp
	ret
	.seh_endproc
	.section	.text$_ZN7ASTNodeD2Ev,"x"
	.linkonce discard
	.align 2
	.globl	_ZN7ASTNodeD2Ev
	.def	_ZN7ASTNodeD2Ev;	.scl	2;	.type	32;	.endef
	.seh_proc	_ZN7ASTNodeD2Ev
_ZN7ASTNodeD2Ev:
.LFB3924:
	pushq	%rbp
	.seh_pushreg	%rbp
	movq	%rsp, %rbp
	.seh_setframe	%rbp, 0
	.seh_endprologue
	movq	%rcx, 16(%rbp)
	leaq	16+_ZTV7ASTNode(%rip), %rdx
	movq	16(%rbp), %rax
	movq	%rdx, (%rax)
	nop
	popq	%rbp
	ret
	.seh_endproc
	.section	.text$_ZNSt12_Vector_baseISt10unique_ptrI7ASTNodeSt14default_deleteIS1_EESaIS4_EE12_Vector_implD1Ev,"x"
	.linkonce discard
	.align 2
	.globl	_ZNSt12_Vector_baseISt10unique_ptrI7ASTNodeSt14default_deleteIS1_EESaIS4_EE12_Vector_implD1Ev
	.def	_ZNSt12_Vector_baseISt10unique_ptrI7ASTNodeSt14default_deleteIS1_EESaIS4_EE12_Vector_implD1Ev;	.scl	2;	.type	32;	.endef
	.seh_proc	_ZNSt12_Vector_baseISt10unique_ptrI7ASTNodeSt14default_deleteIS1_EESaIS4_EE12_Vector_implD1Ev
_ZNSt12_Vector_baseISt10unique_ptrI7ASTNodeSt14default_deleteIS1_EESaIS4_EE12_Vector_implD1Ev:
.LFB3939:
	pushq	%rbp
	.seh_pushreg	%rbp
	movq	%rsp, %rbp
	.seh_setframe	%rbp, 0
	subq	$48, %rsp
	.seh_stackalloc	48
	.seh_endprologue
	movq	%rcx, 16(%rbp)
	movq	16(%rbp), %rax
	movq	%rax, -8(%rbp)
	movq	-8(%rbp), %rax
	movq	%rax, %rcx
	call	_ZNSt15__new_allocatorISt10unique_ptrI7ASTNodeSt14default_deleteIS1_EEED2Ev
	nop
	nop
	addq	$48, %rsp
	popq	%rbp
	ret
	.seh_endproc
	.section	.text$_ZNSt12_Vector_baseISt10unique_ptrI7ASTNodeSt14default_deleteIS1_EESaIS4_EEC2EOS6_,"x"
	.linkonce discard
	.align 2
	.globl	_ZNSt12_Vector_baseISt10unique_ptrI7ASTNodeSt14default_deleteIS1_EESaIS4_EEC2EOS6_
	.def	_ZNSt12_Vector_baseISt10unique_ptrI7ASTNodeSt14default_deleteIS1_EESaIS4_EEC2EOS6_;	.scl	2;	.type	32;	.endef
	.seh_proc	_ZNSt12_Vector_baseISt10unique_ptrI7ASTNodeSt14default_deleteIS1_EESaIS4_EEC2EOS6_
_ZNSt12_Vector_baseISt10unique_ptrI7ASTNodeSt14default_deleteIS1_EESaIS4_EEC2EOS6_:
.LFB3940:
	pushq	%rbp
	.seh_pushreg	%rbp
	movq	%rsp, %rbp
	.seh_setframe	%rbp, 0
	subq	$32, %rsp
	.seh_stackalloc	32
	.seh_endprologue
	movq	%rcx, 16(%rbp)
	movq	%rdx, 24(%rbp)
	movq	16(%rbp), %rax
	movq	24(%rbp), %rdx
	movq	%rax, %rcx
	call	_ZNSt12_Vector_baseISt10unique_ptrI7ASTNodeSt14default_deleteIS1_EESaIS4_EE12_Vector_implC1EOS7_
	nop
	addq	$32, %rsp
	popq	%rbp
	ret
	.seh_endproc
	.section	.text$_ZNSt6vectorISt10unique_ptrI7ASTNodeSt14default_deleteIS1_EESaIS4_EEC1EOS6_,"x"
	.linkonce discard
	.align 2
	.globl	_ZNSt6vectorISt10unique_ptrI7ASTNodeSt14default_deleteIS1_EESaIS4_EEC1EOS6_
	.def	_ZNSt6vectorISt10unique_ptrI7ASTNodeSt14default_deleteIS1_EESaIS4_EEC1EOS6_;	.scl	2;	.type	32;	.endef
	.seh_proc	_ZNSt6vectorISt10unique_ptrI7ASTNodeSt14default_deleteIS1_EESaIS4_EEC1EOS6_
_ZNSt6vectorISt10unique_ptrI7ASTNodeSt14default_deleteIS1_EESaIS4_EEC1EOS6_:
.LFB3943:
	pushq	%rbp
	.seh_pushreg	%rbp
	movq	%rsp, %rbp
	.seh_setframe	%rbp, 0
	subq	$32, %rsp
	.seh_stackalloc	32
	.seh_endprologue
	movq	%rcx, 16(%rbp)
	movq	%rdx, 24(%rbp)
	movq	16(%rbp), %rax
	movq	24(%rbp), %rdx
	movq	%rax, %rcx
	call	_ZNSt12_Vector_baseISt10unique_ptrI7ASTNodeSt14default_deleteIS1_EESaIS4_EEC2EOS6_
	nop
	addq	$32, %rsp
	popq	%rbp
	ret
	.seh_endproc
	.section	.text$_ZN12FunctionNodeC1ERKNSt7__cxx1112basic_stringIcSt11char_traitsIcESaIcEEESt6vectorISt10unique_ptrI7ASTNodeSt14default_deleteISA_EESaISD_EE,"x"
	.linkonce discard
	.align 2
	.globl	_ZN12FunctionNodeC1ERKNSt7__cxx1112basic_stringIcSt11char_traitsIcESaIcEEESt6vectorISt10unique_ptrI7ASTNodeSt14default_deleteISA_EESaISD_EE
	.def	_ZN12FunctionNodeC1ERKNSt7__cxx1112basic_stringIcSt11char_traitsIcESaIcEEESt6vectorISt10unique_ptrI7ASTNodeSt14default_deleteISA_EESaISD_EE;	.scl	2;	.type	32;	.endef
	.seh_proc	_ZN12FunctionNodeC1ERKNSt7__cxx1112basic_stringIcSt11char_traitsIcESaIcEEESt6vectorISt10unique_ptrI7ASTNodeSt14default_deleteISA_EESaISD_EE
_ZN12FunctionNodeC1ERKNSt7__cxx1112basic_stringIcSt11char_traitsIcESaIcEEESt6vectorISt10unique_ptrI7ASTNodeSt14default_deleteISA_EESaISD_EE:
.LFB3945:
	pushq	%rbp
	.seh_pushreg	%rbp
	pushq	%rbx
	.seh_pushreg	%rbx
	subq	$40, %rsp
	.seh_stackalloc	40
	leaq	32(%rsp), %rbp
	.seh_setframe	%rbp, 32
	.seh_endprologue
	movq	%rcx, 32(%rbp)
	movq	%rdx, 40(%rbp)
	movq	%r8, 48(%rbp)
	movq	32(%rbp), %rax
	movq	%rax, %rcx
	call	_ZN7ASTNodeC2Ev
	leaq	16+_ZTV12FunctionNode(%rip), %rdx
	movq	32(%rbp), %rax
	movq	%rdx, (%rax)
	movq	32(%rbp), %rax
	leaq	8(%rax), %rcx
	movq	40(%rbp), %rax
	movq	%rax, %rdx
.LEHB0:
	call	_ZNSt7__cxx1112basic_stringIcSt11char_traitsIcESaIcEEC1ERKS4_
.LEHE0:
	movq	32(%rbp), %rax
	leaq	40(%rax), %rbx
	movq	48(%rbp), %rax
	movq	%rax, %rcx
	call	_ZSt4moveIRSt6vectorISt10unique_ptrI7ASTNodeSt14default_deleteIS2_EESaIS5_EEEONSt16remove_referenceIT_E4typeEOSA_
	movq	%rax, %rdx
	movq	%rbx, %rcx
	call	_ZNSt6vectorISt10unique_ptrI7ASTNodeSt14default_deleteIS1_EESaIS4_EEC1EOS6_
	jmp	.L92
.L91:
	movq	%rax, %rbx
	movq	32(%rbp), %rax
	movq	%rax, %rcx
	call	_ZN7ASTNodeD2Ev
	movq	%rbx, %rax
	movq	%rax, %rcx
.LEHB1:
	call	_Unwind_Resume
	nop
.LEHE1:
.L92:
	addq	$40, %rsp
	popq	%rbx
	popq	%rbp
	ret
	.seh_handler	__gxx_personality_seh0, @unwind, @except
	.seh_handlerdata
.LLSDA3945:
	.byte	0xff
	.byte	0xff
	.byte	0x1
	.uleb128 .LLSDACSE3945-.LLSDACSB3945
.LLSDACSB3945:
	.uleb128 .LEHB0-.LFB3945
	.uleb128 .LEHE0-.LEHB0
	.uleb128 .L91-.LFB3945
	.uleb128 0
	.uleb128 .LEHB1-.LFB3945
	.uleb128 .LEHE1-.LEHB1
	.uleb128 0
	.uleb128 0
.LLSDACSE3945:
	.section	.text$_ZN12FunctionNodeC1ERKNSt7__cxx1112basic_stringIcSt11char_traitsIcESaIcEEESt6vectorISt10unique_ptrI7ASTNodeSt14default_deleteISA_EESaISD_EE,"x"
	.linkonce discard
	.seh_endproc
	.section .rdata,"dr"
.LC0:
	.ascii "start\0"
.LC1:
	.ascii "setup\0"
.LC2:
	.ascii "void \0"
.LC3:
	.ascii "() {\12\0"
.LC4:
	.ascii "    pinMode(\0"
.LC5:
	.ascii ", INPUT);\12\0"
.LC6:
	.ascii ", OUTPUT);\12\0"
.LC7:
	.ascii "\12\0"
.LC8:
	.ascii "    \0"
.LC9:
	.ascii "}\0"
	.section	.text$_ZN12FunctionNode5toCppB5cxx11Ev,"x"
	.linkonce discard
	.align 2
	.globl	_ZN12FunctionNode5toCppB5cxx11Ev
	.def	_ZN12FunctionNode5toCppB5cxx11Ev;	.scl	2;	.type	32;	.endef
	.seh_proc	_ZN12FunctionNode5toCppB5cxx11Ev
_ZN12FunctionNode5toCppB5cxx11Ev:
.LFB3946:
	pushq	%rbp
	.seh_pushreg	%rbp
	pushq	%rbx
	.seh_pushreg	%rbx
	subq	$392, %rsp
	.seh_stackalloc	392
	leaq	128(%rsp), %rbp
	.seh_setframe	%rbp, 128
	.seh_endprologue
	movq	%rcx, 288(%rbp)
	movq	%rdx, 296(%rbp)
	movq	296(%rbp), %rax
	addq	$8, %rax
	leaq	.LC0(%rip), %rdx
	movq	%rax, %rcx
.LEHB2:
	call	_ZSteqIcSt11char_traitsIcESaIcEEbRKNSt7__cxx1112basic_stringIT_T0_T1_EEPKS5_
	testb	%al, %al
	je	.L94
	movq	296(%rbp), %rax
	addq	$8, %rax
	leaq	.LC1(%rip), %rdx
	movq	%rax, %rcx
	call	_ZNSt7__cxx1112basic_stringIcSt11char_traitsIcESaIcEEaSEPKc
.L94:
	movq	296(%rbp), %rax
	leaq	8(%rax), %rdx
	leaq	-48(%rbp), %rax
	movq	%rdx, %r8
	leaq	.LC2(%rip), %rdx
	movq	%rax, %rcx
	call	_ZStplIcSt11char_traitsIcESaIcEENSt7__cxx1112basic_stringIT_T0_T1_EEPKS5_RKS8_
.LEHE2:
	movq	288(%rbp), %rax
	leaq	-48(%rbp), %rdx
	leaq	.LC3(%rip), %r8
	movq	%rax, %rcx
.LEHB3:
	call	_ZStplIcSt11char_traitsIcESaIcEENSt7__cxx1112basic_stringIT_T0_T1_EEOS8_PKS5_
.LEHE3:
	leaq	-48(%rbp), %rax
	movq	%rax, %rcx
	call	_ZNSt7__cxx1112basic_stringIcSt11char_traitsIcESaIcEED1Ev
	movq	296(%rbp), %rax
	addq	$8, %rax
	leaq	.LC1(%rip), %rdx
	movq	%rax, %rcx
.LEHB4:
	call	_ZSteqIcSt11char_traitsIcESaIcEEbRKNSt7__cxx1112basic_stringIT_T0_T1_EEPKS5_
	testb	%al, %al
	je	.L95
	leaq	_Z9inputPinsB5cxx11(%rip), %rax
	movq	%rax, 248(%rbp)
	movq	248(%rbp), %rax
	movq	%rax, %rcx
	call	_ZNKSt3setINSt7__cxx1112basic_stringIcSt11char_traitsIcESaIcEEESt4lessIS5_ESaIS5_EE5beginEv
	movq	%rax, -56(%rbp)
	movq	248(%rbp), %rax
	movq	%rax, %rcx
	call	_ZNKSt3setINSt7__cxx1112basic_stringIcSt11char_traitsIcESaIcEEESt4lessIS5_ESaIS5_EE3endEv
	movq	%rax, -64(%rbp)
	jmp	.L96
.L97:
	leaq	-56(%rbp), %rax
	movq	%rax, %rcx
	call	_ZNKSt23_Rb_tree_const_iteratorINSt7__cxx1112basic_stringIcSt11char_traitsIcESaIcEEEEdeEv
	movq	%rax, 224(%rbp)
	leaq	16(%rbp), %rax
	movq	224(%rbp), %rdx
	movq	%rdx, %r8
	leaq	.LC4(%rip), %rdx
	movq	%rax, %rcx
	call	_ZStplIcSt11char_traitsIcESaIcEENSt7__cxx1112basic_stringIT_T0_T1_EEPKS5_RKS8_
.LEHE4:
	leaq	-16(%rbp), %rax
	leaq	16(%rbp), %rdx
	leaq	.LC5(%rip), %r8
	movq	%rax, %rcx
.LEHB5:
	call	_ZStplIcSt11char_traitsIcESaIcEENSt7__cxx1112basic_stringIT_T0_T1_EEOS8_PKS5_
.LEHE5:
	leaq	-16(%rbp), %rdx
	movq	288(%rbp), %rax
	movq	%rax, %rcx
.LEHB6:
	call	_ZNSt7__cxx1112basic_stringIcSt11char_traitsIcESaIcEEpLERKS4_
.LEHE6:
	leaq	-16(%rbp), %rax
	movq	%rax, %rcx
	call	_ZNSt7__cxx1112basic_stringIcSt11char_traitsIcESaIcEED1Ev
	leaq	16(%rbp), %rax
	movq	%rax, %rcx
	call	_ZNSt7__cxx1112basic_stringIcSt11char_traitsIcESaIcEED1Ev
	leaq	-56(%rbp), %rax
	movq	%rax, %rcx
	call	_ZNSt23_Rb_tree_const_iteratorINSt7__cxx1112basic_stringIcSt11char_traitsIcESaIcEEEEppEv
.L96:
	leaq	-64(%rbp), %rdx
	leaq	-56(%rbp), %rax
	movq	%rax, %rcx
	call	_ZStneRKSt23_Rb_tree_const_iteratorINSt7__cxx1112basic_stringIcSt11char_traitsIcESaIcEEEES8_
	testb	%al, %al
	jne	.L97
	leaq	_Z10outputPinsB5cxx11(%rip), %rax
	movq	%rax, 240(%rbp)
	movq	240(%rbp), %rax
	movq	%rax, %rcx
	call	_ZNKSt3setINSt7__cxx1112basic_stringIcSt11char_traitsIcESaIcEEESt4lessIS5_ESaIS5_EE5beginEv
	movq	%rax, -72(%rbp)
	movq	240(%rbp), %rax
	movq	%rax, %rcx
	call	_ZNKSt3setINSt7__cxx1112basic_stringIcSt11char_traitsIcESaIcEEESt4lessIS5_ESaIS5_EE3endEv
	movq	%rax, -80(%rbp)
	jmp	.L98
.L100:
	leaq	-72(%rbp), %rax
	movq	%rax, %rcx
	call	_ZNKSt23_Rb_tree_const_iteratorINSt7__cxx1112basic_stringIcSt11char_traitsIcESaIcEEEEdeEv
	movq	%rax, 232(%rbp)
	movq	232(%rbp), %rax
	movq	%rax, %rdx
	leaq	_Z9inputPinsB5cxx11(%rip), %rax
	movq	%rax, %rcx
.LEHB7:
	call	_ZNKSt3setINSt7__cxx1112basic_stringIcSt11char_traitsIcESaIcEEESt4lessIS5_ESaIS5_EE5countERKS5_
	testq	%rax, %rax
	sete	%al
	testb	%al, %al
	je	.L99
	leaq	80(%rbp), %rax
	movq	232(%rbp), %rdx
	movq	%rdx, %r8
	leaq	.LC4(%rip), %rdx
	movq	%rax, %rcx
	call	_ZStplIcSt11char_traitsIcESaIcEENSt7__cxx1112basic_stringIT_T0_T1_EEPKS5_RKS8_
.LEHE7:
	leaq	48(%rbp), %rax
	leaq	80(%rbp), %rdx
	leaq	.LC6(%rip), %r8
	movq	%rax, %rcx
.LEHB8:
	call	_ZStplIcSt11char_traitsIcESaIcEENSt7__cxx1112basic_stringIT_T0_T1_EEOS8_PKS5_
.LEHE8:
	leaq	48(%rbp), %rdx
	movq	288(%rbp), %rax
	movq	%rax, %rcx
.LEHB9:
	call	_ZNSt7__cxx1112basic_stringIcSt11char_traitsIcESaIcEEpLERKS4_
.LEHE9:
	leaq	48(%rbp), %rax
	movq	%rax, %rcx
	call	_ZNSt7__cxx1112basic_stringIcSt11char_traitsIcESaIcEED1Ev
	leaq	80(%rbp), %rax
	movq	%rax, %rcx
	call	_ZNSt7__cxx1112basic_stringIcSt11char_traitsIcESaIcEED1Ev
.L99:
	leaq	-72(%rbp), %rax
	movq	%rax, %rcx
	call	_ZNSt23_Rb_tree_const_iteratorINSt7__cxx1112basic_stringIcSt11char_traitsIcESaIcEEEEppEv
.L98:
	leaq	-80(%rbp), %rdx
	leaq	-72(%rbp), %rax
	movq	%rax, %rcx
	call	_ZStneRKSt23_Rb_tree_const_iteratorINSt7__cxx1112basic_stringIcSt11char_traitsIcESaIcEEEES8_
	testb	%al, %al
	jne	.L100
	leaq	_Z9inputPinsB5cxx11(%rip), %rax
	movq	%rax, %rcx
	call	_ZNKSt3setINSt7__cxx1112basic_stringIcSt11char_traitsIcESaIcEEESt4lessIS5_ESaIS5_EE5emptyEv
	xorl	$1, %eax
	testb	%al, %al
	jne	.L101
	leaq	_Z10outputPinsB5cxx11(%rip), %rax
	movq	%rax, %rcx
	call	_ZNKSt3setINSt7__cxx1112basic_stringIcSt11char_traitsIcESaIcEEESt4lessIS5_ESaIS5_EE5emptyEv
	xorl	$1, %eax
	testb	%al, %al
	je	.L102
.L101:
	movl	$1, %eax
	jmp	.L103
.L102:
	movl	$0, %eax
.L103:
	testb	%al, %al
	je	.L95
	movq	288(%rbp), %rax
	leaq	.LC7(%rip), %rdx
	movq	%rax, %rcx
.LEHB10:
	call	_ZNSt7__cxx1112basic_stringIcSt11char_traitsIcESaIcEEpLEPKc
.L95:
	movq	296(%rbp), %rax
	addq	$40, %rax
	movq	%rax, 216(%rbp)
	movq	216(%rbp), %rax
	movq	%rax, %rcx
	call	_ZNSt6vectorISt10unique_ptrI7ASTNodeSt14default_deleteIS1_EESaIS4_EE5beginEv
	movq	%rax, -88(%rbp)
	movq	216(%rbp), %rax
	movq	%rax, %rcx
	call	_ZNSt6vectorISt10unique_ptrI7ASTNodeSt14default_deleteIS1_EESaIS4_EE3endEv
	movq	%rax, -96(%rbp)
	jmp	.L104
.L105:
	leaq	-88(%rbp), %rax
	movq	%rax, %rcx
	call	_ZNK9__gnu_cxx17__normal_iteratorIPSt10unique_ptrI7ASTNodeSt14default_deleteIS2_EESt6vectorIS5_SaIS5_EEEdeEv
	movq	%rax, 208(%rbp)
	movq	208(%rbp), %rax
	movq	%rax, %rcx
	call	_ZNKSt10unique_ptrI7ASTNodeSt14default_deleteIS0_EEptEv
	movq	(%rax), %rdx
	addq	$16, %rdx
	movq	(%rdx), %r8
	leaq	176(%rbp), %rcx
	movq	%rax, %rdx
	call	*%r8
.LEHE10:
	leaq	144(%rbp), %rax
	leaq	176(%rbp), %rdx
	movq	%rdx, %r8
	leaq	.LC8(%rip), %rdx
	movq	%rax, %rcx
.LEHB11:
	call	_ZStplIcSt11char_traitsIcESaIcEENSt7__cxx1112basic_stringIT_T0_T1_EEPKS5_OS8_
.LEHE11:
	leaq	112(%rbp), %rax
	leaq	144(%rbp), %rdx
	leaq	.LC7(%rip), %r8
	movq	%rax, %rcx
.LEHB12:
	call	_ZStplIcSt11char_traitsIcESaIcEENSt7__cxx1112basic_stringIT_T0_T1_EEOS8_PKS5_
.LEHE12:
	leaq	112(%rbp), %rdx
	movq	288(%rbp), %rax
	movq	%rax, %rcx
.LEHB13:
	call	_ZNSt7__cxx1112basic_stringIcSt11char_traitsIcESaIcEEpLERKS4_
.LEHE13:
	leaq	112(%rbp), %rax
	movq	%rax, %rcx
	call	_ZNSt7__cxx1112basic_stringIcSt11char_traitsIcESaIcEED1Ev
	leaq	144(%rbp), %rax
	movq	%rax, %rcx
	call	_ZNSt7__cxx1112basic_stringIcSt11char_traitsIcESaIcEED1Ev
	leaq	176(%rbp), %rax
	movq	%rax, %rcx
	call	_ZNSt7__cxx1112basic_stringIcSt11char_traitsIcESaIcEED1Ev
	leaq	-88(%rbp), %rax
	movq	%rax, %rcx
	call	_ZN9__gnu_cxx17__normal_iteratorIPSt10unique_ptrI7ASTNodeSt14default_deleteIS2_EESt6vectorIS5_SaIS5_EEEppEv
.L104:
	leaq	-96(%rbp), %rdx
	leaq	-88(%rbp), %rax
	movq	%rax, %rcx
	call	_ZN9__gnu_cxxneIPSt10unique_ptrI7ASTNodeSt14default_deleteIS2_EESt6vectorIS5_SaIS5_EEEEbRKNS_17__normal_iteratorIT_T0_EESF_
	testb	%al, %al
	jne	.L105
	movq	288(%rbp), %rax
	leaq	.LC9(%rip), %rdx
	movq	%rax, %rcx
.LEHB14:
	call	_ZNSt7__cxx1112basic_stringIcSt11char_traitsIcESaIcEEpLEPKc
.LEHE14:
	jmp	.L125
.L116:
	movq	%rax, %rbx
	leaq	-48(%rbp), %rax
	movq	%rax, %rcx
	call	_ZNSt7__cxx1112basic_stringIcSt11char_traitsIcESaIcEED1Ev
	movq	%rbx, %rax
	movq	%rax, %rcx
.LEHB15:
	call	_Unwind_Resume
.L119:
	movq	%rax, %rbx
	leaq	-16(%rbp), %rax
	movq	%rax, %rcx
	call	_ZNSt7__cxx1112basic_stringIcSt11char_traitsIcESaIcEED1Ev
	jmp	.L109
.L118:
	movq	%rax, %rbx
.L109:
	leaq	16(%rbp), %rax
	movq	%rax, %rcx
	call	_ZNSt7__cxx1112basic_stringIcSt11char_traitsIcESaIcEED1Ev
	jmp	.L110
.L121:
	movq	%rax, %rbx
	leaq	48(%rbp), %rax
	movq	%rax, %rcx
	call	_ZNSt7__cxx1112basic_stringIcSt11char_traitsIcESaIcEED1Ev
	jmp	.L112
.L120:
	movq	%rax, %rbx
.L112:
	leaq	80(%rbp), %rax
	movq	%rax, %rcx
	call	_ZNSt7__cxx1112basic_stringIcSt11char_traitsIcESaIcEED1Ev
	jmp	.L110
.L124:
	movq	%rax, %rbx
	leaq	112(%rbp), %rax
	movq	%rax, %rcx
	call	_ZNSt7__cxx1112basic_stringIcSt11char_traitsIcESaIcEED1Ev
	jmp	.L114
.L123:
	movq	%rax, %rbx
.L114:
	leaq	144(%rbp), %rax
	movq	%rax, %rcx
	call	_ZNSt7__cxx1112basic_stringIcSt11char_traitsIcESaIcEED1Ev
	jmp	.L115
.L122:
	movq	%rax, %rbx
.L115:
	leaq	176(%rbp), %rax
	movq	%rax, %rcx
	call	_ZNSt7__cxx1112basic_stringIcSt11char_traitsIcESaIcEED1Ev
	jmp	.L110
.L117:
	movq	%rax, %rbx
.L110:
	movq	288(%rbp), %rax
	movq	%rax, %rcx
	call	_ZNSt7__cxx1112basic_stringIcSt11char_traitsIcESaIcEED1Ev
	movq	%rbx, %rax
	movq	%rax, %rcx
	call	_Unwind_Resume
.LEHE15:
.L125:
	movq	288(%rbp), %rax
	addq	$392, %rsp
	popq	%rbx
	popq	%rbp
	ret
	.seh_handler	__gxx_personality_seh0, @unwind, @except
	.seh_handlerdata
.LLSDA3946:
	.byte	0xff
	.byte	0xff
	.byte	0x1
	.uleb128 .LLSDACSE3946-.LLSDACSB3946
.LLSDACSB3946:
	.uleb128 .LEHB2-.LFB3946
	.uleb128 .LEHE2-.LEHB2
	.uleb128 0
	.uleb128 0
	.uleb128 .LEHB3-.LFB3946
	.uleb128 .LEHE3-.LEHB3
	.uleb128 .L116-.LFB3946
	.uleb128 0
	.uleb128 .LEHB4-.LFB3946
	.uleb128 .LEHE4-.LEHB4
	.uleb128 .L117-.LFB3946
	.uleb128 0
	.uleb128 .LEHB5-.LFB3946
	.uleb128 .LEHE5-.LEHB5
	.uleb128 .L118-.LFB3946
	.uleb128 0
	.uleb128 .LEHB6-.LFB3946
	.uleb128 .LEHE6-.LEHB6
	.uleb128 .L119-.LFB3946
	.uleb128 0
	.uleb128 .LEHB7-.LFB3946
	.uleb128 .LEHE7-.LEHB7
	.uleb128 .L117-.LFB3946
	.uleb128 0
	.uleb128 .LEHB8-.LFB3946
	.uleb128 .LEHE8-.LEHB8
	.uleb128 .L120-.LFB3946
	.uleb128 0
	.uleb128 .LEHB9-.LFB3946
	.uleb128 .LEHE9-.LEHB9
	.uleb128 .L121-.LFB3946
	.uleb128 0
	.uleb128 .LEHB10-.LFB3946
	.uleb128 .LEHE10-.LEHB10
	.uleb128 .L117-.LFB3946
	.uleb128 0
	.uleb128 .LEHB11-.LFB3946
	.uleb128 .LEHE11-.LEHB11
	.uleb128 .L122-.LFB3946
	.uleb128 0
	.uleb128 .LEHB12-.LFB3946
	.uleb128 .LEHE12-.LEHB12
	.uleb128 .L123-.LFB3946
	.uleb128 0
	.uleb128 .LEHB13-.LFB3946
	.uleb128 .LEHE13-.LEHB13
	.uleb128 .L124-.LFB3946
	.uleb128 0
	.uleb128 .LEHB14-.LFB3946
	.uleb128 .LEHE14-.LEHB14
	.uleb128 .L117-.LFB3946
	.uleb128 0
	.uleb128 .LEHB15-.LFB3946
	.uleb128 .LEHE15-.LEHB15
	.uleb128 0
	.uleb128 0
.LLSDACSE3946:
	.section	.text$_ZN12FunctionNode5toCppB5cxx11Ev,"x"
	.linkonce discard
	.seh_endproc
	.section .rdata,"dr"
.LC10:
	.ascii "read\0"
.LC11:
	.ascii "turn_on\0"
.LC12:
	.ascii "turn_off\0"
.LC13:
	.ascii "write\0"
	.section	.text$_ZN16FunctionCallNodeC1ERKNSt7__cxx1112basic_stringIcSt11char_traitsIcESaIcEEESt6vectorISt10unique_ptrI7ASTNodeSt14default_deleteISA_EESaISD_EE,"x"
	.linkonce discard
	.align 2
	.globl	_ZN16FunctionCallNodeC1ERKNSt7__cxx1112basic_stringIcSt11char_traitsIcESaIcEEESt6vectorISt10unique_ptrI7ASTNodeSt14default_deleteISA_EESaISD_EE
	.def	_ZN16FunctionCallNodeC1ERKNSt7__cxx1112basic_stringIcSt11char_traitsIcESaIcEEESt6vectorISt10unique_ptrI7ASTNodeSt14default_deleteISA_EESaISD_EE;	.scl	2;	.type	32;	.endef
	.seh_proc	_ZN16FunctionCallNodeC1ERKNSt7__cxx1112basic_stringIcSt11char_traitsIcESaIcEEESt6vectorISt10unique_ptrI7ASTNodeSt14default_deleteISA_EESaISD_EE
_ZN16FunctionCallNodeC1ERKNSt7__cxx1112basic_stringIcSt11char_traitsIcESaIcEEESt6vectorISt10unique_ptrI7ASTNodeSt14default_deleteISA_EESaISD_EE:
.LFB3957:
	pushq	%rbp
	.seh_pushreg	%rbp
	pushq	%rbx
	.seh_pushreg	%rbx
	subq	$504, %rsp
	.seh_stackalloc	504
	leaq	128(%rsp), %rbp
	.seh_setframe	%rbp, 128
	.seh_endprologue
	movq	%rcx, 400(%rbp)
	movq	%rdx, 408(%rbp)
	movq	%r8, 416(%rbp)
	movq	400(%rbp), %rax
	movq	%rax, %rcx
	call	_ZN7ASTNodeC2Ev
	leaq	16+_ZTV16FunctionCallNode(%rip), %rdx
	movq	400(%rbp), %rax
	movq	%rdx, (%rax)
	movq	400(%rbp), %rax
	leaq	8(%rax), %rcx
	movq	408(%rbp), %rax
	movq	%rax, %rdx
.LEHB16:
	call	_ZNSt7__cxx1112basic_stringIcSt11char_traitsIcESaIcEEC1ERKS4_
.LEHE16:
	movq	400(%rbp), %rax
	leaq	40(%rax), %rbx
	movq	416(%rbp), %rax
	movq	%rax, %rcx
	call	_ZSt4moveIRSt6vectorISt10unique_ptrI7ASTNodeSt14default_deleteIS2_EESaIS5_EEEONSt16remove_referenceIT_E4typeEOSA_
	movq	%rax, %rdx
	movq	%rbx, %rcx
	call	_ZNSt6vectorISt10unique_ptrI7ASTNodeSt14default_deleteIS1_EESaIS4_EEC1EOS6_
	movq	400(%rbp), %rax
	addq	$40, %rax
	movq	%rax, %rcx
	call	_ZNKSt6vectorISt10unique_ptrI7ASTNodeSt14default_deleteIS1_EESaIS4_EE5emptyEv
	xorl	$1, %eax
	testb	%al, %al
	je	.L178
	movq	400(%rbp), %rax
	addq	$40, %rax
	movl	$0, %edx
	movq	%rax, %rcx
	call	_ZNSt6vectorISt10unique_ptrI7ASTNodeSt14default_deleteIS1_EESaIS4_EEixEy
	movq	%rax, %rcx
	call	_ZNKSt10unique_ptrI7ASTNodeSt14default_deleteIS0_EEptEv
	movq	(%rax), %rdx
	addq	$16, %rdx
	movq	(%rdx), %r8
	leaq	-96(%rbp), %rcx
	movq	%rax, %rdx
.LEHB17:
	call	*%r8
.LEHE17:
	leaq	_Z22currentParsingUserFuncB5cxx11(%rip), %rax
	movq	%rax, %rcx
	call	_ZNKSt7__cxx1112basic_stringIcSt11char_traitsIcESaIcEE5emptyEv
	xorl	$1, %eax
	testb	%al, %al
	je	.L128
	leaq	-96(%rbp), %rax
	movq	%rax, %rdx
	leaq	_Z10funcParamsB5cxx11(%rip), %rax
	movq	%rax, %rcx
.LEHB18:
	call	_ZNKSt3setINSt7__cxx1112basic_stringIcSt11char_traitsIcESaIcEEESt4lessIS5_ESaIS5_EE5countERKS5_
	testq	%rax, %rax
	je	.L128
	movl	$1, %eax
	jmp	.L129
.L128:
	movl	$0, %eax
.L129:
	testb	%al, %al
	je	.L130
	leaq	_Z21currentFuncParamNamesB5cxx11(%rip), %rax
	movq	%rax, %rcx
	call	_ZNSt6vectorINSt7__cxx1112basic_stringIcSt11char_traitsIcESaIcEEESaIS5_EE3endEv
	movq	%rax, %rbx
	leaq	_Z21currentFuncParamNamesB5cxx11(%rip), %rax
	movq	%rax, %rcx
	call	_ZNSt6vectorINSt7__cxx1112basic_stringIcSt11char_traitsIcESaIcEEESaIS5_EE5beginEv
	leaq	-96(%rbp), %rdx
	movq	%rdx, %r8
	movq	%rbx, %rdx
	movq	%rax, %rcx
	call	_ZSt4findIN9__gnu_cxx17__normal_iteratorIPNSt7__cxx1112basic_stringIcSt11char_traitsIcESaIcEEESt6vectorIS7_SaIS7_EEEES7_ET_SD_SD_RKT0_
	movq	%rax, 64(%rbp)
	leaq	_Z21currentFuncParamNamesB5cxx11(%rip), %rax
	movq	%rax, %rcx
	call	_ZNSt6vectorINSt7__cxx1112basic_stringIcSt11char_traitsIcESaIcEEESaIS5_EE3endEv
	movq	%rax, 72(%rbp)
	leaq	72(%rbp), %rdx
	leaq	64(%rbp), %rax
	movq	%rax, %rcx
	call	_ZN9__gnu_cxxneIPNSt7__cxx1112basic_stringIcSt11char_traitsIcESaIcEEESt6vectorIS6_SaIS6_EEEEbRKNS_17__normal_iteratorIT_T0_EESG_
	testb	%al, %al
	je	.L149
	leaq	_Z21currentFuncParamNamesB5cxx11(%rip), %rax
	movq	%rax, %rcx
	call	_ZNSt6vectorINSt7__cxx1112basic_stringIcSt11char_traitsIcESaIcEEESaIS5_EE5beginEv
	movq	%rax, 56(%rbp)
	movq	64(%rbp), %rax
	movq	%rax, 48(%rbp)
	nop
	movq	56(%rbp), %rax
	movq	%rax, 40(%rbp)
	movq	48(%rbp), %rax
	movq	%rax, 32(%rbp)
	leaq	40(%rbp), %rdx
	leaq	32(%rbp), %rax
	movq	%rax, %rcx
	call	_ZN9__gnu_cxxmiIPNSt7__cxx1112basic_stringIcSt11char_traitsIcESaIcEEESt6vectorIS6_SaIS6_EEEENS_17__normal_iteratorIT_T0_E15difference_typeERKSE_SH_
	nop
	nop
	movq	%rax, 336(%rbp)
	movq	400(%rbp), %rax
	addq	$8, %rax
	leaq	.LC10(%rip), %rdx
	movq	%rax, %rcx
	call	_ZSteqIcSt11char_traitsIcESaIcEEbRKNSt7__cxx1112basic_stringIT_T0_T1_EEPKS5_
	testb	%al, %al
	je	.L135
	leaq	_Z22currentParsingUserFuncB5cxx11(%rip), %rax
	movq	%rax, %rdx
	leaq	_Z19userFuncInputParamsB5cxx11(%rip), %rax
	movq	%rax, %rcx
	call	_ZNSt3mapINSt7__cxx1112basic_stringIcSt11char_traitsIcESaIcEEESt6vectorIbSaIbEESt4lessIS5_ESaISt4pairIKS5_S8_EEEixERSC_
	movq	%rax, %rdx
	leaq	80(%rbp), %rax
	movq	336(%rbp), %rcx
	movq	%rcx, %r8
	movq	%rax, %rcx
	call	_ZNSt6vectorIbSaIbEEixEy
	leaq	80(%rbp), %rax
	movl	$1, %edx
	movq	%rax, %rcx
	call	_ZNSt14_Bit_referenceaSEb
	jmp	.L149
.L135:
	movq	400(%rbp), %rax
	addq	$8, %rax
	leaq	.LC11(%rip), %rdx
	movq	%rax, %rcx
	call	_ZSteqIcSt11char_traitsIcESaIcEEbRKNSt7__cxx1112basic_stringIT_T0_T1_EEPKS5_
	testb	%al, %al
	jne	.L136
	movq	400(%rbp), %rax
	addq	$8, %rax
	leaq	.LC12(%rip), %rdx
	movq	%rax, %rcx
	call	_ZSteqIcSt11char_traitsIcESaIcEEbRKNSt7__cxx1112basic_stringIT_T0_T1_EEPKS5_
	testb	%al, %al
	jne	.L136
	movq	400(%rbp), %rax
	addq	$8, %rax
	leaq	.LC13(%rip), %rdx
	movq	%rax, %rcx
	call	_ZSteqIcSt11char_traitsIcESaIcEEbRKNSt7__cxx1112basic_stringIT_T0_T1_EEPKS5_
	testb	%al, %al
	je	.L137
	movq	400(%rbp), %rax
	addq	$40, %rax
	movq	%rax, %rcx
	call	_ZNKSt6vectorISt10unique_ptrI7ASTNodeSt14default_deleteIS1_EESaIS4_EE4sizeEv
	cmpq	$1, %rax
	jbe	.L137
.L136:
	movl	$1, %eax
	jmp	.L138
.L137:
	movl	$0, %eax
.L138:
	testb	%al, %al
	je	.L139
	leaq	_Z22currentParsingUserFuncB5cxx11(%rip), %rax
	movq	%rax, %rdx
	leaq	_Z20userFuncOutputParamsB5cxx11(%rip), %rax
	movq	%rax, %rcx
	call	_ZNSt3mapINSt7__cxx1112basic_stringIcSt11char_traitsIcESaIcEEESt6vectorIbSaIbEESt4lessIS5_ESaISt4pairIKS5_S8_EEEixERSC_
	movq	%rax, %rdx
	leaq	96(%rbp), %rax
	movq	336(%rbp), %rcx
	movq	%rcx, %r8
	movq	%rax, %rcx
	call	_ZNSt6vectorIbSaIbEEixEy
	leaq	96(%rbp), %rax
	movl	$1, %edx
	movq	%rax, %rcx
	call	_ZNSt14_Bit_referenceaSEb
	jmp	.L149
.L139:
	movq	400(%rbp), %rax
	addq	$8, %rax
	movq	%rax, %rdx
	leaq	_Z20userFuncOutputParamsB5cxx11(%rip), %rax
	movq	%rax, %rcx
	call	_ZNKSt3mapINSt7__cxx1112basic_stringIcSt11char_traitsIcESaIcEEESt6vectorIbSaIbEESt4lessIS5_ESaISt4pairIKS5_S8_EEE5countERSC_
	testq	%rax, %rax
	setne	%al
	testb	%al, %al
	je	.L149
	movq	$0, 360(%rbp)
	jmp	.L140
.L148:
	movq	400(%rbp), %rax
	addq	$8, %rax
	movq	%rax, %rdx
	leaq	_Z20userFuncOutputParamsB5cxx11(%rip), %rax
	movq	%rax, %rcx
	call	_ZNSt3mapINSt7__cxx1112basic_stringIcSt11char_traitsIcESaIcEEESt6vectorIbSaIbEESt4lessIS5_ESaISt4pairIKS5_S8_EEEixERSC_
	movq	%rax, %rdx
	leaq	112(%rbp), %rax
	movq	360(%rbp), %rcx
	movq	%rcx, %r8
	movq	%rax, %rcx
	call	_ZNSt6vectorIbSaIbEEixEy
	leaq	112(%rbp), %rax
	movq	%rax, %rcx
	call	_ZNKSt14_Bit_referencecvbEv
	testb	%al, %al
	je	.L141
	movq	400(%rbp), %rax
	leaq	40(%rax), %rcx
	movq	360(%rbp), %rax
	movq	%rax, %rdx
	call	_ZNSt6vectorISt10unique_ptrI7ASTNodeSt14default_deleteIS1_EESaIS4_EEixEy
	movq	%rax, %rcx
	call	_ZNKSt10unique_ptrI7ASTNodeSt14default_deleteIS0_EEptEv
	movq	(%rax), %rdx
	addq	$16, %rdx
	movq	(%rdx), %r8
	leaq	-64(%rbp), %rcx
	movq	%rax, %rdx
	call	*%r8
.LEHE18:
	leaq	_Z21currentFuncParamNamesB5cxx11(%rip), %rax
	movq	%rax, %rcx
	call	_ZNSt6vectorINSt7__cxx1112basic_stringIcSt11char_traitsIcESaIcEEESaIS5_EE3endEv
	movq	%rax, %rbx
	leaq	_Z21currentFuncParamNamesB5cxx11(%rip), %rax
	movq	%rax, %rcx
	call	_ZNSt6vectorINSt7__cxx1112basic_stringIcSt11char_traitsIcESaIcEEESaIS5_EE5beginEv
	leaq	-64(%rbp), %rdx
	movq	%rdx, %r8
	movq	%rbx, %rdx
	movq	%rax, %rcx
.LEHB19:
	call	_ZSt4findIN9__gnu_cxx17__normal_iteratorIPNSt7__cxx1112basic_stringIcSt11char_traitsIcESaIcEEESt6vectorIS7_SaIS7_EEEES7_ET_SD_SD_RKT0_
	movq	%rax, 16(%rbp)
	leaq	_Z21currentFuncParamNamesB5cxx11(%rip), %rax
	movq	%rax, %rcx
	call	_ZNSt6vectorINSt7__cxx1112basic_stringIcSt11char_traitsIcESaIcEEESaIS5_EE3endEv
	movq	%rax, 136(%rbp)
	leaq	136(%rbp), %rdx
	leaq	16(%rbp), %rax
	movq	%rax, %rcx
	call	_ZN9__gnu_cxxneIPNSt7__cxx1112basic_stringIcSt11char_traitsIcESaIcEEESt6vectorIS6_SaIS6_EEEEbRKNS_17__normal_iteratorIT_T0_EESG_
	testb	%al, %al
	je	.L142
	leaq	_Z21currentFuncParamNamesB5cxx11(%rip), %rax
	movq	%rax, %rcx
	call	_ZNSt6vectorINSt7__cxx1112basic_stringIcSt11char_traitsIcESaIcEEESaIS5_EE5beginEv
	movq	%rax, 8(%rbp)
	movq	16(%rbp), %rax
	movq	%rax, 0(%rbp)
	nop
	movq	8(%rbp), %rax
	movq	%rax, -8(%rbp)
	movq	0(%rbp), %rax
	movq	%rax, -16(%rbp)
	leaq	-8(%rbp), %rdx
	leaq	-16(%rbp), %rax
	movq	%rax, %rcx
	call	_ZN9__gnu_cxxmiIPNSt7__cxx1112basic_stringIcSt11char_traitsIcESaIcEEESt6vectorIS6_SaIS6_EEEENS_17__normal_iteratorIT_T0_E15difference_typeERKSE_SH_
	nop
	nop
	movq	%rax, 328(%rbp)
	leaq	_Z22currentParsingUserFuncB5cxx11(%rip), %rax
	movq	%rax, %rdx
	leaq	_Z20userFuncOutputParamsB5cxx11(%rip), %rax
	movq	%rax, %rcx
	call	_ZNSt3mapINSt7__cxx1112basic_stringIcSt11char_traitsIcESaIcEEESt6vectorIbSaIbEESt4lessIS5_ESaISt4pairIKS5_S8_EEEixERSC_
	movq	%rax, %rdx
	leaq	144(%rbp), %rax
	movq	328(%rbp), %rcx
	movq	%rcx, %r8
	movq	%rax, %rcx
	call	_ZNSt6vectorIbSaIbEEixEy
.LEHE19:
	leaq	144(%rbp), %rax
	movl	$1, %edx
	movq	%rax, %rcx
	call	_ZNSt14_Bit_referenceaSEb
.L142:
	leaq	-64(%rbp), %rax
	movq	%rax, %rcx
	call	_ZNSt7__cxx1112basic_stringIcSt11char_traitsIcESaIcEED1Ev
.L141:
	addq	$1, 360(%rbp)
.L140:
	movq	400(%rbp), %rax
	addq	$40, %rax
	movq	%rax, %rcx
	call	_ZNKSt6vectorISt10unique_ptrI7ASTNodeSt14default_deleteIS1_EESaIS4_EE4sizeEv
	cmpq	%rax, 360(%rbp)
	jnb	.L146
	movq	400(%rbp), %rax
	addq	$8, %rax
	movq	%rax, %rdx
	leaq	_Z20userFuncOutputParamsB5cxx11(%rip), %rax
	movq	%rax, %rcx
.LEHB20:
	call	_ZNSt3mapINSt7__cxx1112basic_stringIcSt11char_traitsIcESaIcEEESt6vectorIbSaIbEESt4lessIS5_ESaISt4pairIKS5_S8_EEEixERSC_
	movq	%rax, %rcx
	call	_ZNKSt6vectorIbSaIbEE4sizeEv
	cmpq	%rax, 360(%rbp)
	jnb	.L146
	movl	$1, %eax
	jmp	.L147
.L146:
	movl	$0, %eax
.L147:
	testb	%al, %al
	jne	.L148
	jmp	.L149
.L130:
	movq	400(%rbp), %rax
	addq	$8, %rax
	leaq	.LC10(%rip), %rdx
	movq	%rax, %rcx
	call	_ZSteqIcSt11char_traitsIcESaIcEEbRKNSt7__cxx1112basic_stringIT_T0_T1_EEPKS5_
	testb	%al, %al
	je	.L150
	leaq	160(%rbp), %rax
	leaq	-96(%rbp), %rdx
	movq	%rdx, %r8
	leaq	_Z9inputPinsB5cxx11(%rip), %rdx
	movq	%rax, %rcx
	call	_ZNSt3setINSt7__cxx1112basic_stringIcSt11char_traitsIcESaIcEEESt4lessIS5_ESaIS5_EE6insertERKS5_
	jmp	.L149
.L150:
	movq	400(%rbp), %rax
	addq	$8, %rax
	leaq	.LC11(%rip), %rdx
	movq	%rax, %rcx
	call	_ZSteqIcSt11char_traitsIcESaIcEEbRKNSt7__cxx1112basic_stringIT_T0_T1_EEPKS5_
	testb	%al, %al
	jne	.L151
	movq	400(%rbp), %rax
	addq	$8, %rax
	leaq	.LC12(%rip), %rdx
	movq	%rax, %rcx
	call	_ZSteqIcSt11char_traitsIcESaIcEEbRKNSt7__cxx1112basic_stringIT_T0_T1_EEPKS5_
	testb	%al, %al
	jne	.L151
	movq	400(%rbp), %rax
	addq	$8, %rax
	leaq	.LC13(%rip), %rdx
	movq	%rax, %rcx
	call	_ZSteqIcSt11char_traitsIcESaIcEEbRKNSt7__cxx1112basic_stringIT_T0_T1_EEPKS5_
	testb	%al, %al
	je	.L152
	movq	400(%rbp), %rax
	addq	$40, %rax
	movq	%rax, %rcx
	call	_ZNKSt6vectorISt10unique_ptrI7ASTNodeSt14default_deleteIS1_EESaIS4_EE4sizeEv
	cmpq	$1, %rax
	jbe	.L152
.L151:
	movl	$1, %eax
	jmp	.L153
.L152:
	movl	$0, %eax
.L153:
	testb	%al, %al
	je	.L154
	leaq	176(%rbp), %rax
	leaq	-96(%rbp), %rdx
	movq	%rdx, %r8
	leaq	_Z10outputPinsB5cxx11(%rip), %rdx
	movq	%rax, %rcx
	call	_ZNSt3setINSt7__cxx1112basic_stringIcSt11char_traitsIcESaIcEEESt4lessIS5_ESaIS5_EE6insertERKS5_
	jmp	.L149
.L154:
	movq	400(%rbp), %rax
	addq	$8, %rax
	movq	%rax, %rdx
	leaq	_Z20userFuncOutputParamsB5cxx11(%rip), %rax
	movq	%rax, %rcx
	call	_ZNKSt3mapINSt7__cxx1112basic_stringIcSt11char_traitsIcESaIcEEESt6vectorIbSaIbEESt4lessIS5_ESaISt4pairIKS5_S8_EEE5countERSC_
	testq	%rax, %rax
	setne	%al
	testb	%al, %al
	je	.L155
	movq	$0, 352(%rbp)
	jmp	.L156
.L160:
	movq	400(%rbp), %rax
	addq	$8, %rax
	movq	%rax, %rdx
	leaq	_Z20userFuncOutputParamsB5cxx11(%rip), %rax
	movq	%rax, %rcx
	call	_ZNSt3mapINSt7__cxx1112basic_stringIcSt11char_traitsIcESaIcEEESt6vectorIbSaIbEESt4lessIS5_ESaISt4pairIKS5_S8_EEEixERSC_
	movq	%rax, %rdx
	leaq	192(%rbp), %rax
	movq	352(%rbp), %rcx
	movq	%rcx, %r8
	movq	%rax, %rcx
	call	_ZNSt6vectorIbSaIbEEixEy
	leaq	192(%rbp), %rax
	movq	%rax, %rcx
	call	_ZNKSt14_Bit_referencecvbEv
	testb	%al, %al
	je	.L157
	movq	400(%rbp), %rax
	leaq	40(%rax), %rcx
	movq	352(%rbp), %rax
	movq	%rax, %rdx
	call	_ZNSt6vectorISt10unique_ptrI7ASTNodeSt14default_deleteIS1_EESaIS4_EEixEy
	movq	%rax, %rcx
	call	_ZNKSt10unique_ptrI7ASTNodeSt14default_deleteIS0_EEptEv
	movq	(%rax), %rdx
	addq	$16, %rdx
	movq	(%rdx), %r8
	leaq	224(%rbp), %rcx
	movq	%rax, %rdx
	call	*%r8
.LEHE20:
	leaq	208(%rbp), %rax
	leaq	224(%rbp), %rdx
	movq	%rdx, %r8
	leaq	_Z10outputPinsB5cxx11(%rip), %rdx
	movq	%rax, %rcx
.LEHB21:
	call	_ZNSt3setINSt7__cxx1112basic_stringIcSt11char_traitsIcESaIcEEESt4lessIS5_ESaIS5_EE6insertEOS5_
.LEHE21:
	leaq	224(%rbp), %rax
	movq	%rax, %rcx
	call	_ZNSt7__cxx1112basic_stringIcSt11char_traitsIcESaIcEED1Ev
.L157:
	addq	$1, 352(%rbp)
.L156:
	movq	400(%rbp), %rax
	addq	$40, %rax
	movq	%rax, %rcx
	call	_ZNKSt6vectorISt10unique_ptrI7ASTNodeSt14default_deleteIS1_EESaIS4_EE4sizeEv
	cmpq	%rax, 352(%rbp)
	jnb	.L158
	movq	400(%rbp), %rax
	addq	$8, %rax
	movq	%rax, %rdx
	leaq	_Z20userFuncOutputParamsB5cxx11(%rip), %rax
	movq	%rax, %rcx
.LEHB22:
	call	_ZNSt3mapINSt7__cxx1112basic_stringIcSt11char_traitsIcESaIcEEESt6vectorIbSaIbEESt4lessIS5_ESaISt4pairIKS5_S8_EEEixERSC_
	movq	%rax, %rcx
	call	_ZNKSt6vectorIbSaIbEE4sizeEv
	cmpq	%rax, 352(%rbp)
	jnb	.L158
	movl	$1, %eax
	jmp	.L159
.L158:
	movl	$0, %eax
.L159:
	testb	%al, %al
	jne	.L160
.L155:
	movq	400(%rbp), %rax
	addq	$8, %rax
	movq	%rax, %rdx
	leaq	_Z19userFuncInputParamsB5cxx11(%rip), %rax
	movq	%rax, %rcx
	call	_ZNKSt3mapINSt7__cxx1112basic_stringIcSt11char_traitsIcESaIcEEESt6vectorIbSaIbEESt4lessIS5_ESaISt4pairIKS5_S8_EEE5countERSC_
	testq	%rax, %rax
	setne	%al
	testb	%al, %al
	je	.L149
	movq	$0, 344(%rbp)
	jmp	.L161
.L165:
	movq	400(%rbp), %rax
	addq	$8, %rax
	movq	%rax, %rdx
	leaq	_Z19userFuncInputParamsB5cxx11(%rip), %rax
	movq	%rax, %rcx
	call	_ZNSt3mapINSt7__cxx1112basic_stringIcSt11char_traitsIcESaIcEEESt6vectorIbSaIbEESt4lessIS5_ESaISt4pairIKS5_S8_EEEixERSC_
	movq	%rax, %rdx
	leaq	256(%rbp), %rax
	movq	344(%rbp), %rcx
	movq	%rcx, %r8
	movq	%rax, %rcx
	call	_ZNSt6vectorIbSaIbEEixEy
	leaq	256(%rbp), %rax
	movq	%rax, %rcx
	call	_ZNKSt14_Bit_referencecvbEv
	testb	%al, %al
	je	.L162
	movq	400(%rbp), %rax
	leaq	40(%rax), %rcx
	movq	344(%rbp), %rax
	movq	%rax, %rdx
	call	_ZNSt6vectorISt10unique_ptrI7ASTNodeSt14default_deleteIS1_EESaIS4_EEixEy
	movq	%rax, %rcx
	call	_ZNKSt10unique_ptrI7ASTNodeSt14default_deleteIS0_EEptEv
	movq	(%rax), %rdx
	addq	$16, %rdx
	movq	(%rdx), %r8
	leaq	288(%rbp), %rcx
	movq	%rax, %rdx
	call	*%r8
.LEHE22:
	leaq	272(%rbp), %rax
	leaq	288(%rbp), %rdx
	movq	%rdx, %r8
	leaq	_Z9inputPinsB5cxx11(%rip), %rdx
	movq	%rax, %rcx
.LEHB23:
	call	_ZNSt3setINSt7__cxx1112basic_stringIcSt11char_traitsIcESaIcEEESt4lessIS5_ESaIS5_EE6insertEOS5_
.LEHE23:
	leaq	288(%rbp), %rax
	movq	%rax, %rcx
	call	_ZNSt7__cxx1112basic_stringIcSt11char_traitsIcESaIcEED1Ev
.L162:
	addq	$1, 344(%rbp)
.L161:
	movq	400(%rbp), %rax
	addq	$40, %rax
	movq	%rax, %rcx
	call	_ZNKSt6vectorISt10unique_ptrI7ASTNodeSt14default_deleteIS1_EESaIS4_EE4sizeEv
	cmpq	%rax, 344(%rbp)
	jnb	.L163
	movq	400(%rbp), %rax
	addq	$8, %rax
	movq	%rax, %rdx
	leaq	_Z19userFuncInputParamsB5cxx11(%rip), %rax
	movq	%rax, %rcx
.LEHB24:
	call	_ZNSt3mapINSt7__cxx1112basic_stringIcSt11char_traitsIcESaIcEEESt6vectorIbSaIbEESt4lessIS5_ESaISt4pairIKS5_S8_EEEixERSC_
.LEHE24:
	movq	%rax, %rcx
	call	_ZNKSt6vectorIbSaIbEE4sizeEv
	cmpq	%rax, 344(%rbp)
	jnb	.L163
	movl	$1, %eax
	jmp	.L164
.L163:
	movl	$0, %eax
.L164:
	testb	%al, %al
	jne	.L165
.L149:
	leaq	-96(%rbp), %rax
	movq	%rax, %rcx
	call	_ZNSt7__cxx1112basic_stringIcSt11char_traitsIcESaIcEED1Ev
	jmp	.L178
.L175:
	movq	%rax, %rbx
	leaq	-64(%rbp), %rax
	movq	%rax, %rcx
	call	_ZNSt7__cxx1112basic_stringIcSt11char_traitsIcESaIcEED1Ev
	jmp	.L167
.L176:
	movq	%rax, %rbx
	leaq	224(%rbp), %rax
	movq	%rax, %rcx
	call	_ZNSt7__cxx1112basic_stringIcSt11char_traitsIcESaIcEED1Ev
	jmp	.L167
.L177:
	movq	%rax, %rbx
	leaq	288(%rbp), %rax
	movq	%rax, %rcx
	call	_ZNSt7__cxx1112basic_stringIcSt11char_traitsIcESaIcEED1Ev
	jmp	.L167
.L174:
	movq	%rax, %rbx
.L167:
	leaq	-96(%rbp), %rax
	movq	%rax, %rcx
	call	_ZNSt7__cxx1112basic_stringIcSt11char_traitsIcESaIcEED1Ev
	jmp	.L170
.L173:
	movq	%rax, %rbx
.L170:
	movq	400(%rbp), %rax
	addq	$40, %rax
	movq	%rax, %rcx
	call	_ZNSt6vectorISt10unique_ptrI7ASTNodeSt14default_deleteIS1_EESaIS4_EED1Ev
	movq	400(%rbp), %rax
	addq	$8, %rax
	movq	%rax, %rcx
	call	_ZNSt7__cxx1112basic_stringIcSt11char_traitsIcESaIcEED1Ev
	jmp	.L171
.L172:
	movq	%rax, %rbx
.L171:
	movq	400(%rbp), %rax
	movq	%rax, %rcx
	call	_ZN7ASTNodeD2Ev
	movq	%rbx, %rax
	movq	%rax, %rcx
.LEHB25:
	call	_Unwind_Resume
.LEHE25:
.L178:
	nop
	addq	$504, %rsp
	popq	%rbx
	popq	%rbp
	ret
	.seh_handler	__gxx_personality_seh0, @unwind, @except
	.seh_handlerdata
.LLSDA3957:
	.byte	0xff
	.byte	0xff
	.byte	0x1
	.uleb128 .LLSDACSE3957-.LLSDACSB3957
.LLSDACSB3957:
	.uleb128 .LEHB16-.LFB3957
	.uleb128 .LEHE16-.LEHB16
	.uleb128 .L172-.LFB3957
	.uleb128 0
	.uleb128 .LEHB17-.LFB3957
	.uleb128 .LEHE17-.LEHB17
	.uleb128 .L173-.LFB3957
	.uleb128 0
	.uleb128 .LEHB18-.LFB3957
	.uleb128 .LEHE18-.LEHB18
	.uleb128 .L174-.LFB3957
	.uleb128 0
	.uleb128 .LEHB19-.LFB3957
	.uleb128 .LEHE19-.LEHB19
	.uleb128 .L175-.LFB3957
	.uleb128 0
	.uleb128 .LEHB20-.LFB3957
	.uleb128 .LEHE20-.LEHB20
	.uleb128 .L174-.LFB3957
	.uleb128 0
	.uleb128 .LEHB21-.LFB3957
	.uleb128 .LEHE21-.LEHB21
	.uleb128 .L176-.LFB3957
	.uleb128 0
	.uleb128 .LEHB22-.LFB3957
	.uleb128 .LEHE22-.LEHB22
	.uleb128 .L174-.LFB3957
	.uleb128 0
	.uleb128 .LEHB23-.LFB3957
	.uleb128 .LEHE23-.LEHB23
	.uleb128 .L177-.LFB3957
	.uleb128 0
	.uleb128 .LEHB24-.LFB3957
	.uleb128 .LEHE24-.LEHB24
	.uleb128 .L174-.LFB3957
	.uleb128 0
	.uleb128 .LEHB25-.LFB3957
	.uleb128 .LEHE25-.LEHB25
	.uleb128 0
	.uleb128 0
.LLSDACSE3957:
	.section	.text$_ZN16FunctionCallNodeC1ERKNSt7__cxx1112basic_stringIcSt11char_traitsIcESaIcEEESt6vectorISt10unique_ptrI7ASTNodeSt14default_deleteISA_EESaISD_EE,"x"
	.linkonce discard
	.seh_endproc
	.section .rdata,"dr"
.LC14:
	.ascii "digitalWrite(\0"
.LC15:
	.ascii ", HIGH);\0"
.LC16:
	.ascii ", LOW);\0"
.LC17:
	.ascii "0\0"
.LC18:
	.ascii "1\0"
.LC19:
	.ascii "HIGH\0"
.LC20:
	.ascii "LOW\0"
.LC21:
	.ascii ", \0"
.LC22:
	.ascii ");\0"
.LC23:
	.ascii "analogWrite(\0"
.LC24:
	.ascii "analogRead(\0"
.LC25:
	.ascii ")\0"
.LC26:
	.ascii "digitalRead(\0"
.LC27:
	.ascii "wait\0"
.LC28:
	.ascii "delay(\0"
.LC29:
	.ascii "serial\0"
.LC30:
	.ascii "Serial.begin(\0"
.LC31:
	.ascii "print\0"
.LC32:
	.ascii "Serial.print(\0"
.LC33:
	.ascii "println\0"
.LC34:
	.ascii "Serial.println(\0"
.LC35:
	.ascii "available\0"
.LC36:
	.ascii "Serial.available()\0"
.LC37:
	.ascii "read_serial\0"
.LC38:
	.ascii "Serial.read();\0"
.LC39:
	.ascii "scale\0"
.LC40:
	.ascii "map(\0"
.LC41:
	.ascii "\0"
.LC42:
	.ascii "(\0"
	.section	.text$_ZN16FunctionCallNode5toCppB5cxx11Ev,"x"
	.linkonce discard
	.align 2
	.globl	_ZN16FunctionCallNode5toCppB5cxx11Ev
	.def	_ZN16FunctionCallNode5toCppB5cxx11Ev;	.scl	2;	.type	32;	.endef
	.seh_proc	_ZN16FunctionCallNode5toCppB5cxx11Ev
_ZN16FunctionCallNode5toCppB5cxx11Ev:
.LFB3958:
	pushq	%rbp
	.seh_pushreg	%rbp
	pushq	%r12
	.seh_pushreg	%r12
	pushq	%rdi
	.seh_pushreg	%rdi
	pushq	%rsi
	.seh_pushreg	%rsi
	pushq	%rbx
	.seh_pushreg	%rbx
	subq	$1120, %rsp
	.seh_stackalloc	1120
	leaq	128(%rsp), %rbp
	.seh_setframe	%rbp, 128
	.seh_endprologue
	movq	%rcx, 1040(%rbp)
	movq	%rdx, 1048(%rbp)
	leaq	16(%rbp), %rax
	movq	%rax, %rcx
	call	_ZNSt6vectorINSt7__cxx1112basic_stringIcSt11char_traitsIcESaIcEEESaIS5_EEC1Ev
	movq	1048(%rbp), %rax
	addq	$40, %rax
	movq	%rax, 976(%rbp)
	movq	976(%rbp), %rax
	movq	%rax, %rcx
	call	_ZNSt6vectorISt10unique_ptrI7ASTNodeSt14default_deleteIS1_EESaIS4_EE5beginEv
	movq	%rax, -24(%rbp)
	movq	976(%rbp), %rax
	movq	%rax, %rcx
	call	_ZNSt6vectorISt10unique_ptrI7ASTNodeSt14default_deleteIS1_EESaIS4_EE3endEv
	movq	%rax, -32(%rbp)
	jmp	.L180
.L181:
	leaq	-24(%rbp), %rax
	movq	%rax, %rcx
	call	_ZNK9__gnu_cxx17__normal_iteratorIPSt10unique_ptrI7ASTNodeSt14default_deleteIS2_EESt6vectorIS5_SaIS5_EEEdeEv
	movq	%rax, 968(%rbp)
	movq	968(%rbp), %rax
	movq	%rax, %rcx
	call	_ZNKSt10unique_ptrI7ASTNodeSt14default_deleteIS0_EEptEv
	movq	(%rax), %rdx
	addq	$16, %rdx
	movq	(%rdx), %r8
	leaq	48(%rbp), %rcx
	movq	%rax, %rdx
.LEHB26:
	call	*%r8
.LEHE26:
	leaq	48(%rbp), %rdx
	leaq	16(%rbp), %rax
	movq	%rax, %rcx
.LEHB27:
	call	_ZNSt6vectorINSt7__cxx1112basic_stringIcSt11char_traitsIcESaIcEEESaIS5_EE9push_backEOS5_
.LEHE27:
	leaq	48(%rbp), %rax
	movq	%rax, %rcx
	call	_ZNSt7__cxx1112basic_stringIcSt11char_traitsIcESaIcEED1Ev
	leaq	-24(%rbp), %rax
	movq	%rax, %rcx
	call	_ZN9__gnu_cxx17__normal_iteratorIPSt10unique_ptrI7ASTNodeSt14default_deleteIS2_EESt6vectorIS5_SaIS5_EEEppEv
.L180:
	leaq	-32(%rbp), %rdx
	leaq	-24(%rbp), %rax
	movq	%rax, %rcx
	call	_ZN9__gnu_cxxneIPSt10unique_ptrI7ASTNodeSt14default_deleteIS2_EESt6vectorIS5_SaIS5_EEEEbRKNS_17__normal_iteratorIT_T0_EESF_
	testb	%al, %al
	jne	.L181
	movq	1048(%rbp), %rax
	addq	$8, %rax
	leaq	.LC11(%rip), %rdx
	movq	%rax, %rcx
.LEHB28:
	call	_ZSteqIcSt11char_traitsIcESaIcEEbRKNSt7__cxx1112basic_stringIT_T0_T1_EEPKS5_
	testb	%al, %al
	je	.L182
	leaq	16(%rbp), %rax
	movq	%rax, %rcx
	call	_ZNKSt6vectorINSt7__cxx1112basic_stringIcSt11char_traitsIcESaIcEEESaIS5_EE4sizeEv
	testq	%rax, %rax
	je	.L182
	movl	$1, %eax
	jmp	.L183
.L182:
	movl	$0, %eax
.L183:
	testb	%al, %al
	je	.L184
	leaq	16(%rbp), %rax
	movl	$0, %edx
	movq	%rax, %rcx
	call	_ZNSt6vectorINSt7__cxx1112basic_stringIcSt11char_traitsIcESaIcEEESaIS5_EEixEy
	movq	%rax, %rdx
	leaq	-64(%rbp), %rax
	movq	%rax, %rcx
	call	_ZNSt7__cxx1112basic_stringIcSt11char_traitsIcESaIcEEC1ERKS4_
.LEHE28:
	leaq	80(%rbp), %rax
	leaq	-64(%rbp), %rdx
	movq	%rdx, %r8
	leaq	.LC14(%rip), %rdx
	movq	%rax, %rcx
.LEHB29:
	call	_ZStplIcSt11char_traitsIcESaIcEENSt7__cxx1112basic_stringIT_T0_T1_EEPKS5_RKS8_
.LEHE29:
	movq	1040(%rbp), %rax
	leaq	80(%rbp), %rdx
	leaq	.LC15(%rip), %r8
	movq	%rax, %rcx
.LEHB30:
	call	_ZStplIcSt11char_traitsIcESaIcEENSt7__cxx1112basic_stringIT_T0_T1_EEOS8_PKS5_
.LEHE30:
	nop
	leaq	80(%rbp), %rax
	movq	%rax, %rcx
	call	_ZNSt7__cxx1112basic_stringIcSt11char_traitsIcESaIcEED1Ev
	leaq	-64(%rbp), %rax
	movq	%rax, %rcx
	call	_ZNSt7__cxx1112basic_stringIcSt11char_traitsIcESaIcEED1Ev
	jmp	.L185
.L184:
	movq	1048(%rbp), %rax
	addq	$8, %rax
	leaq	.LC12(%rip), %rdx
	movq	%rax, %rcx
.LEHB31:
	call	_ZSteqIcSt11char_traitsIcESaIcEEbRKNSt7__cxx1112basic_stringIT_T0_T1_EEPKS5_
	testb	%al, %al
	je	.L186
	leaq	16(%rbp), %rax
	movq	%rax, %rcx
	call	_ZNKSt6vectorINSt7__cxx1112basic_stringIcSt11char_traitsIcESaIcEEESaIS5_EE4sizeEv
	testq	%rax, %rax
	je	.L186
	movl	$1, %eax
	jmp	.L187
.L186:
	movl	$0, %eax
.L187:
	testb	%al, %al
	je	.L188
	leaq	16(%rbp), %rax
	movl	$0, %edx
	movq	%rax, %rcx
	call	_ZNSt6vectorINSt7__cxx1112basic_stringIcSt11char_traitsIcESaIcEEESaIS5_EEixEy
	movq	%rax, %rdx
	leaq	-64(%rbp), %rax
	movq	%rax, %rcx
	call	_ZNSt7__cxx1112basic_stringIcSt11char_traitsIcESaIcEEC1ERKS4_
.LEHE31:
	leaq	112(%rbp), %rax
	leaq	-64(%rbp), %rdx
	movq	%rdx, %r8
	leaq	.LC14(%rip), %rdx
	movq	%rax, %rcx
.LEHB32:
	call	_ZStplIcSt11char_traitsIcESaIcEENSt7__cxx1112basic_stringIT_T0_T1_EEPKS5_RKS8_
.LEHE32:
	movq	1040(%rbp), %rax
	leaq	112(%rbp), %rdx
	leaq	.LC16(%rip), %r8
	movq	%rax, %rcx
.LEHB33:
	call	_ZStplIcSt11char_traitsIcESaIcEENSt7__cxx1112basic_stringIT_T0_T1_EEOS8_PKS5_
.LEHE33:
	nop
	leaq	112(%rbp), %rax
	movq	%rax, %rcx
	call	_ZNSt7__cxx1112basic_stringIcSt11char_traitsIcESaIcEED1Ev
	leaq	-64(%rbp), %rax
	movq	%rax, %rcx
	call	_ZNSt7__cxx1112basic_stringIcSt11char_traitsIcESaIcEED1Ev
	jmp	.L185
.L188:
	movq	1048(%rbp), %rax
	addq	$8, %rax
	leaq	.LC13(%rip), %rdx
	movq	%rax, %rcx
.LEHB34:
	call	_ZSteqIcSt11char_traitsIcESaIcEEbRKNSt7__cxx1112basic_stringIT_T0_T1_EEPKS5_
	testb	%al, %al
	je	.L189
	leaq	16(%rbp), %rax
	movq	%rax, %rcx
	call	_ZNKSt6vectorINSt7__cxx1112basic_stringIcSt11char_traitsIcESaIcEEESaIS5_EE4sizeEv
	cmpq	$1, %rax
	jbe	.L189
	movl	$1, %eax
	jmp	.L190
.L189:
	movl	$0, %eax
.L190:
	testb	%al, %al
	je	.L191
	leaq	16(%rbp), %rax
	movl	$0, %edx
	movq	%rax, %rcx
	call	_ZNSt6vectorINSt7__cxx1112basic_stringIcSt11char_traitsIcESaIcEEESaIS5_EEixEy
	movq	%rax, %rdx
	leaq	-96(%rbp), %rax
	movq	%rax, %rcx
	call	_ZNSt7__cxx1112basic_stringIcSt11char_traitsIcESaIcEEC1ERKS4_
.LEHE34:
	leaq	16(%rbp), %rax
	movl	$1, %edx
	movq	%rax, %rcx
	call	_ZNSt6vectorINSt7__cxx1112basic_stringIcSt11char_traitsIcESaIcEEESaIS5_EEixEy
	movq	%rax, %rdx
	leaq	-64(%rbp), %rax
	movq	%rax, %rcx
.LEHB35:
	call	_ZNSt7__cxx1112basic_stringIcSt11char_traitsIcESaIcEEC1ERKS4_
.LEHE35:
	leaq	-64(%rbp), %rax
	leaq	.LC17(%rip), %rdx
	movq	%rax, %rcx
.LEHB36:
	call	_ZSteqIcSt11char_traitsIcESaIcEEbRKNSt7__cxx1112basic_stringIT_T0_T1_EEPKS5_
	testb	%al, %al
	jne	.L192
	leaq	-64(%rbp), %rax
	leaq	.LC18(%rip), %rdx
	movq	%rax, %rcx
	call	_ZSteqIcSt11char_traitsIcESaIcEEbRKNSt7__cxx1112basic_stringIT_T0_T1_EEPKS5_
	testb	%al, %al
	jne	.L192
	leaq	-64(%rbp), %rax
	leaq	.LC19(%rip), %rdx
	movq	%rax, %rcx
	call	_ZSteqIcSt11char_traitsIcESaIcEEbRKNSt7__cxx1112basic_stringIT_T0_T1_EEPKS5_
	testb	%al, %al
	jne	.L192
	leaq	-64(%rbp), %rax
	leaq	.LC20(%rip), %rdx
	movq	%rax, %rcx
	call	_ZSteqIcSt11char_traitsIcESaIcEEbRKNSt7__cxx1112basic_stringIT_T0_T1_EEPKS5_
	testb	%al, %al
	je	.L193
.L192:
	movl	$1, %eax
	jmp	.L194
.L193:
	movl	$0, %eax
.L194:
	testb	%al, %al
	je	.L195
	leaq	208(%rbp), %rax
	leaq	-96(%rbp), %rdx
	movq	%rdx, %r8
	leaq	.LC14(%rip), %rdx
	movq	%rax, %rcx
	call	_ZStplIcSt11char_traitsIcESaIcEENSt7__cxx1112basic_stringIT_T0_T1_EEPKS5_RKS8_
.LEHE36:
	leaq	176(%rbp), %rax
	leaq	208(%rbp), %rdx
	leaq	.LC21(%rip), %r8
	movq	%rax, %rcx
.LEHB37:
	call	_ZStplIcSt11char_traitsIcESaIcEENSt7__cxx1112basic_stringIT_T0_T1_EEOS8_PKS5_
.LEHE37:
	leaq	144(%rbp), %rax
	leaq	-64(%rbp), %rcx
	leaq	176(%rbp), %rdx
	movq	%rcx, %r8
	movq	%rax, %rcx
.LEHB38:
	call	_ZStplIcSt11char_traitsIcESaIcEENSt7__cxx1112basic_stringIT_T0_T1_EEOS8_RKS8_
.LEHE38:
	movq	1040(%rbp), %rax
	leaq	144(%rbp), %rdx
	leaq	.LC22(%rip), %r8
	movq	%rax, %rcx
.LEHB39:
	call	_ZStplIcSt11char_traitsIcESaIcEENSt7__cxx1112basic_stringIT_T0_T1_EEOS8_PKS5_
.LEHE39:
	nop
	leaq	144(%rbp), %rax
	movq	%rax, %rcx
	call	_ZNSt7__cxx1112basic_stringIcSt11char_traitsIcESaIcEED1Ev
	leaq	176(%rbp), %rax
	movq	%rax, %rcx
	call	_ZNSt7__cxx1112basic_stringIcSt11char_traitsIcESaIcEED1Ev
	leaq	208(%rbp), %rax
	movq	%rax, %rcx
	call	_ZNSt7__cxx1112basic_stringIcSt11char_traitsIcESaIcEED1Ev
	jmp	.L196
.L195:
	leaq	304(%rbp), %rax
	leaq	-96(%rbp), %rdx
	movq	%rdx, %r8
	leaq	.LC23(%rip), %rdx
	movq	%rax, %rcx
.LEHB40:
	call	_ZStplIcSt11char_traitsIcESaIcEENSt7__cxx1112basic_stringIT_T0_T1_EEPKS5_RKS8_
.LEHE40:
	leaq	272(%rbp), %rax
	leaq	304(%rbp), %rdx
	leaq	.LC21(%rip), %r8
	movq	%rax, %rcx
.LEHB41:
	call	_ZStplIcSt11char_traitsIcESaIcEENSt7__cxx1112basic_stringIT_T0_T1_EEOS8_PKS5_
.LEHE41:
	leaq	240(%rbp), %rax
	leaq	-64(%rbp), %rcx
	leaq	272(%rbp), %rdx
	movq	%rcx, %r8
	movq	%rax, %rcx
.LEHB42:
	call	_ZStplIcSt11char_traitsIcESaIcEENSt7__cxx1112basic_stringIT_T0_T1_EEOS8_RKS8_
.LEHE42:
	movq	1040(%rbp), %rax
	leaq	240(%rbp), %rdx
	leaq	.LC22(%rip), %r8
	movq	%rax, %rcx
.LEHB43:
	call	_ZStplIcSt11char_traitsIcESaIcEENSt7__cxx1112basic_stringIT_T0_T1_EEOS8_PKS5_
.LEHE43:
	nop
	leaq	240(%rbp), %rax
	movq	%rax, %rcx
	call	_ZNSt7__cxx1112basic_stringIcSt11char_traitsIcESaIcEED1Ev
	leaq	272(%rbp), %rax
	movq	%rax, %rcx
	call	_ZNSt7__cxx1112basic_stringIcSt11char_traitsIcESaIcEED1Ev
	leaq	304(%rbp), %rax
	movq	%rax, %rcx
	call	_ZNSt7__cxx1112basic_stringIcSt11char_traitsIcESaIcEED1Ev
.L196:
	leaq	-64(%rbp), %rax
	movq	%rax, %rcx
	call	_ZNSt7__cxx1112basic_stringIcSt11char_traitsIcESaIcEED1Ev
	leaq	-96(%rbp), %rax
	movq	%rax, %rcx
	call	_ZNSt7__cxx1112basic_stringIcSt11char_traitsIcESaIcEED1Ev
	jmp	.L185
.L191:
	movq	1048(%rbp), %rax
	addq	$8, %rax
	leaq	.LC10(%rip), %rdx
	movq	%rax, %rcx
.LEHB44:
	call	_ZSteqIcSt11char_traitsIcESaIcEEbRKNSt7__cxx1112basic_stringIT_T0_T1_EEPKS5_
	testb	%al, %al
	je	.L197
	leaq	16(%rbp), %rax
	movq	%rax, %rcx
	call	_ZNKSt6vectorINSt7__cxx1112basic_stringIcSt11char_traitsIcESaIcEEESaIS5_EE4sizeEv
	testq	%rax, %rax
	je	.L197
	movl	$1, %eax
	jmp	.L198
.L197:
	movl	$0, %eax
.L198:
	testb	%al, %al
	je	.L199
	leaq	16(%rbp), %rax
	movl	$0, %edx
	movq	%rax, %rcx
	call	_ZNSt6vectorINSt7__cxx1112basic_stringIcSt11char_traitsIcESaIcEEESaIS5_EEixEy
	movq	%rax, %rdx
	leaq	-64(%rbp), %rax
	movq	%rax, %rcx
	call	_ZNSt7__cxx1112basic_stringIcSt11char_traitsIcESaIcEEC1ERKS4_
.LEHE44:
	leaq	-64(%rbp), %rax
	movq	%rax, %rcx
	call	_ZNKSt7__cxx1112basic_stringIcSt11char_traitsIcESaIcEE6lengthEv
	cmpq	$1, %rax
	jbe	.L200
	leaq	-64(%rbp), %rax
	movl	$0, %edx
	movq	%rax, %rcx
.LEHB45:
	call	_ZNSt7__cxx1112basic_stringIcSt11char_traitsIcESaIcEEixEy
	movzbl	(%rax), %eax
	cmpb	$65, %al
	jne	.L200
	leaq	-64(%rbp), %rax
	movl	$1, %edx
	movq	%rax, %rcx
	call	_ZNSt7__cxx1112basic_stringIcSt11char_traitsIcESaIcEEixEy
	movzbl	(%rax), %eax
	movsbl	%al, %eax
	subl	$48, %eax
	cmpl	$9, %eax
	setbe	%al
	movzbl	%al, %eax
	testl	%eax, %eax
	je	.L200
	movl	$1, %eax
	jmp	.L201
.L200:
	movl	$0, %eax
.L201:
	testb	%al, %al
	je	.L202
	leaq	336(%rbp), %rax
	leaq	-64(%rbp), %rdx
	movq	%rdx, %r8
	leaq	.LC24(%rip), %rdx
	movq	%rax, %rcx
	call	_ZStplIcSt11char_traitsIcESaIcEENSt7__cxx1112basic_stringIT_T0_T1_EEPKS5_RKS8_
.LEHE45:
	movq	1040(%rbp), %rax
	leaq	336(%rbp), %rdx
	leaq	.LC25(%rip), %r8
	movq	%rax, %rcx
.LEHB46:
	call	_ZStplIcSt11char_traitsIcESaIcEENSt7__cxx1112basic_stringIT_T0_T1_EEOS8_PKS5_
.LEHE46:
	nop
	leaq	336(%rbp), %rax
	movq	%rax, %rcx
	call	_ZNSt7__cxx1112basic_stringIcSt11char_traitsIcESaIcEED1Ev
	jmp	.L203
.L202:
	leaq	368(%rbp), %rax
	leaq	-64(%rbp), %rdx
	movq	%rdx, %r8
	leaq	.LC26(%rip), %rdx
	movq	%rax, %rcx
.LEHB47:
	call	_ZStplIcSt11char_traitsIcESaIcEENSt7__cxx1112basic_stringIT_T0_T1_EEPKS5_RKS8_
.LEHE47:
	movq	1040(%rbp), %rax
	leaq	368(%rbp), %rdx
	leaq	.LC25(%rip), %r8
	movq	%rax, %rcx
.LEHB48:
	call	_ZStplIcSt11char_traitsIcESaIcEENSt7__cxx1112basic_stringIT_T0_T1_EEOS8_PKS5_
.LEHE48:
	nop
	leaq	368(%rbp), %rax
	movq	%rax, %rcx
	call	_ZNSt7__cxx1112basic_stringIcSt11char_traitsIcESaIcEED1Ev
.L203:
	leaq	-64(%rbp), %rax
	movq	%rax, %rcx
	call	_ZNSt7__cxx1112basic_stringIcSt11char_traitsIcESaIcEED1Ev
	jmp	.L185
.L199:
	movq	1048(%rbp), %rax
	addq	$8, %rax
	leaq	.LC27(%rip), %rdx
	movq	%rax, %rcx
.LEHB49:
	call	_ZSteqIcSt11char_traitsIcESaIcEEbRKNSt7__cxx1112basic_stringIT_T0_T1_EEPKS5_
	testb	%al, %al
	je	.L204
	leaq	16(%rbp), %rax
	movq	%rax, %rcx
	call	_ZNKSt6vectorINSt7__cxx1112basic_stringIcSt11char_traitsIcESaIcEEESaIS5_EE4sizeEv
	testq	%rax, %rax
	je	.L204
	movl	$1, %eax
	jmp	.L205
.L204:
	movl	$0, %eax
.L205:
	testb	%al, %al
	je	.L206
	leaq	16(%rbp), %rax
	movl	$0, %edx
	movq	%rax, %rcx
	call	_ZNSt6vectorINSt7__cxx1112basic_stringIcSt11char_traitsIcESaIcEEESaIS5_EEixEy
	movq	%rax, %rdx
	leaq	400(%rbp), %rax
	movq	%rdx, %r8
	leaq	.LC28(%rip), %rdx
	movq	%rax, %rcx
	call	_ZStplIcSt11char_traitsIcESaIcEENSt7__cxx1112basic_stringIT_T0_T1_EEPKS5_RKS8_
.LEHE49:
	movq	1040(%rbp), %rax
	leaq	400(%rbp), %rdx
	leaq	.LC22(%rip), %r8
	movq	%rax, %rcx
.LEHB50:
	call	_ZStplIcSt11char_traitsIcESaIcEENSt7__cxx1112basic_stringIT_T0_T1_EEOS8_PKS5_
.LEHE50:
	nop
	leaq	400(%rbp), %rax
	movq	%rax, %rcx
	call	_ZNSt7__cxx1112basic_stringIcSt11char_traitsIcESaIcEED1Ev
	jmp	.L185
.L206:
	movq	1048(%rbp), %rax
	addq	$8, %rax
	leaq	.LC29(%rip), %rdx
	movq	%rax, %rcx
.LEHB51:
	call	_ZSteqIcSt11char_traitsIcESaIcEEbRKNSt7__cxx1112basic_stringIT_T0_T1_EEPKS5_
	testb	%al, %al
	je	.L207
	leaq	16(%rbp), %rax
	movq	%rax, %rcx
	call	_ZNKSt6vectorINSt7__cxx1112basic_stringIcSt11char_traitsIcESaIcEEESaIS5_EE4sizeEv
	testq	%rax, %rax
	je	.L207
	movl	$1, %eax
	jmp	.L208
.L207:
	movl	$0, %eax
.L208:
	testb	%al, %al
	je	.L209
	leaq	16(%rbp), %rax
	movl	$0, %edx
	movq	%rax, %rcx
	call	_ZNSt6vectorINSt7__cxx1112basic_stringIcSt11char_traitsIcESaIcEEESaIS5_EEixEy
	movq	%rax, %rdx
	leaq	432(%rbp), %rax
	movq	%rdx, %r8
	leaq	.LC30(%rip), %rdx
	movq	%rax, %rcx
	call	_ZStplIcSt11char_traitsIcESaIcEENSt7__cxx1112basic_stringIT_T0_T1_EEPKS5_RKS8_
.LEHE51:
	movq	1040(%rbp), %rax
	leaq	432(%rbp), %rdx
	leaq	.LC22(%rip), %r8
	movq	%rax, %rcx
.LEHB52:
	call	_ZStplIcSt11char_traitsIcESaIcEENSt7__cxx1112basic_stringIT_T0_T1_EEOS8_PKS5_
.LEHE52:
	nop
	leaq	432(%rbp), %rax
	movq	%rax, %rcx
	call	_ZNSt7__cxx1112basic_stringIcSt11char_traitsIcESaIcEED1Ev
	jmp	.L185
.L209:
	movq	1048(%rbp), %rax
	addq	$8, %rax
	leaq	.LC31(%rip), %rdx
	movq	%rax, %rcx
.LEHB53:
	call	_ZSteqIcSt11char_traitsIcESaIcEEbRKNSt7__cxx1112basic_stringIT_T0_T1_EEPKS5_
	testb	%al, %al
	je	.L210
	leaq	16(%rbp), %rax
	movq	%rax, %rcx
	call	_ZNKSt6vectorINSt7__cxx1112basic_stringIcSt11char_traitsIcESaIcEEESaIS5_EE4sizeEv
	testq	%rax, %rax
	je	.L210
	movl	$1, %eax
	jmp	.L211
.L210:
	movl	$0, %eax
.L211:
	testb	%al, %al
	je	.L212
	leaq	16(%rbp), %rax
	movl	$0, %edx
	movq	%rax, %rcx
	call	_ZNSt6vectorINSt7__cxx1112basic_stringIcSt11char_traitsIcESaIcEEESaIS5_EEixEy
	movq	%rax, %rdx
	leaq	464(%rbp), %rax
	movq	%rdx, %r8
	leaq	.LC32(%rip), %rdx
	movq	%rax, %rcx
	call	_ZStplIcSt11char_traitsIcESaIcEENSt7__cxx1112basic_stringIT_T0_T1_EEPKS5_RKS8_
.LEHE53:
	movq	1040(%rbp), %rax
	leaq	464(%rbp), %rdx
	leaq	.LC22(%rip), %r8
	movq	%rax, %rcx
.LEHB54:
	call	_ZStplIcSt11char_traitsIcESaIcEENSt7__cxx1112basic_stringIT_T0_T1_EEOS8_PKS5_
.LEHE54:
	nop
	leaq	464(%rbp), %rax
	movq	%rax, %rcx
	call	_ZNSt7__cxx1112basic_stringIcSt11char_traitsIcESaIcEED1Ev
	jmp	.L185
.L212:
	movq	1048(%rbp), %rax
	addq	$8, %rax
	leaq	.LC33(%rip), %rdx
	movq	%rax, %rcx
.LEHB55:
	call	_ZSteqIcSt11char_traitsIcESaIcEEbRKNSt7__cxx1112basic_stringIT_T0_T1_EEPKS5_
	testb	%al, %al
	je	.L213
	leaq	16(%rbp), %rax
	movq	%rax, %rcx
	call	_ZNKSt6vectorINSt7__cxx1112basic_stringIcSt11char_traitsIcESaIcEEESaIS5_EE4sizeEv
	testq	%rax, %rax
	je	.L213
	movl	$1, %eax
	jmp	.L214
.L213:
	movl	$0, %eax
.L214:
	testb	%al, %al
	je	.L215
	leaq	16(%rbp), %rax
	movl	$0, %edx
	movq	%rax, %rcx
	call	_ZNSt6vectorINSt7__cxx1112basic_stringIcSt11char_traitsIcESaIcEEESaIS5_EEixEy
	movq	%rax, %rdx
	leaq	496(%rbp), %rax
	movq	%rdx, %r8
	leaq	.LC34(%rip), %rdx
	movq	%rax, %rcx
	call	_ZStplIcSt11char_traitsIcESaIcEENSt7__cxx1112basic_stringIT_T0_T1_EEPKS5_RKS8_
.LEHE55:
	movq	1040(%rbp), %rax
	leaq	496(%rbp), %rdx
	leaq	.LC22(%rip), %r8
	movq	%rax, %rcx
.LEHB56:
	call	_ZStplIcSt11char_traitsIcESaIcEENSt7__cxx1112basic_stringIT_T0_T1_EEOS8_PKS5_
.LEHE56:
	nop
	leaq	496(%rbp), %rax
	movq	%rax, %rcx
	call	_ZNSt7__cxx1112basic_stringIcSt11char_traitsIcESaIcEED1Ev
	jmp	.L185
.L215:
	movq	1048(%rbp), %rax
	addq	$8, %rax
	leaq	.LC35(%rip), %rdx
	movq	%rax, %rcx
.LEHB57:
	call	_ZSteqIcSt11char_traitsIcESaIcEEbRKNSt7__cxx1112basic_stringIT_T0_T1_EEPKS5_
.LEHE57:
	testb	%al, %al
	je	.L216
	leaq	542(%rbp), %rax
	movq	%rax, 960(%rbp)
	nop
	nop
	leaq	542(%rbp), %rdx
	movq	1040(%rbp), %rax
	movq	%rdx, %r8
	leaq	.LC36(%rip), %rdx
	movq	%rax, %rcx
.LEHB58:
	call	_ZNSt7__cxx1112basic_stringIcSt11char_traitsIcESaIcEEC1IS3_EEPKcRKS3_
.LEHE58:
	leaq	542(%rbp), %rax
	movq	%rax, %rcx
	call	_ZNSt15__new_allocatorIcED2Ev
	jmp	.L185
.L216:
	movq	1048(%rbp), %rax
	addq	$8, %rax
	leaq	.LC37(%rip), %rdx
	movq	%rax, %rcx
.LEHB59:
	call	_ZSteqIcSt11char_traitsIcESaIcEEbRKNSt7__cxx1112basic_stringIT_T0_T1_EEPKS5_
.LEHE59:
	testb	%al, %al
	je	.L217
	leaq	543(%rbp), %rax
	movq	%rax, 952(%rbp)
	nop
	nop
	leaq	543(%rbp), %rdx
	movq	1040(%rbp), %rax
	movq	%rdx, %r8
	leaq	.LC38(%rip), %rdx
	movq	%rax, %rcx
.LEHB60:
	call	_ZNSt7__cxx1112basic_stringIcSt11char_traitsIcESaIcEEC1IS3_EEPKcRKS3_
.LEHE60:
	leaq	543(%rbp), %rax
	movq	%rax, %rcx
	call	_ZNSt15__new_allocatorIcED2Ev
	jmp	.L185
.L217:
	movq	1048(%rbp), %rax
	addq	$8, %rax
	leaq	.LC39(%rip), %rdx
	movq	%rax, %rcx
.LEHB61:
	call	_ZSteqIcSt11char_traitsIcESaIcEEbRKNSt7__cxx1112basic_stringIT_T0_T1_EEPKS5_
	testb	%al, %al
	je	.L218
	leaq	16(%rbp), %rax
	movq	%rax, %rcx
	call	_ZNKSt6vectorINSt7__cxx1112basic_stringIcSt11char_traitsIcESaIcEEESaIS5_EE4sizeEv
	cmpq	$4, %rax
	jbe	.L218
	movl	$1, %eax
	jmp	.L219
.L218:
	movl	$0, %eax
.L219:
	testb	%al, %al
	je	.L220
	leaq	16(%rbp), %rax
	movl	$4, %edx
	movq	%rax, %rcx
	call	_ZNSt6vectorINSt7__cxx1112basic_stringIcSt11char_traitsIcESaIcEEESaIS5_EEixEy
	movq	%rax, %rbx
	leaq	16(%rbp), %rax
	movl	$3, %edx
	movq	%rax, %rcx
	call	_ZNSt6vectorINSt7__cxx1112basic_stringIcSt11char_traitsIcESaIcEEESaIS5_EEixEy
	movq	%rax, %rsi
	leaq	16(%rbp), %rax
	movl	$2, %edx
	movq	%rax, %rcx
	call	_ZNSt6vectorINSt7__cxx1112basic_stringIcSt11char_traitsIcESaIcEEESaIS5_EEixEy
	movq	%rax, %rdi
	leaq	16(%rbp), %rax
	movl	$1, %edx
	movq	%rax, %rcx
	call	_ZNSt6vectorINSt7__cxx1112basic_stringIcSt11char_traitsIcESaIcEEESaIS5_EEixEy
	movq	%rax, %r12
	leaq	16(%rbp), %rax
	movl	$0, %edx
	movq	%rax, %rcx
	call	_ZNSt6vectorINSt7__cxx1112basic_stringIcSt11char_traitsIcESaIcEEESaIS5_EEixEy
	movq	%rax, %rdx
	leaq	800(%rbp), %rax
	movq	%rdx, %r8
	leaq	.LC40(%rip), %rdx
	movq	%rax, %rcx
	call	_ZStplIcSt11char_traitsIcESaIcEENSt7__cxx1112basic_stringIT_T0_T1_EEPKS5_RKS8_
.LEHE61:
	leaq	768(%rbp), %rax
	leaq	800(%rbp), %rdx
	leaq	.LC21(%rip), %r8
	movq	%rax, %rcx
.LEHB62:
	call	_ZStplIcSt11char_traitsIcESaIcEENSt7__cxx1112basic_stringIT_T0_T1_EEOS8_PKS5_
.LEHE62:
	leaq	736(%rbp), %rax
	leaq	768(%rbp), %rdx
	movq	%r12, %r8
	movq	%rax, %rcx
.LEHB63:
	call	_ZStplIcSt11char_traitsIcESaIcEENSt7__cxx1112basic_stringIT_T0_T1_EEOS8_RKS8_
.LEHE63:
	leaq	704(%rbp), %rax
	leaq	736(%rbp), %rdx
	leaq	.LC21(%rip), %r8
	movq	%rax, %rcx
.LEHB64:
	call	_ZStplIcSt11char_traitsIcESaIcEENSt7__cxx1112basic_stringIT_T0_T1_EEOS8_PKS5_
.LEHE64:
	leaq	672(%rbp), %rax
	leaq	704(%rbp), %rdx
	movq	%rdi, %r8
	movq	%rax, %rcx
.LEHB65:
	call	_ZStplIcSt11char_traitsIcESaIcEENSt7__cxx1112basic_stringIT_T0_T1_EEOS8_RKS8_
.LEHE65:
	leaq	640(%rbp), %rax
	leaq	672(%rbp), %rdx
	leaq	.LC21(%rip), %r8
	movq	%rax, %rcx
.LEHB66:
	call	_ZStplIcSt11char_traitsIcESaIcEENSt7__cxx1112basic_stringIT_T0_T1_EEOS8_PKS5_
.LEHE66:
	leaq	608(%rbp), %rax
	leaq	640(%rbp), %rdx
	movq	%rsi, %r8
	movq	%rax, %rcx
.LEHB67:
	call	_ZStplIcSt11char_traitsIcESaIcEENSt7__cxx1112basic_stringIT_T0_T1_EEOS8_RKS8_
.LEHE67:
	leaq	576(%rbp), %rax
	leaq	608(%rbp), %rdx
	leaq	.LC21(%rip), %r8
	movq	%rax, %rcx
.LEHB68:
	call	_ZStplIcSt11char_traitsIcESaIcEENSt7__cxx1112basic_stringIT_T0_T1_EEOS8_PKS5_
.LEHE68:
	leaq	544(%rbp), %rax
	leaq	576(%rbp), %rdx
	movq	%rbx, %r8
	movq	%rax, %rcx
.LEHB69:
	call	_ZStplIcSt11char_traitsIcESaIcEENSt7__cxx1112basic_stringIT_T0_T1_EEOS8_RKS8_
.LEHE69:
	movq	1040(%rbp), %rax
	leaq	544(%rbp), %rdx
	leaq	.LC25(%rip), %r8
	movq	%rax, %rcx
.LEHB70:
	call	_ZStplIcSt11char_traitsIcESaIcEENSt7__cxx1112basic_stringIT_T0_T1_EEOS8_PKS5_
.LEHE70:
	nop
	leaq	544(%rbp), %rax
	movq	%rax, %rcx
	call	_ZNSt7__cxx1112basic_stringIcSt11char_traitsIcESaIcEED1Ev
	leaq	576(%rbp), %rax
	movq	%rax, %rcx
	call	_ZNSt7__cxx1112basic_stringIcSt11char_traitsIcESaIcEED1Ev
	leaq	608(%rbp), %rax
	movq	%rax, %rcx
	call	_ZNSt7__cxx1112basic_stringIcSt11char_traitsIcESaIcEED1Ev
	leaq	640(%rbp), %rax
	movq	%rax, %rcx
	call	_ZNSt7__cxx1112basic_stringIcSt11char_traitsIcESaIcEED1Ev
	leaq	672(%rbp), %rax
	movq	%rax, %rcx
	call	_ZNSt7__cxx1112basic_stringIcSt11char_traitsIcESaIcEED1Ev
	leaq	704(%rbp), %rax
	movq	%rax, %rcx
	call	_ZNSt7__cxx1112basic_stringIcSt11char_traitsIcESaIcEED1Ev
	leaq	736(%rbp), %rax
	movq	%rax, %rcx
	call	_ZNSt7__cxx1112basic_stringIcSt11char_traitsIcESaIcEED1Ev
	leaq	768(%rbp), %rax
	movq	%rax, %rcx
	call	_ZNSt7__cxx1112basic_stringIcSt11char_traitsIcESaIcEED1Ev
	leaq	800(%rbp), %rax
	movq	%rax, %rcx
	call	_ZNSt7__cxx1112basic_stringIcSt11char_traitsIcESaIcEED1Ev
	jmp	.L185
.L220:
	leaq	847(%rbp), %rax
	movq	%rax, 944(%rbp)
	nop
	nop
	leaq	847(%rbp), %rdx
	leaq	-16(%rbp), %rax
	movq	%rdx, %r8
	leaq	.LC41(%rip), %rdx
	movq	%rax, %rcx
.LEHB71:
	call	_ZNSt7__cxx1112basic_stringIcSt11char_traitsIcESaIcEEC1IS3_EEPKcRKS3_
.LEHE71:
	leaq	847(%rbp), %rax
	movq	%rax, %rcx
	call	_ZNSt15__new_allocatorIcED2Ev
	nop
	movq	$0, 984(%rbp)
	jmp	.L221
.L224:
	leaq	16(%rbp), %rax
	movq	%rax, %rcx
	call	_ZNKSt6vectorINSt7__cxx1112basic_stringIcSt11char_traitsIcESaIcEEESaIS5_EE4sizeEv
	subq	$1, %rax
	cmpq	%rax, 984(%rbp)
	jnb	.L222
	leaq	.LC21(%rip), %rbx
	jmp	.L223
.L222:
	leaq	.LC41(%rip), %rbx
.L223:
	movq	984(%rbp), %rdx
	leaq	16(%rbp), %rax
	movq	%rax, %rcx
	call	_ZNSt6vectorINSt7__cxx1112basic_stringIcSt11char_traitsIcESaIcEEESaIS5_EEixEy
	movq	%rax, %rdx
	leaq	848(%rbp), %rax
	movq	%rbx, %r8
	movq	%rax, %rcx
.LEHB72:
	call	_ZStplIcSt11char_traitsIcESaIcEENSt7__cxx1112basic_stringIT_T0_T1_EERKS8_PKS5_
.LEHE72:
	leaq	848(%rbp), %rdx
	leaq	-16(%rbp), %rax
	movq	%rax, %rcx
.LEHB73:
	call	_ZNSt7__cxx1112basic_stringIcSt11char_traitsIcESaIcEEpLERKS4_
.LEHE73:
	leaq	848(%rbp), %rax
	movq	%rax, %rcx
	call	_ZNSt7__cxx1112basic_stringIcSt11char_traitsIcESaIcEED1Ev
	addq	$1, 984(%rbp)
.L221:
	leaq	16(%rbp), %rax
	movq	%rax, %rcx
	call	_ZNKSt6vectorINSt7__cxx1112basic_stringIcSt11char_traitsIcESaIcEEESaIS5_EE4sizeEv
	cmpq	%rax, 984(%rbp)
	setb	%al
	testb	%al, %al
	jne	.L224
	movq	1048(%rbp), %rax
	leaq	8(%rax), %rdx
	leaq	912(%rbp), %rax
	leaq	.LC42(%rip), %r8
	movq	%rax, %rcx
.LEHB74:
	call	_ZStplIcSt11char_traitsIcESaIcEENSt7__cxx1112basic_stringIT_T0_T1_EERKS8_PKS5_
.LEHE74:
	leaq	880(%rbp), %rax
	leaq	-16(%rbp), %rcx
	leaq	912(%rbp), %rdx
	movq	%rcx, %r8
	movq	%rax, %rcx
.LEHB75:
	call	_ZStplIcSt11char_traitsIcESaIcEENSt7__cxx1112basic_stringIT_T0_T1_EEOS8_RKS8_
.LEHE75:
	movq	1040(%rbp), %rax
	leaq	880(%rbp), %rdx
	leaq	.LC22(%rip), %r8
	movq	%rax, %rcx
.LEHB76:
	call	_ZStplIcSt11char_traitsIcESaIcEENSt7__cxx1112basic_stringIT_T0_T1_EEOS8_PKS5_
.LEHE76:
	nop
	leaq	880(%rbp), %rax
	movq	%rax, %rcx
	call	_ZNSt7__cxx1112basic_stringIcSt11char_traitsIcESaIcEED1Ev
	leaq	912(%rbp), %rax
	movq	%rax, %rcx
	call	_ZNSt7__cxx1112basic_stringIcSt11char_traitsIcESaIcEED1Ev
	leaq	-16(%rbp), %rax
	movq	%rax, %rcx
	call	_ZNSt7__cxx1112basic_stringIcSt11char_traitsIcESaIcEED1Ev
.L185:
	leaq	16(%rbp), %rax
	movq	%rax, %rcx
	call	_ZNSt6vectorINSt7__cxx1112basic_stringIcSt11char_traitsIcESaIcEEESaIS5_EED1Ev
	jmp	.L300
.L263:
	movq	%rax, %rbx
	leaq	48(%rbp), %rax
	movq	%rax, %rcx
	call	_ZNSt7__cxx1112basic_stringIcSt11char_traitsIcESaIcEED1Ev
	jmp	.L227
.L266:
	movq	%rax, %rbx
	leaq	80(%rbp), %rax
	movq	%rax, %rcx
	call	_ZNSt7__cxx1112basic_stringIcSt11char_traitsIcESaIcEED1Ev
	jmp	.L229
.L265:
	movq	%rax, %rbx
.L229:
	leaq	-64(%rbp), %rax
	movq	%rax, %rcx
	call	_ZNSt7__cxx1112basic_stringIcSt11char_traitsIcESaIcEED1Ev
	jmp	.L227
.L268:
	movq	%rax, %rbx
	leaq	112(%rbp), %rax
	movq	%rax, %rcx
	call	_ZNSt7__cxx1112basic_stringIcSt11char_traitsIcESaIcEED1Ev
	jmp	.L231
.L267:
	movq	%rax, %rbx
.L231:
	leaq	-64(%rbp), %rax
	movq	%rax, %rcx
	call	_ZNSt7__cxx1112basic_stringIcSt11char_traitsIcESaIcEED1Ev
	jmp	.L227
.L273:
	movq	%rax, %rbx
	leaq	144(%rbp), %rax
	movq	%rax, %rcx
	call	_ZNSt7__cxx1112basic_stringIcSt11char_traitsIcESaIcEED1Ev
	jmp	.L233
.L272:
	movq	%rax, %rbx
.L233:
	leaq	176(%rbp), %rax
	movq	%rax, %rcx
	call	_ZNSt7__cxx1112basic_stringIcSt11char_traitsIcESaIcEED1Ev
	jmp	.L234
.L271:
	movq	%rax, %rbx
.L234:
	leaq	208(%rbp), %rax
	movq	%rax, %rcx
	call	_ZNSt7__cxx1112basic_stringIcSt11char_traitsIcESaIcEED1Ev
	jmp	.L235
.L276:
	movq	%rax, %rbx
	leaq	240(%rbp), %rax
	movq	%rax, %rcx
	call	_ZNSt7__cxx1112basic_stringIcSt11char_traitsIcESaIcEED1Ev
	jmp	.L237
.L275:
	movq	%rax, %rbx
.L237:
	leaq	272(%rbp), %rax
	movq	%rax, %rcx
	call	_ZNSt7__cxx1112basic_stringIcSt11char_traitsIcESaIcEED1Ev
	jmp	.L238
.L274:
	movq	%rax, %rbx
.L238:
	leaq	304(%rbp), %rax
	movq	%rax, %rcx
	call	_ZNSt7__cxx1112basic_stringIcSt11char_traitsIcESaIcEED1Ev
	jmp	.L235
.L270:
	movq	%rax, %rbx
.L235:
	leaq	-64(%rbp), %rax
	movq	%rax, %rcx
	call	_ZNSt7__cxx1112basic_stringIcSt11char_traitsIcESaIcEED1Ev
	jmp	.L239
.L269:
	movq	%rax, %rbx
.L239:
	leaq	-96(%rbp), %rax
	movq	%rax, %rcx
	call	_ZNSt7__cxx1112basic_stringIcSt11char_traitsIcESaIcEED1Ev
	jmp	.L227
.L278:
	movq	%rax, %rbx
	leaq	336(%rbp), %rax
	movq	%rax, %rcx
	call	_ZNSt7__cxx1112basic_stringIcSt11char_traitsIcESaIcEED1Ev
	jmp	.L241
.L279:
	movq	%rax, %rbx
	leaq	368(%rbp), %rax
	movq	%rax, %rcx
	call	_ZNSt7__cxx1112basic_stringIcSt11char_traitsIcESaIcEED1Ev
	jmp	.L241
.L277:
	movq	%rax, %rbx
.L241:
	leaq	-64(%rbp), %rax
	movq	%rax, %rcx
	call	_ZNSt7__cxx1112basic_stringIcSt11char_traitsIcESaIcEED1Ev
	jmp	.L227
.L280:
	movq	%rax, %rbx
	leaq	400(%rbp), %rax
	movq	%rax, %rcx
	call	_ZNSt7__cxx1112basic_stringIcSt11char_traitsIcESaIcEED1Ev
	jmp	.L227
.L281:
	movq	%rax, %rbx
	leaq	432(%rbp), %rax
	movq	%rax, %rcx
	call	_ZNSt7__cxx1112basic_stringIcSt11char_traitsIcESaIcEED1Ev
	jmp	.L227
.L282:
	movq	%rax, %rbx
	leaq	464(%rbp), %rax
	movq	%rax, %rcx
	call	_ZNSt7__cxx1112basic_stringIcSt11char_traitsIcESaIcEED1Ev
	jmp	.L227
.L283:
	movq	%rax, %rbx
	leaq	496(%rbp), %rax
	movq	%rax, %rcx
	call	_ZNSt7__cxx1112basic_stringIcSt11char_traitsIcESaIcEED1Ev
	jmp	.L227
.L284:
	movq	%rax, %rbx
	leaq	542(%rbp), %rax
	movq	%rax, %rcx
	call	_ZNSt15__new_allocatorIcED2Ev
	nop
	jmp	.L227
.L285:
	movq	%rax, %rbx
	leaq	543(%rbp), %rax
	movq	%rax, %rcx
	call	_ZNSt15__new_allocatorIcED2Ev
	nop
	jmp	.L227
.L294:
	movq	%rax, %rbx
	leaq	544(%rbp), %rax
	movq	%rax, %rcx
	call	_ZNSt7__cxx1112basic_stringIcSt11char_traitsIcESaIcEED1Ev
	jmp	.L250
.L293:
	movq	%rax, %rbx
.L250:
	leaq	576(%rbp), %rax
	movq	%rax, %rcx
	call	_ZNSt7__cxx1112basic_stringIcSt11char_traitsIcESaIcEED1Ev
	jmp	.L251
.L292:
	movq	%rax, %rbx
.L251:
	leaq	608(%rbp), %rax
	movq	%rax, %rcx
	call	_ZNSt7__cxx1112basic_stringIcSt11char_traitsIcESaIcEED1Ev
	jmp	.L252
.L291:
	movq	%rax, %rbx
.L252:
	leaq	640(%rbp), %rax
	movq	%rax, %rcx
	call	_ZNSt7__cxx1112basic_stringIcSt11char_traitsIcESaIcEED1Ev
	jmp	.L253
.L290:
	movq	%rax, %rbx
.L253:
	leaq	672(%rbp), %rax
	movq	%rax, %rcx
	call	_ZNSt7__cxx1112basic_stringIcSt11char_traitsIcESaIcEED1Ev
	jmp	.L254
.L289:
	movq	%rax, %rbx
.L254:
	leaq	704(%rbp), %rax
	movq	%rax, %rcx
	call	_ZNSt7__cxx1112basic_stringIcSt11char_traitsIcESaIcEED1Ev
	jmp	.L255
.L288:
	movq	%rax, %rbx
.L255:
	leaq	736(%rbp), %rax
	movq	%rax, %rcx
	call	_ZNSt7__cxx1112basic_stringIcSt11char_traitsIcESaIcEED1Ev
	jmp	.L256
.L287:
	movq	%rax, %rbx
.L256:
	leaq	768(%rbp), %rax
	movq	%rax, %rcx
	call	_ZNSt7__cxx1112basic_stringIcSt11char_traitsIcESaIcEED1Ev
	jmp	.L257
.L286:
	movq	%rax, %rbx
.L257:
	leaq	800(%rbp), %rax
	movq	%rax, %rcx
	call	_ZNSt7__cxx1112basic_stringIcSt11char_traitsIcESaIcEED1Ev
	jmp	.L227
.L295:
	movq	%rax, %rbx
	leaq	847(%rbp), %rax
	movq	%rax, %rcx
	call	_ZNSt15__new_allocatorIcED2Ev
	nop
	jmp	.L227
.L296:
	movq	%rax, %rbx
	leaq	848(%rbp), %rax
	movq	%rax, %rcx
	call	_ZNSt7__cxx1112basic_stringIcSt11char_traitsIcESaIcEED1Ev
	jmp	.L260
.L299:
	movq	%rax, %rbx
	leaq	880(%rbp), %rax
	movq	%rax, %rcx
	call	_ZNSt7__cxx1112basic_stringIcSt11char_traitsIcESaIcEED1Ev
	jmp	.L262
.L298:
	movq	%rax, %rbx
.L262:
	leaq	912(%rbp), %rax
	movq	%rax, %rcx
	call	_ZNSt7__cxx1112basic_stringIcSt11char_traitsIcESaIcEED1Ev
	jmp	.L260
.L297:
	movq	%rax, %rbx
.L260:
	leaq	-16(%rbp), %rax
	movq	%rax, %rcx
	call	_ZNSt7__cxx1112basic_stringIcSt11char_traitsIcESaIcEED1Ev
	jmp	.L227
.L264:
	movq	%rax, %rbx
.L227:
	leaq	16(%rbp), %rax
	movq	%rax, %rcx
	call	_ZNSt6vectorINSt7__cxx1112basic_stringIcSt11char_traitsIcESaIcEEESaIS5_EED1Ev
	movq	%rbx, %rax
	movq	%rax, %rcx
.LEHB77:
	call	_Unwind_Resume
.LEHE77:
.L300:
	movq	1040(%rbp), %rax
	addq	$1120, %rsp
	popq	%rbx
	popq	%rsi
	popq	%rdi
	popq	%r12
	popq	%rbp
	ret
	.seh_handler	__gxx_personality_seh0, @unwind, @except
	.seh_handlerdata
.LLSDA3958:
	.byte	0xff
	.byte	0xff
	.byte	0x1
	.uleb128 .LLSDACSE3958-.LLSDACSB3958
.LLSDACSB3958:
	.uleb128 .LEHB26-.LFB3958
	.uleb128 .LEHE26-.LEHB26
	.uleb128 .L264-.LFB3958
	.uleb128 0
	.uleb128 .LEHB27-.LFB3958
	.uleb128 .LEHE27-.LEHB27
	.uleb128 .L263-.LFB3958
	.uleb128 0
	.uleb128 .LEHB28-.LFB3958
	.uleb128 .LEHE28-.LEHB28
	.uleb128 .L264-.LFB3958
	.uleb128 0
	.uleb128 .LEHB29-.LFB3958
	.uleb128 .LEHE29-.LEHB29
	.uleb128 .L265-.LFB3958
	.uleb128 0
	.uleb128 .LEHB30-.LFB3958
	.uleb128 .LEHE30-.LEHB30
	.uleb128 .L266-.LFB3958
	.uleb128 0
	.uleb128 .LEHB31-.LFB3958
	.uleb128 .LEHE31-.LEHB31
	.uleb128 .L264-.LFB3958
	.uleb128 0
	.uleb128 .LEHB32-.LFB3958
	.uleb128 .LEHE32-.LEHB32
	.uleb128 .L267-.LFB3958
	.uleb128 0
	.uleb128 .LEHB33-.LFB3958
	.uleb128 .LEHE33-.LEHB33
	.uleb128 .L268-.LFB3958
	.uleb128 0
	.uleb128 .LEHB34-.LFB3958
	.uleb128 .LEHE34-.LEHB34
	.uleb128 .L264-.LFB3958
	.uleb128 0
	.uleb128 .LEHB35-.LFB3958
	.uleb128 .LEHE35-.LEHB35
	.uleb128 .L269-.LFB3958
	.uleb128 0
	.uleb128 .LEHB36-.LFB3958
	.uleb128 .LEHE36-.LEHB36
	.uleb128 .L270-.LFB3958
	.uleb128 0
	.uleb128 .LEHB37-.LFB3958
	.uleb128 .LEHE37-.LEHB37
	.uleb128 .L271-.LFB3958
	.uleb128 0
	.uleb128 .LEHB38-.LFB3958
	.uleb128 .LEHE38-.LEHB38
	.uleb128 .L272-.LFB3958
	.uleb128 0
	.uleb128 .LEHB39-.LFB3958
	.uleb128 .LEHE39-.LEHB39
	.uleb128 .L273-.LFB3958
	.uleb128 0
	.uleb128 .LEHB40-.LFB3958
	.uleb128 .LEHE40-.LEHB40
	.uleb128 .L270-.LFB3958
	.uleb128 0
	.uleb128 .LEHB41-.LFB3958
	.uleb128 .LEHE41-.LEHB41
	.uleb128 .L274-.LFB3958
	.uleb128 0
	.uleb128 .LEHB42-.LFB3958
	.uleb128 .LEHE42-.LEHB42
	.uleb128 .L275-.LFB3958
	.uleb128 0
	.uleb128 .LEHB43-.LFB3958
	.uleb128 .LEHE43-.LEHB43
	.uleb128 .L276-.LFB3958
	.uleb128 0
	.uleb128 .LEHB44-.LFB3958
	.uleb128 .LEHE44-.LEHB44
	.uleb128 .L264-.LFB3958
	.uleb128 0
	.uleb128 .LEHB45-.LFB3958
	.uleb128 .LEHE45-.LEHB45
	.uleb128 .L277-.LFB3958
	.uleb128 0
	.uleb128 .LEHB46-.LFB3958
	.uleb128 .LEHE46-.LEHB46
	.uleb128 .L278-.LFB3958
	.uleb128 0
	.uleb128 .LEHB47-.LFB3958
	.uleb128 .LEHE47-.LEHB47
	.uleb128 .L277-.LFB3958
	.uleb128 0
	.uleb128 .LEHB48-.LFB3958
	.uleb128 .LEHE48-.LEHB48
	.uleb128 .L279-.LFB3958
	.uleb128 0
	.uleb128 .LEHB49-.LFB3958
	.uleb128 .LEHE49-.LEHB49
	.uleb128 .L264-.LFB3958
	.uleb128 0
	.uleb128 .LEHB50-.LFB3958
	.uleb128 .LEHE50-.LEHB50
	.uleb128 .L280-.LFB3958
	.uleb128 0
	.uleb128 .LEHB51-.LFB3958
	.uleb128 .LEHE51-.LEHB51
	.uleb128 .L264-.LFB3958
	.uleb128 0
	.uleb128 .LEHB52-.LFB3958
	.uleb128 .LEHE52-.LEHB52
	.uleb128 .L281-.LFB3958
	.uleb128 0
	.uleb128 .LEHB53-.LFB3958
	.uleb128 .LEHE53-.LEHB53
	.uleb128 .L264-.LFB3958
	.uleb128 0
	.uleb128 .LEHB54-.LFB3958
	.uleb128 .LEHE54-.LEHB54
	.uleb128 .L282-.LFB3958
	.uleb128 0
	.uleb128 .LEHB55-.LFB3958
	.uleb128 .LEHE55-.LEHB55
	.uleb128 .L264-.LFB3958
	.uleb128 0
	.uleb128 .LEHB56-.LFB3958
	.uleb128 .LEHE56-.LEHB56
	.uleb128 .L283-.LFB3958
	.uleb128 0
	.uleb128 .LEHB57-.LFB3958
	.uleb128 .LEHE57-.LEHB57
	.uleb128 .L264-.LFB3958
	.uleb128 0
	.uleb128 .LEHB58-.LFB3958
	.uleb128 .LEHE58-.LEHB58
	.uleb128 .L284-.LFB3958
	.uleb128 0
	.uleb128 .LEHB59-.LFB3958
	.uleb128 .LEHE59-.LEHB59
	.uleb128 .L264-.LFB3958
	.uleb128 0
	.uleb128 .LEHB60-.LFB3958
	.uleb128 .LEHE60-.LEHB60
	.uleb128 .L285-.LFB3958
	.uleb128 0
	.uleb128 .LEHB61-.LFB3958
	.uleb128 .LEHE61-.LEHB61
	.uleb128 .L264-.LFB3958
	.uleb128 0
	.uleb128 .LEHB62-.LFB3958
	.uleb128 .LEHE62-.LEHB62
	.uleb128 .L286-.LFB3958
	.uleb128 0
	.uleb128 .LEHB63-.LFB3958
	.uleb128 .LEHE63-.LEHB63
	.uleb128 .L287-.LFB3958
	.uleb128 0
	.uleb128 .LEHB64-.LFB3958
	.uleb128 .LEHE64-.LEHB64
	.uleb128 .L288-.LFB3958
	.uleb128 0
	.uleb128 .LEHB65-.LFB3958
	.uleb128 .LEHE65-.LEHB65
	.uleb128 .L289-.LFB3958
	.uleb128 0
	.uleb128 .LEHB66-.LFB3958
	.uleb128 .LEHE66-.LEHB66
	.uleb128 .L290-.LFB3958
	.uleb128 0
	.uleb128 .LEHB67-.LFB3958
	.uleb128 .LEHE67-.LEHB67
	.uleb128 .L291-.LFB3958
	.uleb128 0
	.uleb128 .LEHB68-.LFB3958
	.uleb128 .LEHE68-.LEHB68
	.uleb128 .L292-.LFB3958
	.uleb128 0
	.uleb128 .LEHB69-.LFB3958
	.uleb128 .LEHE69-.LEHB69
	.uleb128 .L293-.LFB3958
	.uleb128 0
	.uleb128 .LEHB70-.LFB3958
	.uleb128 .LEHE70-.LEHB70
	.uleb128 .L294-.LFB3958
	.uleb128 0
	.uleb128 .LEHB71-.LFB3958
	.uleb128 .LEHE71-.LEHB71
	.uleb128 .L295-.LFB3958
	.uleb128 0
	.uleb128 .LEHB72-.LFB3958
	.uleb128 .LEHE72-.LEHB72
	.uleb128 .L297-.LFB3958
	.uleb128 0
	.uleb128 .LEHB73-.LFB3958
	.uleb128 .LEHE73-.LEHB73
	.uleb128 .L296-.LFB3958
	.uleb128 0
	.uleb128 .LEHB74-.LFB3958
	.uleb128 .LEHE74-.LEHB74
	.uleb128 .L297-.LFB3958
	.uleb128 0
	.uleb128 .LEHB75-.LFB3958
	.uleb128 .LEHE75-.LEHB75
	.uleb128 .L298-.LFB3958
	.uleb128 0
	.uleb128 .LEHB76-.LFB3958
	.uleb128 .LEHE76-.LEHB76
	.uleb128 .L299-.LFB3958
	.uleb128 0
	.uleb128 .LEHB77-.LFB3958
	.uleb128 .LEHE77-.LEHB77
	.uleb128 0
	.uleb128 0
.LLSDACSE3958:
	.section	.text$_ZN16FunctionCallNode5toCppB5cxx11Ev,"x"
	.linkonce discard
	.seh_endproc
	.section	.text$_ZN11LiteralNodeC1ERKNSt7__cxx1112basic_stringIcSt11char_traitsIcESaIcEEERKb,"x"
	.linkonce discard
	.align 2
	.globl	_ZN11LiteralNodeC1ERKNSt7__cxx1112basic_stringIcSt11char_traitsIcESaIcEEERKb
	.def	_ZN11LiteralNodeC1ERKNSt7__cxx1112basic_stringIcSt11char_traitsIcESaIcEEERKb;	.scl	2;	.type	32;	.endef
	.seh_proc	_ZN11LiteralNodeC1ERKNSt7__cxx1112basic_stringIcSt11char_traitsIcESaIcEEERKb
_ZN11LiteralNodeC1ERKNSt7__cxx1112basic_stringIcSt11char_traitsIcESaIcEEERKb:
.LFB3961:
	pushq	%rbp
	.seh_pushreg	%rbp
	pushq	%rbx
	.seh_pushreg	%rbx
	subq	$40, %rsp
	.seh_stackalloc	40
	leaq	32(%rsp), %rbp
	.seh_setframe	%rbp, 32
	.seh_endprologue
	movq	%rcx, 32(%rbp)
	movq	%rdx, 40(%rbp)
	movq	%r8, 48(%rbp)
	movq	32(%rbp), %rax
	movq	%rax, %rcx
	call	_ZN7ASTNodeC2Ev
	leaq	16+_ZTV11LiteralNode(%rip), %rdx
	movq	32(%rbp), %rax
	movq	%rdx, (%rax)
	movq	32(%rbp), %rax
	leaq	8(%rax), %rcx
	movq	40(%rbp), %rax
	movq	%rax, %rdx
.LEHB78:
	call	_ZNSt7__cxx1112basic_stringIcSt11char_traitsIcESaIcEEC1ERKS4_
.LEHE78:
	movq	48(%rbp), %rax
	movzbl	(%rax), %edx
	movq	32(%rbp), %rax
	movb	%dl, 40(%rax)
	jmp	.L304
.L303:
	movq	%rax, %rbx
	movq	32(%rbp), %rax
	movq	%rax, %rcx
	call	_ZN7ASTNodeD2Ev
	movq	%rbx, %rax
	movq	%rax, %rcx
.LEHB79:
	call	_Unwind_Resume
	nop
.LEHE79:
.L304:
	addq	$40, %rsp
	popq	%rbx
	popq	%rbp
	ret
	.seh_handler	__gxx_personality_seh0, @unwind, @except
	.seh_handlerdata
.LLSDA3961:
	.byte	0xff
	.byte	0xff
	.byte	0x1
	.uleb128 .LLSDACSE3961-.LLSDACSB3961
.LLSDACSB3961:
	.uleb128 .LEHB78-.LFB3961
	.uleb128 .LEHE78-.LEHB78
	.uleb128 .L303-.LFB3961
	.uleb128 0
	.uleb128 .LEHB79-.LFB3961
	.uleb128 .LEHE79-.LEHB79
	.uleb128 0
	.uleb128 0
.LLSDACSE3961:
	.section	.text$_ZN11LiteralNodeC1ERKNSt7__cxx1112basic_stringIcSt11char_traitsIcESaIcEEERKb,"x"
	.linkonce discard
	.seh_endproc
	.section .rdata,"dr"
.LC43:
	.ascii "F(\0"
	.section	.text$_ZN11LiteralNode5toCppB5cxx11Ev,"x"
	.linkonce discard
	.align 2
	.globl	_ZN11LiteralNode5toCppB5cxx11Ev
	.def	_ZN11LiteralNode5toCppB5cxx11Ev;	.scl	2;	.type	32;	.endef
	.seh_proc	_ZN11LiteralNode5toCppB5cxx11Ev
_ZN11LiteralNode5toCppB5cxx11Ev:
.LFB3962:
	pushq	%rbp
	.seh_pushreg	%rbp
	pushq	%rbx
	.seh_pushreg	%rbx
	subq	$72, %rsp
	.seh_stackalloc	72
	leaq	64(%rsp), %rbp
	.seh_setframe	%rbp, 64
	.seh_endprologue
	movq	%rcx, 32(%rbp)
	movq	%rdx, 40(%rbp)
	movq	40(%rbp), %rax
	movzbl	40(%rax), %eax
	testb	%al, %al
	je	.L306
	movq	40(%rbp), %rax
	leaq	8(%rax), %rdx
	leaq	-32(%rbp), %rax
	movq	%rdx, %r8
	leaq	.LC43(%rip), %rdx
	movq	%rax, %rcx
.LEHB80:
	call	_ZStplIcSt11char_traitsIcESaIcEENSt7__cxx1112basic_stringIT_T0_T1_EEPKS5_RKS8_
.LEHE80:
	movq	32(%rbp), %rax
	leaq	-32(%rbp), %rdx
	leaq	.LC25(%rip), %r8
	movq	%rax, %rcx
.LEHB81:
	call	_ZStplIcSt11char_traitsIcESaIcEENSt7__cxx1112basic_stringIT_T0_T1_EEOS8_PKS5_
.LEHE81:
	nop
	leaq	-32(%rbp), %rax
	movq	%rax, %rcx
	call	_ZNSt7__cxx1112basic_stringIcSt11char_traitsIcESaIcEED1Ev
	jmp	.L305
.L306:
	movq	40(%rbp), %rax
	leaq	8(%rax), %rdx
	movq	32(%rbp), %rax
	movq	%rax, %rcx
.LEHB82:
	call	_ZNSt7__cxx1112basic_stringIcSt11char_traitsIcESaIcEEC1ERKS4_
	jmp	.L305
.L309:
	movq	%rax, %rbx
	leaq	-32(%rbp), %rax
	movq	%rax, %rcx
	call	_ZNSt7__cxx1112basic_stringIcSt11char_traitsIcESaIcEED1Ev
	movq	%rbx, %rax
	movq	%rax, %rcx
	call	_Unwind_Resume
.LEHE82:
.L305:
	movq	32(%rbp), %rax
	addq	$72, %rsp
	popq	%rbx
	popq	%rbp
	ret
	.seh_handler	__gxx_personality_seh0, @unwind, @except
	.seh_handlerdata
.LLSDA3962:
	.byte	0xff
	.byte	0xff
	.byte	0x1
	.uleb128 .LLSDACSE3962-.LLSDACSB3962
.LLSDACSB3962:
	.uleb128 .LEHB80-.LFB3962
	.uleb128 .LEHE80-.LEHB80
	.uleb128 0
	.uleb128 0
	.uleb128 .LEHB81-.LFB3962
	.uleb128 .LEHE81-.LEHB81
	.uleb128 .L309-.LFB3962
	.uleb128 0
	.uleb128 .LEHB82-.LFB3962
	.uleb128 .LEHE82-.LEHB82
	.uleb128 0
	.uleb128 0
.LLSDACSE3962:
	.section	.text$_ZN11LiteralNode5toCppB5cxx11Ev,"x"
	.linkonce discard
	.seh_endproc
	.section	.text$_ZNSt15__uniq_ptr_dataI7ASTNodeSt14default_deleteIS0_ELb1ELb1EEC1EOS3_,"x"
	.linkonce discard
	.align 2
	.globl	_ZNSt15__uniq_ptr_dataI7ASTNodeSt14default_deleteIS0_ELb1ELb1EEC1EOS3_
	.def	_ZNSt15__uniq_ptr_dataI7ASTNodeSt14default_deleteIS0_ELb1ELb1EEC1EOS3_;	.scl	2;	.type	32;	.endef
	.seh_proc	_ZNSt15__uniq_ptr_dataI7ASTNodeSt14default_deleteIS0_ELb1ELb1EEC1EOS3_
_ZNSt15__uniq_ptr_dataI7ASTNodeSt14default_deleteIS0_ELb1ELb1EEC1EOS3_:
.LFB3967:
	pushq	%rbp
	.seh_pushreg	%rbp
	movq	%rsp, %rbp
	.seh_setframe	%rbp, 0
	subq	$32, %rsp
	.seh_stackalloc	32
	.seh_endprologue
	movq	%rcx, 16(%rbp)
	movq	%rdx, 24(%rbp)
	movq	16(%rbp), %rax
	movq	24(%rbp), %rdx
	movq	%rax, %rcx
	call	_ZNSt15__uniq_ptr_implI7ASTNodeSt14default_deleteIS0_EEC2EOS3_
	nop
	addq	$32, %rsp
	popq	%rbp
	ret
	.seh_endproc
	.section	.text$_ZNSt10unique_ptrI7ASTNodeSt14default_deleteIS0_EEC1EOS3_,"x"
	.linkonce discard
	.align 2
	.globl	_ZNSt10unique_ptrI7ASTNodeSt14default_deleteIS0_EEC1EOS3_
	.def	_ZNSt10unique_ptrI7ASTNodeSt14default_deleteIS0_EEC1EOS3_;	.scl	2;	.type	32;	.endef
	.seh_proc	_ZNSt10unique_ptrI7ASTNodeSt14default_deleteIS0_EEC1EOS3_
_ZNSt10unique_ptrI7ASTNodeSt14default_deleteIS0_EEC1EOS3_:
.LFB3969:
	pushq	%rbp
	.seh_pushreg	%rbp
	movq	%rsp, %rbp
	.seh_setframe	%rbp, 0
	subq	$32, %rsp
	.seh_stackalloc	32
	.seh_endprologue
	movq	%rcx, 16(%rbp)
	movq	%rdx, 24(%rbp)
	movq	16(%rbp), %rax
	movq	24(%rbp), %rdx
	movq	%rax, %rcx
	call	_ZNSt15__uniq_ptr_dataI7ASTNodeSt14default_deleteIS0_ELb1ELb1EEC1EOS3_
	nop
	addq	$32, %rsp
	popq	%rbp
	ret
	.seh_endproc
	.section	.text$_ZNSt12_Vector_baseISt10unique_ptrI7ASTNodeSt14default_deleteIS1_EESaIS4_EEC2Ev,"x"
	.linkonce discard
	.align 2
	.globl	_ZNSt12_Vector_baseISt10unique_ptrI7ASTNodeSt14default_deleteIS1_EESaIS4_EEC2Ev
	.def	_ZNSt12_Vector_baseISt10unique_ptrI7ASTNodeSt14default_deleteIS1_EESaIS4_EEC2Ev;	.scl	2;	.type	32;	.endef
	.seh_proc	_ZNSt12_Vector_baseISt10unique_ptrI7ASTNodeSt14default_deleteIS1_EESaIS4_EEC2Ev
_ZNSt12_Vector_baseISt10unique_ptrI7ASTNodeSt14default_deleteIS1_EESaIS4_EEC2Ev:
.LFB3977:
	pushq	%rbp
	.seh_pushreg	%rbp
	movq	%rsp, %rbp
	.seh_setframe	%rbp, 0
	subq	$32, %rsp
	.seh_stackalloc	32
	.seh_endprologue
	movq	%rcx, 16(%rbp)
	movq	16(%rbp), %rax
	movq	%rax, %rcx
	call	_ZNSt12_Vector_baseISt10unique_ptrI7ASTNodeSt14default_deleteIS1_EESaIS4_EE12_Vector_implC1Ev
	nop
	addq	$32, %rsp
	popq	%rbp
	ret
	.seh_endproc
	.section	.text$_ZNSt6vectorISt10unique_ptrI7ASTNodeSt14default_deleteIS1_EESaIS4_EEC1Ev,"x"
	.linkonce discard
	.align 2
	.globl	_ZNSt6vectorISt10unique_ptrI7ASTNodeSt14default_deleteIS1_EESaIS4_EEC1Ev
	.def	_ZNSt6vectorISt10unique_ptrI7ASTNodeSt14default_deleteIS1_EESaIS4_EEC1Ev;	.scl	2;	.type	32;	.endef
	.seh_proc	_ZNSt6vectorISt10unique_ptrI7ASTNodeSt14default_deleteIS1_EESaIS4_EEC1Ev
_ZNSt6vectorISt10unique_ptrI7ASTNodeSt14default_deleteIS1_EESaIS4_EEC1Ev:
.LFB3980:
	pushq	%rbp
	.seh_pushreg	%rbp
	movq	%rsp, %rbp
	.seh_setframe	%rbp, 0
	subq	$32, %rsp
	.seh_stackalloc	32
	.seh_endprologue
	movq	%rcx, 16(%rbp)
	movq	16(%rbp), %rax
	movq	%rax, %rcx
	call	_ZNSt12_Vector_baseISt10unique_ptrI7ASTNodeSt14default_deleteIS1_EESaIS4_EEC2Ev
	nop
	addq	$32, %rsp
	popq	%rbp
	ret
	.seh_endproc
	.section	.text$_ZNSt10error_codeC1EiRKNSt3_V214error_categoryE,"x"
	.linkonce discard
	.align 2
	.globl	_ZNSt10error_codeC1EiRKNSt3_V214error_categoryE
	.def	_ZNSt10error_codeC1EiRKNSt3_V214error_categoryE;	.scl	2;	.type	32;	.endef
	.seh_proc	_ZNSt10error_codeC1EiRKNSt3_V214error_categoryE
_ZNSt10error_codeC1EiRKNSt3_V214error_categoryE:
.LFB4070:
	pushq	%rbp
	.seh_pushreg	%rbp
	movq	%rsp, %rbp
	.seh_setframe	%rbp, 0
	.seh_endprologue
	movq	%rcx, 16(%rbp)
	movl	%edx, 24(%rbp)
	movq	%r8, 32(%rbp)
	movq	16(%rbp), %rax
	movl	24(%rbp), %edx
	movl	%edx, (%rax)
	movq	16(%rbp), %rax
	movq	32(%rbp), %rdx
	movq	%rdx, 8(%rax)
	nop
	popq	%rbp
	ret
	.seh_endproc
	.section	.text$_ZSt15make_error_codeSt4errc,"x"
	.linkonce discard
	.globl	_ZSt15make_error_codeSt4errc
	.def	_ZSt15make_error_codeSt4errc;	.scl	2;	.type	32;	.endef
	.seh_proc	_ZSt15make_error_codeSt4errc
_ZSt15make_error_codeSt4errc:
.LFB4078:
	pushq	%rbp
	.seh_pushreg	%rbp
	movq	%rsp, %rbp
	.seh_setframe	%rbp, 0
	subq	$32, %rsp
	.seh_stackalloc	32
	.seh_endprologue
	movq	%rcx, 16(%rbp)
	movl	%edx, 24(%rbp)
	call	_ZNSt3_V216generic_categoryEv
	movq	%rax, %rcx
	movl	24(%rbp), %edx
	movq	16(%rbp), %rax
	movq	%rcx, %r8
	movq	%rax, %rcx
	call	_ZNSt10error_codeC1EiRKNSt3_V214error_categoryE
	movq	16(%rbp), %rax
	addq	$32, %rsp
	popq	%rbp
	ret
	.seh_endproc
	.section	.text$_ZNSt25__codecvt_utf8_utf16_baseIwEC2EmSt12codecvt_modey,"x"
	.linkonce discard
	.align 2
	.globl	_ZNSt25__codecvt_utf8_utf16_baseIwEC2EmSt12codecvt_modey
	.def	_ZNSt25__codecvt_utf8_utf16_baseIwEC2EmSt12codecvt_modey;	.scl	2;	.type	32;	.endef
	.seh_proc	_ZNSt25__codecvt_utf8_utf16_baseIwEC2EmSt12codecvt_modey
_ZNSt25__codecvt_utf8_utf16_baseIwEC2EmSt12codecvt_modey:
.LFB5300:
	pushq	%rbp
	.seh_pushreg	%rbp
	movq	%rsp, %rbp
	.seh_setframe	%rbp, 0
	subq	$32, %rsp
	.seh_stackalloc	32
	.seh_endprologue
	movq	%rcx, 16(%rbp)
	movl	%edx, 24(%rbp)
	movl	%r8d, 32(%rbp)
	movq	%r9, 40(%rbp)
	movq	16(%rbp), %rax
	movq	40(%rbp), %rdx
	movq	%rax, %rcx
	call	_ZNSt7codecvtIwc9_MbstatetEC2Ey
	movq	.refptr._ZTVSt25__codecvt_utf8_utf16_baseIwE(%rip), %rax
	leaq	16(%rax), %rdx
	movq	16(%rbp), %rax
	movq	%rdx, (%rax)
	movq	16(%rbp), %rax
	movl	24(%rbp), %edx
	movl	%edx, 24(%rax)
	movq	16(%rbp), %rax
	movl	32(%rbp), %edx
	movl	%edx, 28(%rax)
	nop
	addq	$32, %rsp
	popq	%rbp
	ret
	.seh_endproc
	.section	.text$_ZNSt10filesystem7__cxx114path5_ListD1Ev,"x"
	.linkonce discard
	.align 2
	.globl	_ZNSt10filesystem7__cxx114path5_ListD1Ev
	.def	_ZNSt10filesystem7__cxx114path5_ListD1Ev;	.scl	2;	.type	32;	.endef
	.seh_proc	_ZNSt10filesystem7__cxx114path5_ListD1Ev
_ZNSt10filesystem7__cxx114path5_ListD1Ev:
.LFB5318:
	pushq	%rbp
	.seh_pushreg	%rbp
	movq	%rsp, %rbp
	.seh_setframe	%rbp, 0
	subq	$32, %rsp
	.seh_stackalloc	32
	.seh_endprologue
	movq	%rcx, 16(%rbp)
	movq	16(%rbp), %rax
	movq	%rax, %rcx
	call	_ZNSt10unique_ptrINSt10filesystem7__cxx114path5_List5_ImplENS3_13_Impl_deleterEED1Ev
	nop
	addq	$32, %rsp
	popq	%rbp
	ret
	.seh_endproc
	.section	.text$_ZNSt10filesystem7__cxx114pathD1Ev,"x"
	.linkonce discard
	.align 2
	.globl	_ZNSt10filesystem7__cxx114pathD1Ev
	.def	_ZNSt10filesystem7__cxx114pathD1Ev;	.scl	2;	.type	32;	.endef
	.seh_proc	_ZNSt10filesystem7__cxx114pathD1Ev
_ZNSt10filesystem7__cxx114pathD1Ev:
.LFB5320:
	pushq	%rbp
	.seh_pushreg	%rbp
	movq	%rsp, %rbp
	.seh_setframe	%rbp, 0
	subq	$32, %rsp
	.seh_stackalloc	32
	.seh_endprologue
	movq	%rcx, 16(%rbp)
	movq	16(%rbp), %rax
	addq	$32, %rax
	movq	%rax, %rcx
	call	_ZNSt10filesystem7__cxx114path5_ListD1Ev
	movq	16(%rbp), %rax
	movq	%rax, %rcx
	call	_ZNSt7__cxx1112basic_stringIwSt11char_traitsIwESaIwEED1Ev
	nop
	addq	$32, %rsp
	popq	%rbp
	ret
	.seh_endproc
	.section .rdata,"dr"
	.align 8
.LC44:
	.ascii "Cannot convert character sequence\0"
	.section	.text$_ZNSt10filesystem7__cxx118__detail24__throw_conversion_errorEv,"x"
	.linkonce discard
	.globl	_ZNSt10filesystem7__cxx118__detail24__throw_conversion_errorEv
	.def	_ZNSt10filesystem7__cxx118__detail24__throw_conversion_errorEv;	.scl	2;	.type	32;	.endef
	.seh_proc	_ZNSt10filesystem7__cxx118__detail24__throw_conversion_errorEv
_ZNSt10filesystem7__cxx118__detail24__throw_conversion_errorEv:
.LFB5377:
	pushq	%rbp
	.seh_pushreg	%rbp
	pushq	%rsi
	.seh_pushreg	%rsi
	pushq	%rbx
	.seh_pushreg	%rbx
	subq	$112, %rsp
	.seh_stackalloc	112
	leaq	112(%rsp), %rbp
	.seh_setframe	%rbp, 112
	.seh_endprologue
	movl	$48, %ecx
	call	__cxa_allocate_exception
	movq	%rax, %rbx
	leaq	-64(%rbp), %rax
	movl	$42, %edx
	movq	%rax, %rcx
	call	_ZSt15make_error_codeSt4errc
	leaq	-9(%rbp), %rax
	movq	%rax, -8(%rbp)
	nop
	nop
	leaq	-9(%rbp), %rdx
	leaq	-48(%rbp), %rax
	movq	%rdx, %r8
	leaq	.LC44(%rip), %rdx
	movq	%rax, %rcx
.LEHB83:
	call	_ZNSt7__cxx1112basic_stringIcSt11char_traitsIcESaIcEEC1IS3_EEPKcRKS3_
.LEHE83:
	movq	-64(%rbp), %rax
	movq	-56(%rbp), %rdx
	movq	%rax, -80(%rbp)
	movq	%rdx, -72(%rbp)
	leaq	-80(%rbp), %rdx
	leaq	-48(%rbp), %rax
	movq	%rdx, %r8
	movq	%rax, %rdx
	movq	%rbx, %rcx
.LEHB84:
	call	_ZNSt10filesystem7__cxx1116filesystem_errorC1ERKNSt7__cxx1112basic_stringIcSt11char_traitsIcESaIcEEESt10error_code
.LEHE84:
	leaq	-48(%rbp), %rax
	movq	%rax, %rcx
	call	_ZNSt7__cxx1112basic_stringIcSt11char_traitsIcESaIcEED1Ev
	leaq	-9(%rbp), %rax
	movq	%rax, %rcx
	call	_ZNSt15__new_allocatorIcED2Ev
	nop
	movq	.refptr._ZNSt10filesystem7__cxx1116filesystem_errorD1Ev(%rip), %r8
	leaq	_ZTINSt10filesystem7__cxx1116filesystem_errorE(%rip), %rax
	movq	%rax, %rdx
	movq	%rbx, %rcx
.LEHB85:
	call	__cxa_throw
.L324:
	movq	%rax, %rsi
	leaq	-48(%rbp), %rax
	movq	%rax, %rcx
	call	_ZNSt7__cxx1112basic_stringIcSt11char_traitsIcESaIcEED1Ev
	jmp	.L322
.L323:
	movq	%rax, %rsi
.L322:
	leaq	-9(%rbp), %rax
	movq	%rax, %rcx
	call	_ZNSt15__new_allocatorIcED2Ev
	nop
	movq	%rbx, %rcx
	call	__cxa_free_exception
	movq	%rsi, %rax
	movq	%rax, %rcx
	call	_Unwind_Resume
	nop
.LEHE85:
	.seh_handler	__gxx_personality_seh0, @unwind, @except
	.seh_handlerdata
.LLSDA5377:
	.byte	0xff
	.byte	0xff
	.byte	0x1
	.uleb128 .LLSDACSE5377-.LLSDACSB5377
.LLSDACSB5377:
	.uleb128 .LEHB83-.LFB5377
	.uleb128 .LEHE83-.LEHB83
	.uleb128 .L323-.LFB5377
	.uleb128 0
	.uleb128 .LEHB84-.LFB5377
	.uleb128 .LEHE84-.LEHB84
	.uleb128 .L324-.LFB5377
	.uleb128 0
	.uleb128 .LEHB85-.LFB5377
	.uleb128 .LEHE85-.LEHB85
	.uleb128 0
	.uleb128 0
.LLSDACSE5377:
	.section	.text$_ZNSt10filesystem7__cxx118__detail24__throw_conversion_errorEv,"x"
	.linkonce discard
	.seh_endproc
	.section	.text$_ZNSt18codecvt_utf8_utf16IwLm1114111ELSt12codecvt_mode0EED2Ev,"x"
	.linkonce discard
	.align 2
	.globl	_ZNSt18codecvt_utf8_utf16IwLm1114111ELSt12codecvt_mode0EED2Ev
	.def	_ZNSt18codecvt_utf8_utf16IwLm1114111ELSt12codecvt_mode0EED2Ev;	.scl	2;	.type	32;	.endef
	.seh_proc	_ZNSt18codecvt_utf8_utf16IwLm1114111ELSt12codecvt_mode0EED2Ev
_ZNSt18codecvt_utf8_utf16IwLm1114111ELSt12codecvt_mode0EED2Ev:
.LFB5424:
	pushq	%rbp
	.seh_pushreg	%rbp
	movq	%rsp, %rbp
	.seh_setframe	%rbp, 0
	subq	$32, %rsp
	.seh_stackalloc	32
	.seh_endprologue
	movq	%rcx, 16(%rbp)
	leaq	16+_ZTVSt18codecvt_utf8_utf16IwLm1114111ELSt12codecvt_mode0EE(%rip), %rdx
	movq	16(%rbp), %rax
	movq	%rdx, (%rax)
	movq	16(%rbp), %rax
	movq	%rax, %rcx
	call	_ZNSt25__codecvt_utf8_utf16_baseIwED2Ev
	nop
	addq	$32, %rsp
	popq	%rbp
	ret
	.seh_endproc
	.section	.text$_ZNSt18codecvt_utf8_utf16IwLm1114111ELSt12codecvt_mode0EED1Ev,"x"
	.linkonce discard
	.align 2
	.globl	_ZNSt18codecvt_utf8_utf16IwLm1114111ELSt12codecvt_mode0EED1Ev
	.def	_ZNSt18codecvt_utf8_utf16IwLm1114111ELSt12codecvt_mode0EED1Ev;	.scl	2;	.type	32;	.endef
	.seh_proc	_ZNSt18codecvt_utf8_utf16IwLm1114111ELSt12codecvt_mode0EED1Ev
_ZNSt18codecvt_utf8_utf16IwLm1114111ELSt12codecvt_mode0EED1Ev:
.LFB5425:
	pushq	%rbp
	.seh_pushreg	%rbp
	movq	%rsp, %rbp
	.seh_setframe	%rbp, 0
	subq	$32, %rsp
	.seh_stackalloc	32
	.seh_endprologue
	movq	%rcx, 16(%rbp)
	leaq	16+_ZTVSt18codecvt_utf8_utf16IwLm1114111ELSt12codecvt_mode0EE(%rip), %rdx
	movq	16(%rbp), %rax
	movq	%rdx, (%rax)
	movq	16(%rbp), %rax
	movq	%rax, %rcx
	call	_ZNSt25__codecvt_utf8_utf16_baseIwED2Ev
	nop
	addq	$32, %rsp
	popq	%rbp
	ret
	.seh_endproc
	.section	.text$_ZNSt18codecvt_utf8_utf16IwLm1114111ELSt12codecvt_mode0EED0Ev,"x"
	.linkonce discard
	.align 2
	.globl	_ZNSt18codecvt_utf8_utf16IwLm1114111ELSt12codecvt_mode0EED0Ev
	.def	_ZNSt18codecvt_utf8_utf16IwLm1114111ELSt12codecvt_mode0EED0Ev;	.scl	2;	.type	32;	.endef
	.seh_proc	_ZNSt18codecvt_utf8_utf16IwLm1114111ELSt12codecvt_mode0EED0Ev
_ZNSt18codecvt_utf8_utf16IwLm1114111ELSt12codecvt_mode0EED0Ev:
.LFB5426:
	pushq	%rbp
	.seh_pushreg	%rbp
	movq	%rsp, %rbp
	.seh_setframe	%rbp, 0
	subq	$32, %rsp
	.seh_stackalloc	32
	.seh_endprologue
	movq	%rcx, 16(%rbp)
	movq	16(%rbp), %rax
	movq	%rax, %rcx
	call	_ZNSt18codecvt_utf8_utf16IwLm1114111ELSt12codecvt_mode0EED1Ev
	movq	16(%rbp), %rax
	movl	$32, %edx
	movq	%rax, %rcx
	call	_ZdlPvy
	nop
	addq	$32, %rsp
	popq	%rbp
	ret
	.seh_endproc
	.section	.text$_ZNKSt10filesystem11file_status4typeEv,"x"
	.linkonce discard
	.align 2
	.globl	_ZNKSt10filesystem11file_status4typeEv
	.def	_ZNKSt10filesystem11file_status4typeEv;	.scl	2;	.type	32;	.endef
	.seh_proc	_ZNKSt10filesystem11file_status4typeEv
_ZNKSt10filesystem11file_status4typeEv:
.LFB5460:
	pushq	%rbp
	.seh_pushreg	%rbp
	movq	%rsp, %rbp
	.seh_setframe	%rbp, 0
	.seh_endprologue
	movq	%rcx, 16(%rbp)
	movq	16(%rbp), %rax
	movzbl	(%rax), %eax
	popq	%rbp
	ret
	.seh_endproc
	.section	.text$_ZNSt10filesystem6existsENS_11file_statusE,"x"
	.linkonce discard
	.globl	_ZNSt10filesystem6existsENS_11file_statusE
	.def	_ZNSt10filesystem6existsENS_11file_statusE;	.scl	2;	.type	32;	.endef
	.seh_proc	_ZNSt10filesystem6existsENS_11file_statusE
_ZNSt10filesystem6existsENS_11file_statusE:
.LFB5605:
	pushq	%rbp
	.seh_pushreg	%rbp
	movq	%rsp, %rbp
	.seh_setframe	%rbp, 0
	subq	$32, %rsp
	.seh_stackalloc	32
	.seh_endprologue
	movq	%rcx, 16(%rbp)
	movq	16(%rbp), %rax
	movq	%rax, %rcx
	call	_ZNSt10filesystem12status_knownENS_11file_statusE
	testb	%al, %al
	je	.L331
	leaq	16(%rbp), %rcx
	call	_ZNKSt10filesystem11file_status4typeEv
	cmpb	$-1, %al
	je	.L331
	movl	$1, %eax
	jmp	.L332
.L331:
	movl	$0, %eax
.L332:
	addq	$32, %rsp
	popq	%rbp
	ret
	.seh_endproc
	.section	.text$_ZNSt10filesystem6existsERKNS_7__cxx114pathE,"x"
	.linkonce discard
	.globl	_ZNSt10filesystem6existsERKNS_7__cxx114pathE
	.def	_ZNSt10filesystem6existsERKNS_7__cxx114pathE;	.scl	2;	.type	32;	.endef
	.seh_proc	_ZNSt10filesystem6existsERKNS_7__cxx114pathE
_ZNSt10filesystem6existsERKNS_7__cxx114pathE:
.LFB5606:
	pushq	%rbp
	.seh_pushreg	%rbp
	movq	%rsp, %rbp
	.seh_setframe	%rbp, 0
	subq	$32, %rsp
	.seh_stackalloc	32
	.seh_endprologue
	movq	%rcx, 16(%rbp)
	movq	16(%rbp), %rax
	movq	%rax, %rcx
	call	_ZNSt10filesystem6statusERKNS_7__cxx114pathE
	movq	%rax, %rcx
	call	_ZNSt10filesystem6existsENS_11file_statusE
	addq	$32, %rsp
	popq	%rbp
	ret
	.seh_endproc
	.section	.text$_ZNSt10filesystem12status_knownENS_11file_statusE,"x"
	.linkonce discard
	.globl	_ZNSt10filesystem12status_knownENS_11file_statusE
	.def	_ZNSt10filesystem12status_knownENS_11file_statusE;	.scl	2;	.type	32;	.endef
	.seh_proc	_ZNSt10filesystem12status_knownENS_11file_statusE
_ZNSt10filesystem12status_knownENS_11file_statusE:
.LFB5635:
	pushq	%rbp
	.seh_pushreg	%rbp
	movq	%rsp, %rbp
	.seh_setframe	%rbp, 0
	subq	$32, %rsp
	.seh_stackalloc	32
	.seh_endprologue
	movq	%rcx, 16(%rbp)
	leaq	16(%rbp), %rcx
	call	_ZNKSt10filesystem11file_status4typeEv
	testb	%al, %al
	setne	%al
	addq	$32, %rsp
	popq	%rbp
	ret
	.seh_endproc
.lcomm _ZL16ARDUINO_CLI_PATH,32,32
	.section .rdata,"dr"
	.align 8
.LC45:
	.ascii "Checking and installing required libraries...\0"
	.align 8
.LC46:
	.ascii "-> Installing/Verifying library: \0"
.LC47:
	.ascii "...\0"
.LC48:
	.ascii " lib install \"\0"
.LC49:
	.ascii "\"\0"
.LC50:
	.ascii "Warning: Failed to install '\0"
	.align 8
.LC51:
	.ascii "'. It might be built-in or the name is incorrect.\0"
.LC52:
	.ascii "Finished checking libraries.\0"
	.text
	.globl	_Z16installLibrariesv
	.def	_Z16installLibrariesv;	.scl	2;	.type	32;	.endef
	.seh_proc	_Z16installLibrariesv
_Z16installLibrariesv:
.LFB5636:
	pushq	%rbp
	.seh_pushreg	%rbp
	pushq	%rbx
	.seh_pushreg	%rbx
	subq	$184, %rsp
	.seh_stackalloc	184
	leaq	176(%rsp), %rbp
	.seh_setframe	%rbp, 176
	.seh_endprologue
	leaq	_Z17includedLibrariesB5cxx11(%rip), %rax
	movq	%rax, %rcx
	call	_ZNKSt3setINSt7__cxx1112basic_stringIcSt11char_traitsIcESaIcEEESt4lessIS5_ESaIS5_EE5emptyEv
	testb	%al, %al
	je	.L339
	movl	$1, %eax
	jmp	.L350
.L339:
	leaq	.LC45(%rip), %rax
	movq	%rax, %rdx
	movq	.refptr._ZSt4cout(%rip), %rax
	movq	%rax, %rcx
.LEHB86:
	call	_ZStlsISt11char_traitsIcEERSt13basic_ostreamIcT_ES5_PKc
	movq	%rax, %rcx
	movq	.refptr._ZSt4endlIcSt11char_traitsIcEERSt13basic_ostreamIT_T0_ES6_(%rip), %rax
	movq	%rax, %rdx
	call	_ZNSolsEPFRSoS_E
	leaq	_Z17includedLibrariesB5cxx11(%rip), %rax
	movq	%rax, -8(%rbp)
	movq	-8(%rbp), %rax
	movq	%rax, %rcx
	call	_ZNKSt3setINSt7__cxx1112basic_stringIcSt11char_traitsIcESaIcEEESt4lessIS5_ESaIS5_EE5beginEv
	movq	%rax, -104(%rbp)
	movq	-8(%rbp), %rax
	movq	%rax, %rcx
	call	_ZNKSt3setINSt7__cxx1112basic_stringIcSt11char_traitsIcESaIcEEESt4lessIS5_ESaIS5_EE3endEv
	movq	%rax, -112(%rbp)
	jmp	.L341
.L343:
	leaq	-104(%rbp), %rax
	movq	%rax, %rcx
	call	_ZNKSt23_Rb_tree_const_iteratorINSt7__cxx1112basic_stringIcSt11char_traitsIcESaIcEEEEdeEv
	movq	%rax, -16(%rbp)
	leaq	.LC46(%rip), %rax
	movq	%rax, %rdx
	movq	.refptr._ZSt4cout(%rip), %rax
	movq	%rax, %rcx
	call	_ZStlsISt11char_traitsIcEERSt13basic_ostreamIcT_ES5_PKc
	movq	%rax, %rcx
	movq	-16(%rbp), %rax
	movq	%rax, %rdx
	call	_ZStlsIcSt11char_traitsIcESaIcEERSt13basic_ostreamIT_T0_ES7_RKNSt7__cxx1112basic_stringIS4_S5_T1_EE
	movq	%rax, %rcx
	leaq	.LC47(%rip), %rax
	movq	%rax, %rdx
	call	_ZStlsISt11char_traitsIcEERSt13basic_ostreamIcT_ES5_PKc
	movq	%rax, %rcx
	movq	.refptr._ZSt4endlIcSt11char_traitsIcEERSt13basic_ostreamIT_T0_ES6_(%rip), %rax
	movq	%rax, %rdx
	call	_ZNSolsEPFRSoS_E
	leaq	-64(%rbp), %rax
	leaq	.LC48(%rip), %r8
	leaq	_ZL16ARDUINO_CLI_PATH(%rip), %rdx
	movq	%rax, %rcx
	call	_ZStplIcSt11char_traitsIcESaIcEENSt7__cxx1112basic_stringIT_T0_T1_EERKS8_PKS5_
.LEHE86:
	leaq	-96(%rbp), %rax
	movq	-16(%rbp), %rcx
	leaq	-64(%rbp), %rdx
	movq	%rcx, %r8
	movq	%rax, %rcx
.LEHB87:
	call	_ZStplIcSt11char_traitsIcESaIcEENSt7__cxx1112basic_stringIT_T0_T1_EEOS8_RKS8_
.LEHE87:
	leaq	-144(%rbp), %rax
	leaq	-96(%rbp), %rdx
	leaq	.LC49(%rip), %r8
	movq	%rax, %rcx
.LEHB88:
	call	_ZStplIcSt11char_traitsIcESaIcEENSt7__cxx1112basic_stringIT_T0_T1_EEOS8_PKS5_
.LEHE88:
	leaq	-96(%rbp), %rax
	movq	%rax, %rcx
	call	_ZNSt7__cxx1112basic_stringIcSt11char_traitsIcESaIcEED1Ev
	leaq	-64(%rbp), %rax
	movq	%rax, %rcx
	call	_ZNSt7__cxx1112basic_stringIcSt11char_traitsIcESaIcEED1Ev
	leaq	-144(%rbp), %rax
	movq	%rax, %rcx
	call	_ZNKSt7__cxx1112basic_stringIcSt11char_traitsIcESaIcEE5c_strEv
	movq	%rax, %rcx
.LEHB89:
	call	system
	movl	%eax, -20(%rbp)
	cmpl	$0, -20(%rbp)
	je	.L342
	leaq	.LC50(%rip), %rax
	movq	%rax, %rdx
	movq	.refptr._ZSt4cerr(%rip), %rax
	movq	%rax, %rcx
	call	_ZStlsISt11char_traitsIcEERSt13basic_ostreamIcT_ES5_PKc
	movq	%rax, %rcx
	movq	-16(%rbp), %rax
	movq	%rax, %rdx
	call	_ZStlsIcSt11char_traitsIcESaIcEERSt13basic_ostreamIT_T0_ES7_RKNSt7__cxx1112basic_stringIS4_S5_T1_EE
	movq	%rax, %rcx
	leaq	.LC51(%rip), %rax
	movq	%rax, %rdx
	call	_ZStlsISt11char_traitsIcEERSt13basic_ostreamIcT_ES5_PKc
	movq	%rax, %rcx
	movq	.refptr._ZSt4endlIcSt11char_traitsIcEERSt13basic_ostreamIT_T0_ES6_(%rip), %rax
	movq	%rax, %rdx
	call	_ZNSolsEPFRSoS_E
.LEHE89:
.L342:
	leaq	-144(%rbp), %rax
	movq	%rax, %rcx
	call	_ZNSt7__cxx1112basic_stringIcSt11char_traitsIcESaIcEED1Ev
	leaq	-104(%rbp), %rax
	movq	%rax, %rcx
	call	_ZNSt23_Rb_tree_const_iteratorINSt7__cxx1112basic_stringIcSt11char_traitsIcESaIcEEEEppEv
.L341:
	leaq	-112(%rbp), %rdx
	leaq	-104(%rbp), %rax
	movq	%rax, %rcx
	call	_ZStneRKSt23_Rb_tree_const_iteratorINSt7__cxx1112basic_stringIcSt11char_traitsIcESaIcEEEES8_
	testb	%al, %al
	jne	.L343
	leaq	.LC52(%rip), %rax
	movq	%rax, %rdx
	movq	.refptr._ZSt4cout(%rip), %rax
	movq	%rax, %rcx
.LEHB90:
	call	_ZStlsISt11char_traitsIcEERSt13basic_ostreamIcT_ES5_PKc
	movq	%rax, %rcx
	movq	.refptr._ZSt4endlIcSt11char_traitsIcEERSt13basic_ostreamIT_T0_ES6_(%rip), %rax
	movq	%rax, %rdx
	call	_ZNSolsEPFRSoS_E
	movl	$1, %eax
	jmp	.L350
.L348:
	movq	%rax, %rbx
	leaq	-96(%rbp), %rax
	movq	%rax, %rcx
	call	_ZNSt7__cxx1112basic_stringIcSt11char_traitsIcESaIcEED1Ev
	jmp	.L345
.L347:
	movq	%rax, %rbx
.L345:
	leaq	-64(%rbp), %rax
	movq	%rax, %rcx
	call	_ZNSt7__cxx1112basic_stringIcSt11char_traitsIcESaIcEED1Ev
	movq	%rbx, %rax
	movq	%rax, %rcx
	call	_Unwind_Resume
.L349:
	movq	%rax, %rbx
	leaq	-144(%rbp), %rax
	movq	%rax, %rcx
	call	_ZNSt7__cxx1112basic_stringIcSt11char_traitsIcESaIcEED1Ev
	movq	%rbx, %rax
	movq	%rax, %rcx
	call	_Unwind_Resume
.LEHE90:
.L350:
	addq	$184, %rsp
	popq	%rbx
	popq	%rbp
	ret
	.seh_handler	__gxx_personality_seh0, @unwind, @except
	.seh_handlerdata
.LLSDA5636:
	.byte	0xff
	.byte	0xff
	.byte	0x1
	.uleb128 .LLSDACSE5636-.LLSDACSB5636
.LLSDACSB5636:
	.uleb128 .LEHB86-.LFB5636
	.uleb128 .LEHE86-.LEHB86
	.uleb128 0
	.uleb128 0
	.uleb128 .LEHB87-.LFB5636
	.uleb128 .LEHE87-.LEHB87
	.uleb128 .L347-.LFB5636
	.uleb128 0
	.uleb128 .LEHB88-.LFB5636
	.uleb128 .LEHE88-.LEHB88
	.uleb128 .L348-.LFB5636
	.uleb128 0
	.uleb128 .LEHB89-.LFB5636
	.uleb128 .LEHE89-.LEHB89
	.uleb128 .L349-.LFB5636
	.uleb128 0
	.uleb128 .LEHB90-.LFB5636
	.uleb128 .LEHE90-.LEHB90
	.uleb128 0
	.uleb128 0
.LLSDACSE5636:
	.text
	.seh_endproc
	.section .rdata,"dr"
.LC53:
	.ascii "Starting code compilation...\0"
	.align 8
.LC54:
	.ascii " compile --fqbn arduino:avr:uno output\0"
.LC55:
	.ascii "Compilation successful!\0"
.LC56:
	.ascii "Error: Compilation failed!\0"
	.text
	.globl	_Z11compileCodev
	.def	_Z11compileCodev;	.scl	2;	.type	32;	.endef
	.seh_proc	_Z11compileCodev
_Z11compileCodev:
.LFB5637:
	pushq	%rbp
	.seh_pushreg	%rbp
	pushq	%rbx
	.seh_pushreg	%rbx
	subq	$88, %rsp
	.seh_stackalloc	88
	leaq	80(%rsp), %rbp
	.seh_setframe	%rbp, 80
	.seh_endprologue
	leaq	.LC53(%rip), %rax
	movq	%rax, %rdx
	movq	.refptr._ZSt4cout(%rip), %rax
	movq	%rax, %rcx
.LEHB91:
	call	_ZStlsISt11char_traitsIcEERSt13basic_ostreamIcT_ES5_PKc
	movq	%rax, %rcx
	movq	.refptr._ZSt4endlIcSt11char_traitsIcEERSt13basic_ostreamIT_T0_ES6_(%rip), %rax
	movq	%rax, %rdx
	call	_ZNSolsEPFRSoS_E
	leaq	-48(%rbp), %rax
	leaq	.LC54(%rip), %r8
	leaq	_ZL16ARDUINO_CLI_PATH(%rip), %rdx
	movq	%rax, %rcx
	call	_ZStplIcSt11char_traitsIcESaIcEENSt7__cxx1112basic_stringIT_T0_T1_EERKS8_PKS5_
.LEHE91:
	leaq	-48(%rbp), %rax
	movq	%rax, %rcx
	call	_ZNKSt7__cxx1112basic_stringIcSt11char_traitsIcESaIcEE5c_strEv
	movq	%rax, %rcx
.LEHB92:
	call	system
	movl	%eax, -4(%rbp)
	cmpl	$0, -4(%rbp)
	jne	.L352
	leaq	.LC55(%rip), %rax
	movq	%rax, %rdx
	movq	.refptr._ZSt4cout(%rip), %rax
	movq	%rax, %rcx
	call	_ZStlsISt11char_traitsIcEERSt13basic_ostreamIcT_ES5_PKc
	movq	%rax, %rcx
	movq	.refptr._ZSt4endlIcSt11char_traitsIcEERSt13basic_ostreamIT_T0_ES6_(%rip), %rax
	movq	%rax, %rdx
	call	_ZNSolsEPFRSoS_E
	movl	$1, %ebx
	jmp	.L353
.L352:
	leaq	.LC56(%rip), %rax
	movq	%rax, %rdx
	movq	.refptr._ZSt4cerr(%rip), %rax
	movq	%rax, %rcx
	call	_ZStlsISt11char_traitsIcEERSt13basic_ostreamIcT_ES5_PKc
	movq	%rax, %rcx
	movq	.refptr._ZSt4endlIcSt11char_traitsIcEERSt13basic_ostreamIT_T0_ES6_(%rip), %rax
	movq	%rax, %rdx
	call	_ZNSolsEPFRSoS_E
.LEHE92:
	movl	$0, %ebx
.L353:
	leaq	-48(%rbp), %rax
	movq	%rax, %rcx
	call	_ZNSt7__cxx1112basic_stringIcSt11char_traitsIcESaIcEED1Ev
	movl	%ebx, %eax
	jmp	.L357
.L356:
	movq	%rax, %rbx
	leaq	-48(%rbp), %rax
	movq	%rax, %rcx
	call	_ZNSt7__cxx1112basic_stringIcSt11char_traitsIcESaIcEED1Ev
	movq	%rbx, %rax
	movq	%rax, %rcx
.LEHB93:
	call	_Unwind_Resume
.LEHE93:
.L357:
	addq	$88, %rsp
	popq	%rbx
	popq	%rbp
	ret
	.seh_handler	__gxx_personality_seh0, @unwind, @except
	.seh_handlerdata
.LLSDA5637:
	.byte	0xff
	.byte	0xff
	.byte	0x1
	.uleb128 .LLSDACSE5637-.LLSDACSB5637
.LLSDACSB5637:
	.uleb128 .LEHB91-.LFB5637
	.uleb128 .LEHE91-.LEHB91
	.uleb128 0
	.uleb128 0
	.uleb128 .LEHB92-.LFB5637
	.uleb128 .LEHE92-.LEHB92
	.uleb128 .L356-.LFB5637
	.uleb128 0
	.uleb128 .LEHB93-.LFB5637
	.uleb128 .LEHE93-.LEHB93
	.uleb128 0
	.uleb128 0
.LLSDACSE5637:
	.text
	.seh_endproc
	.section .rdata,"dr"
	.align 8
.LC57:
	.ascii "Searching for connected Arduino boards...\0"
	.align 8
.LC58:
	.ascii " board list --format json > ports.txt\0"
.LC59:
	.ascii "ports.txt\0"
.LC60:
	.ascii "\"address\":\0"
	.align 8
.LC61:
	.ascii "Error: No board detected! Please connect your Arduino.\0"
.LC62:
	.ascii "Found Arduino on port: \0"
	.align 8
.LC63:
	.ascii "Uploading code to the board...\0"
.LC64:
	.ascii " upload -p \0"
	.align 8
.LC65:
	.ascii " --fqbn arduino:avr:uno output\0"
.LC66:
	.ascii "Upload successful!\0"
	.align 8
.LC67:
	.ascii "Error: Upload failed! Check connection.\0"
	.text
	.globl	_Z10uploadCodev
	.def	_Z10uploadCodev;	.scl	2;	.type	32;	.endef
	.seh_proc	_Z10uploadCodev
_Z10uploadCodev:
.LFB5638:
	pushq	%rbp
	.seh_pushreg	%rbp
	pushq	%rbx
	.seh_pushreg	%rbx
	subq	$824, %rsp
	.seh_stackalloc	824
	leaq	128(%rsp), %rbp
	.seh_setframe	%rbp, 128
	.seh_endprologue
	leaq	.LC57(%rip), %rax
	movq	%rax, %rdx
	movq	.refptr._ZSt4cout(%rip), %rax
	movq	%rax, %rcx
.LEHB94:
	call	_ZStlsISt11char_traitsIcEERSt13basic_ostreamIcT_ES5_PKc
	movq	%rax, %rcx
	movq	.refptr._ZSt4endlIcSt11char_traitsIcEERSt13basic_ostreamIT_T0_ES6_(%rip), %rax
	movq	%rax, %rdx
	call	_ZNSolsEPFRSoS_E
	leaq	496(%rbp), %rax
	leaq	.LC58(%rip), %r8
	leaq	_ZL16ARDUINO_CLI_PATH(%rip), %rdx
	movq	%rax, %rcx
	call	_ZStplIcSt11char_traitsIcESaIcEENSt7__cxx1112basic_stringIT_T0_T1_EERKS8_PKS5_
.LEHE94:
	leaq	496(%rbp), %rax
	movq	%rax, %rcx
	call	_ZNKSt7__cxx1112basic_stringIcSt11char_traitsIcESaIcEE5c_strEv
	movq	%rax, %rcx
.LEHB95:
	call	system
	movq	%rbp, %rax
	movl	$8, %r8d
	leaq	.LC59(%rip), %rdx
	movq	%rax, %rcx
	call	_ZNSt14basic_ifstreamIcSt11char_traitsIcEEC1EPKcSt13_Ios_Openmode
.LEHE95:
	leaq	-32(%rbp), %rax
	movq	%rax, %rcx
	call	_ZNSt7__cxx1112basic_stringIcSt11char_traitsIcESaIcEEC1Ev
	leaq	543(%rbp), %rax
	movq	%rax, 648(%rbp)
	nop
	nop
	leaq	543(%rbp), %rdx
	leaq	-64(%rbp), %rax
	movq	%rdx, %r8
	leaq	.LC41(%rip), %rdx
	movq	%rax, %rcx
.LEHB96:
	call	_ZNSt7__cxx1112basic_stringIcSt11char_traitsIcESaIcEEC1IS3_EEPKcRKS3_
.LEHE96:
	leaq	543(%rbp), %rax
	movq	%rax, %rcx
	call	_ZNSt15__new_allocatorIcED2Ev
	nop
	movq	%rbp, %rax
	movq	%rax, %rcx
	call	_ZNSt14basic_ifstreamIcSt11char_traitsIcEE7is_openEv
	testb	%al, %al
	je	.L359
	jmp	.L360
.L362:
	leaq	-32(%rbp), %rax
	movl	$0, %r8d
	leaq	.LC60(%rip), %rdx
	movq	%rax, %rcx
	call	_ZNKSt7__cxx1112basic_stringIcSt11char_traitsIcESaIcEE4findEPKcy
	movq	%rax, 680(%rbp)
	cmpq	$-1, 680(%rbp)
	je	.L360
	movq	680(%rbp), %rax
	leaq	10(%rax), %rdx
	leaq	-32(%rbp), %rax
	movq	%rdx, %r8
	leaq	.LC49(%rip), %rdx
	movq	%rax, %rcx
	call	_ZNKSt7__cxx1112basic_stringIcSt11char_traitsIcESaIcEE4findEPKcy
	movq	%rax, 672(%rbp)
	cmpq	$-1, 672(%rbp)
	je	.L360
	movq	672(%rbp), %rax
	leaq	1(%rax), %rdx
	leaq	-32(%rbp), %rax
	movq	%rdx, %r8
	leaq	.LC49(%rip), %rdx
	movq	%rax, %rcx
	call	_ZNKSt7__cxx1112basic_stringIcSt11char_traitsIcESaIcEE4findEPKcy
	movq	%rax, 664(%rbp)
	cmpq	$-1, 664(%rbp)
	je	.L360
	movq	664(%rbp), %rax
	subq	672(%rbp), %rax
	leaq	-1(%rax), %r8
	movq	672(%rbp), %rax
	leaq	1(%rax), %rcx
	leaq	544(%rbp), %rax
	leaq	-32(%rbp), %rdx
	movq	%r8, %r9
	movq	%rcx, %r8
	movq	%rax, %rcx
.LEHB97:
	call	_ZNKSt7__cxx1112basic_stringIcSt11char_traitsIcESaIcEE6substrEyy
	leaq	544(%rbp), %rdx
	leaq	-64(%rbp), %rax
	movq	%rax, %rcx
	call	_ZNSt7__cxx1112basic_stringIcSt11char_traitsIcESaIcEEaSEOS4_
	leaq	544(%rbp), %rax
	movq	%rax, %rcx
	call	_ZNSt7__cxx1112basic_stringIcSt11char_traitsIcESaIcEED1Ev
	jmp	.L361
.L360:
	leaq	-32(%rbp), %rdx
	movq	%rbp, %rax
	movq	%rax, %rcx
	call	_ZSt7getlineIcSt11char_traitsIcESaIcEERSt13basic_istreamIT_T0_ES7_RNSt7__cxx1112basic_stringIS4_S5_T1_EE
	movq	(%rax), %rdx
	subq	$24, %rdx
	movq	(%rdx), %rdx
	addq	%rdx, %rax
	movq	%rax, %rcx
	call	_ZNKSt9basic_iosIcSt11char_traitsIcEEcvbEv
	testb	%al, %al
	jne	.L362
.L361:
	movq	%rbp, %rax
	movq	%rax, %rcx
	call	_ZNSt14basic_ifstreamIcSt11char_traitsIcEE5closeEv
	leaq	.LC59(%rip), %rax
	movq	%rax, %rcx
	call	remove
.L359:
	leaq	-64(%rbp), %rax
	movq	%rax, %rcx
	call	_ZNKSt7__cxx1112basic_stringIcSt11char_traitsIcESaIcEE5emptyEv
	testb	%al, %al
	je	.L363
	leaq	.LC61(%rip), %rax
	movq	%rax, %rdx
	movq	.refptr._ZSt4cerr(%rip), %rax
	movq	%rax, %rcx
	call	_ZStlsISt11char_traitsIcEERSt13basic_ostreamIcT_ES5_PKc
	movq	%rax, %rcx
	movq	.refptr._ZSt4endlIcSt11char_traitsIcEERSt13basic_ostreamIT_T0_ES6_(%rip), %rax
	movq	%rax, %rdx
	call	_ZNSolsEPFRSoS_E
	movl	$0, %ebx
	jmp	.L364
.L363:
	leaq	.LC62(%rip), %rax
	movq	%rax, %rdx
	movq	.refptr._ZSt4cout(%rip), %rax
	movq	%rax, %rcx
	call	_ZStlsISt11char_traitsIcEERSt13basic_ostreamIcT_ES5_PKc
	movq	%rax, %rcx
	leaq	-64(%rbp), %rax
	movq	%rax, %rdx
	call	_ZStlsIcSt11char_traitsIcESaIcEERSt13basic_ostreamIT_T0_ES7_RKNSt7__cxx1112basic_stringIS4_S5_T1_EE
	movq	%rax, %rcx
	movq	.refptr._ZSt4endlIcSt11char_traitsIcEERSt13basic_ostreamIT_T0_ES6_(%rip), %rax
	movq	%rax, %rdx
	call	_ZNSolsEPFRSoS_E
	leaq	.LC63(%rip), %rax
	movq	%rax, %rdx
	movq	.refptr._ZSt4cout(%rip), %rax
	movq	%rax, %rcx
	call	_ZStlsISt11char_traitsIcEERSt13basic_ostreamIcT_ES5_PKc
	movq	%rax, %rcx
	movq	.refptr._ZSt4endlIcSt11char_traitsIcEERSt13basic_ostreamIT_T0_ES6_(%rip), %rax
	movq	%rax, %rdx
	call	_ZNSolsEPFRSoS_E
	leaq	608(%rbp), %rax
	leaq	.LC64(%rip), %r8
	leaq	_ZL16ARDUINO_CLI_PATH(%rip), %rdx
	movq	%rax, %rcx
	call	_ZStplIcSt11char_traitsIcESaIcEENSt7__cxx1112basic_stringIT_T0_T1_EERKS8_PKS5_
.LEHE97:
	leaq	576(%rbp), %rax
	leaq	-64(%rbp), %rcx
	leaq	608(%rbp), %rdx
	movq	%rcx, %r8
	movq	%rax, %rcx
.LEHB98:
	call	_ZStplIcSt11char_traitsIcESaIcEENSt7__cxx1112basic_stringIT_T0_T1_EEOS8_RKS8_
.LEHE98:
	leaq	-96(%rbp), %rax
	leaq	576(%rbp), %rdx
	leaq	.LC65(%rip), %r8
	movq	%rax, %rcx
.LEHB99:
	call	_ZStplIcSt11char_traitsIcESaIcEENSt7__cxx1112basic_stringIT_T0_T1_EEOS8_PKS5_
.LEHE99:
	leaq	576(%rbp), %rax
	movq	%rax, %rcx
	call	_ZNSt7__cxx1112basic_stringIcSt11char_traitsIcESaIcEED1Ev
	leaq	608(%rbp), %rax
	movq	%rax, %rcx
	call	_ZNSt7__cxx1112basic_stringIcSt11char_traitsIcESaIcEED1Ev
	leaq	-96(%rbp), %rax
	movq	%rax, %rcx
	call	_ZNKSt7__cxx1112basic_stringIcSt11char_traitsIcESaIcEE5c_strEv
	movq	%rax, %rcx
.LEHB100:
	call	system
	movl	%eax, 660(%rbp)
	cmpl	$0, 660(%rbp)
	jne	.L365
	leaq	.LC66(%rip), %rax
	movq	%rax, %rdx
	movq	.refptr._ZSt4cout(%rip), %rax
	movq	%rax, %rcx
	call	_ZStlsISt11char_traitsIcEERSt13basic_ostreamIcT_ES5_PKc
	movq	%rax, %rcx
	movq	.refptr._ZSt4endlIcSt11char_traitsIcEERSt13basic_ostreamIT_T0_ES6_(%rip), %rax
	movq	%rax, %rdx
	call	_ZNSolsEPFRSoS_E
	movl	$1, %ebx
	jmp	.L366
.L365:
	leaq	.LC67(%rip), %rax
	movq	%rax, %rdx
	movq	.refptr._ZSt4cerr(%rip), %rax
	movq	%rax, %rcx
	call	_ZStlsISt11char_traitsIcEERSt13basic_ostreamIcT_ES5_PKc
	movq	%rax, %rcx
	movq	.refptr._ZSt4endlIcSt11char_traitsIcEERSt13basic_ostreamIT_T0_ES6_(%rip), %rax
	movq	%rax, %rdx
	call	_ZNSolsEPFRSoS_E
.LEHE100:
	movl	$0, %ebx
.L366:
	leaq	-96(%rbp), %rax
	movq	%rax, %rcx
	call	_ZNSt7__cxx1112basic_stringIcSt11char_traitsIcESaIcEED1Ev
.L364:
	leaq	-64(%rbp), %rax
	movq	%rax, %rcx
	call	_ZNSt7__cxx1112basic_stringIcSt11char_traitsIcESaIcEED1Ev
	leaq	-32(%rbp), %rax
	movq	%rax, %rcx
	call	_ZNSt7__cxx1112basic_stringIcSt11char_traitsIcESaIcEED1Ev
	movq	%rbp, %rax
	movq	%rax, %rcx
	call	_ZNSt14basic_ifstreamIcSt11char_traitsIcEED1Ev
	leaq	496(%rbp), %rax
	movq	%rax, %rcx
	call	_ZNSt7__cxx1112basic_stringIcSt11char_traitsIcESaIcEED1Ev
	movl	%ebx, %eax
	jmp	.L381
.L376:
	movq	%rax, %rbx
	leaq	543(%rbp), %rax
	movq	%rax, %rcx
	call	_ZNSt15__new_allocatorIcED2Ev
	nop
	jmp	.L369
.L379:
	movq	%rax, %rbx
	leaq	576(%rbp), %rax
	movq	%rax, %rcx
	call	_ZNSt7__cxx1112basic_stringIcSt11char_traitsIcESaIcEED1Ev
	jmp	.L371
.L378:
	movq	%rax, %rbx
.L371:
	leaq	608(%rbp), %rax
	movq	%rax, %rcx
	call	_ZNSt7__cxx1112basic_stringIcSt11char_traitsIcESaIcEED1Ev
	jmp	.L372
.L380:
	movq	%rax, %rbx
	leaq	-96(%rbp), %rax
	movq	%rax, %rcx
	call	_ZNSt7__cxx1112basic_stringIcSt11char_traitsIcESaIcEED1Ev
	jmp	.L372
.L377:
	movq	%rax, %rbx
.L372:
	leaq	-64(%rbp), %rax
	movq	%rax, %rcx
	call	_ZNSt7__cxx1112basic_stringIcSt11char_traitsIcESaIcEED1Ev
.L369:
	leaq	-32(%rbp), %rax
	movq	%rax, %rcx
	call	_ZNSt7__cxx1112basic_stringIcSt11char_traitsIcESaIcEED1Ev
	movq	%rbp, %rax
	movq	%rax, %rcx
	call	_ZNSt14basic_ifstreamIcSt11char_traitsIcEED1Ev
	jmp	.L374
.L375:
	movq	%rax, %rbx
.L374:
	leaq	496(%rbp), %rax
	movq	%rax, %rcx
	call	_ZNSt7__cxx1112basic_stringIcSt11char_traitsIcESaIcEED1Ev
	movq	%rbx, %rax
	movq	%rax, %rcx
.LEHB101:
	call	_Unwind_Resume
.LEHE101:
.L381:
	addq	$824, %rsp
	popq	%rbx
	popq	%rbp
	ret
	.seh_handler	__gxx_personality_seh0, @unwind, @except
	.seh_handlerdata
.LLSDA5638:
	.byte	0xff
	.byte	0xff
	.byte	0x1
	.uleb128 .LLSDACSE5638-.LLSDACSB5638
.LLSDACSB5638:
	.uleb128 .LEHB94-.LFB5638
	.uleb128 .LEHE94-.LEHB94
	.uleb128 0
	.uleb128 0
	.uleb128 .LEHB95-.LFB5638
	.uleb128 .LEHE95-.LEHB95
	.uleb128 .L375-.LFB5638
	.uleb128 0
	.uleb128 .LEHB96-.LFB5638
	.uleb128 .LEHE96-.LEHB96
	.uleb128 .L376-.LFB5638
	.uleb128 0
	.uleb128 .LEHB97-.LFB5638
	.uleb128 .LEHE97-.LEHB97
	.uleb128 .L377-.LFB5638
	.uleb128 0
	.uleb128 .LEHB98-.LFB5638
	.uleb128 .LEHE98-.LEHB98
	.uleb128 .L378-.LFB5638
	.uleb128 0
	.uleb128 .LEHB99-.LFB5638
	.uleb128 .LEHE99-.LEHB99
	.uleb128 .L379-.LFB5638
	.uleb128 0
	.uleb128 .LEHB100-.LFB5638
	.uleb128 .LEHE100-.LEHB100
	.uleb128 .L380-.LFB5638
	.uleb128 0
	.uleb128 .LEHB101-.LFB5638
	.uleb128 .LEHE101-.LEHB101
	.uleb128 0
	.uleb128 0
.LLSDACSE5638:
	.text
	.seh_endproc
	.section	.text$_ZN5LexerD1Ev,"x"
	.linkonce discard
	.align 2
	.globl	_ZN5LexerD1Ev
	.def	_ZN5LexerD1Ev;	.scl	2;	.type	32;	.endef
	.seh_proc	_ZN5LexerD1Ev
_ZN5LexerD1Ev:
.LFB5642:
	pushq	%rbp
	.seh_pushreg	%rbp
	movq	%rsp, %rbp
	.seh_setframe	%rbp, 0
	subq	$32, %rsp
	.seh_stackalloc	32
	.seh_endprologue
	movq	%rcx, 16(%rbp)
	movq	16(%rbp), %rax
	addq	$56, %rax
	movq	%rax, %rcx
	call	_ZNSt6vectorIiSaIiEED1Ev
	movq	16(%rbp), %rax
	movq	%rax, %rcx
	call	_ZNSt7__cxx1112basic_stringIcSt11char_traitsIcESaIcEED1Ev
	nop
	addq	$32, %rsp
	popq	%rbp
	ret
	.seh_endproc
	.section	.text$_ZN5TokenD1Ev,"x"
	.linkonce discard
	.align 2
	.globl	_ZN5TokenD1Ev
	.def	_ZN5TokenD1Ev;	.scl	2;	.type	32;	.endef
	.seh_proc	_ZN5TokenD1Ev
_ZN5TokenD1Ev:
.LFB5646:
	pushq	%rbp
	.seh_pushreg	%rbp
	movq	%rsp, %rbp
	.seh_setframe	%rbp, 0
	subq	$32, %rsp
	.seh_stackalloc	32
	.seh_endprologue
	movq	%rcx, 16(%rbp)
	movq	16(%rbp), %rax
	addq	$8, %rax
	movq	%rax, %rcx
	call	_ZNSt7__cxx1112basic_stringIcSt11char_traitsIcESaIcEED1Ev
	nop
	addq	$32, %rsp
	popq	%rbp
	ret
	.seh_endproc
	.section	.text$_ZN6ParserD1Ev,"x"
	.linkonce discard
	.align 2
	.globl	_ZN6ParserD1Ev
	.def	_ZN6ParserD1Ev;	.scl	2;	.type	32;	.endef
	.seh_proc	_ZN6ParserD1Ev
_ZN6ParserD1Ev:
.LFB5648:
	pushq	%rbp
	.seh_pushreg	%rbp
	movq	%rsp, %rbp
	.seh_setframe	%rbp, 0
	subq	$32, %rsp
	.seh_stackalloc	32
	.seh_endprologue
	movq	%rcx, 16(%rbp)
	movq	16(%rbp), %rax
	addq	$32, %rax
	movq	%rax, %rcx
	call	_ZN5TokenD1Ev
	movq	16(%rbp), %rax
	movq	%rax, %rcx
	call	_ZNSt6vectorI5TokenSaIS0_EED1Ev
	nop
	addq	$32, %rsp
	popq	%rbp
	ret
	.seh_endproc
	.section	.text$_ZN12FunctionNodeD1Ev,"x"
	.linkonce discard
	.align 2
	.globl	_ZN12FunctionNodeD1Ev
	.def	_ZN12FunctionNodeD1Ev;	.scl	2;	.type	32;	.endef
	.seh_proc	_ZN12FunctionNodeD1Ev
_ZN12FunctionNodeD1Ev:
.LFB5667:
	pushq	%rbp
	.seh_pushreg	%rbp
	movq	%rsp, %rbp
	.seh_setframe	%rbp, 0
	subq	$32, %rsp
	.seh_stackalloc	32
	.seh_endprologue
	movq	%rcx, 16(%rbp)
	leaq	16+_ZTV12FunctionNode(%rip), %rdx
	movq	16(%rbp), %rax
	movq	%rdx, (%rax)
	movq	16(%rbp), %rax
	addq	$40, %rax
	movq	%rax, %rcx
	call	_ZNSt6vectorISt10unique_ptrI7ASTNodeSt14default_deleteIS1_EESaIS4_EED1Ev
	movq	16(%rbp), %rax
	addq	$8, %rax
	movq	%rax, %rcx
	call	_ZNSt7__cxx1112basic_stringIcSt11char_traitsIcESaIcEED1Ev
	movq	16(%rbp), %rax
	movq	%rax, %rcx
	call	_ZN7ASTNodeD2Ev
	nop
	addq	$32, %rsp
	popq	%rbp
	ret
	.seh_endproc
	.section	.text$_ZN12FunctionNodeD0Ev,"x"
	.linkonce discard
	.align 2
	.globl	_ZN12FunctionNodeD0Ev
	.def	_ZN12FunctionNodeD0Ev;	.scl	2;	.type	32;	.endef
	.seh_proc	_ZN12FunctionNodeD0Ev
_ZN12FunctionNodeD0Ev:
.LFB5668:
	pushq	%rbp
	.seh_pushreg	%rbp
	movq	%rsp, %rbp
	.seh_setframe	%rbp, 0
	subq	$32, %rsp
	.seh_stackalloc	32
	.seh_endprologue
	movq	%rcx, 16(%rbp)
	movq	16(%rbp), %rax
	movq	%rax, %rcx
	call	_ZN12FunctionNodeD1Ev
	movq	16(%rbp), %rax
	movl	$64, %edx
	movq	%rax, %rcx
	call	_ZdlPvy
	nop
	addq	$32, %rsp
	popq	%rbp
	ret
	.seh_endproc
	.section .rdata,"dr"
.LC68:
	.ascii "Enter the Mello file name: \0"
.LC69:
	.ascii "Error: Could not open file \0"
.LC70:
	.ascii "output\0"
.LC71:
	.ascii "output\\output.ino\0"
	.align 8
.LC72:
	.ascii "Error: Could not open output file.\0"
	.align 8
.LC73:
	.ascii "// Generated by Mello Programming Language\12// Copyright (c) 2026 Mohammed Tamer Mohammed Ahmed El-Azab - V3LK\0"
.LC74:
	.ascii " =\0"
	.align 8
.LC75:
	.ascii "\12Syntax Error: You cannot reassign the variable '\0"
.LC76:
	.ascii "' outside of a function.\12\0"
.LC77:
	.ascii "Please move '\0"
	.align 8
.LC78:
	.ascii " = ...' inside 'func start():' or 'func loop():'.\12\0"
.LC79:
	.ascii "void setup()\0"
.LC80:
	.ascii "Serial.print\0"
.LC81:
	.ascii "Serial.println\0"
.LC82:
	.ascii "Serial.available\0"
.LC83:
	.ascii "Serial.read\0"
.LC84:
	.ascii "Serial.begin\0"
.LC85:
	.ascii "void loop()\0"
.LC86:
	.ascii "#include <\0"
.LC87:
	.ascii ".h>\12\0"
.LC88:
	.ascii "9600\0"
.LC89:
	.ascii "void setup() {\0"
.LC90:
	.ascii "    Serial.begin(9600);\12\0"
.LC91:
	.ascii "loop\0"
.LC92:
	.ascii "..\\bin\\arduino-cli.exe\0"
	.align 8
.LC93:
	.ascii "Error: arduino-cli.exe not found at the specified path!\0"
.LC94:
	.ascii "--upload\0"
	.text
	.globl	main
	.def	main;	.scl	2;	.type	32;	.endef
	.seh_proc	main
main:
.LFB5639:
	pushq	%rbp
	.seh_pushreg	%rbp
	pushq	%rdi
	.seh_pushreg	%rdi
	pushq	%rsi
	.seh_pushreg	%rsi
	pushq	%rbx
	.seh_pushreg	%rbx
	subq	$2344, %rsp
	.seh_stackalloc	2344
	leaq	128(%rsp), %rbp
	.seh_setframe	%rbp, 128
	.seh_endprologue
	movl	%ecx, 2256(%rbp)
	movq	%rdx, 2264(%rbp)
	call	__main
	leaq	1456(%rbp), %rax
	movq	%rax, %rcx
	call	_ZNSt7__cxx1112basic_stringIcSt11char_traitsIcESaIcEEC1Ev
	cmpl	$1, 2256(%rbp)
	jle	.L388
	movq	2264(%rbp), %rax
	addq	$8, %rax
	movq	(%rax), %rdx
	leaq	1456(%rbp), %rax
	movq	%rax, %rcx
.LEHB102:
	call	_ZNSt7__cxx1112basic_stringIcSt11char_traitsIcESaIcEEaSEPKc
.L388:
	leaq	1456(%rbp), %rax
	movq	%rax, %rcx
	call	_ZNKSt7__cxx1112basic_stringIcSt11char_traitsIcESaIcEE5emptyEv
	testb	%al, %al
	je	.L389
	leaq	.LC68(%rip), %rax
	movq	%rax, %rdx
	movq	.refptr._ZSt4cout(%rip), %rax
	movq	%rax, %rcx
	call	_ZStlsISt11char_traitsIcEERSt13basic_ostreamIcT_ES5_PKc
	leaq	1456(%rbp), %rax
	movq	%rax, %rdx
	movq	.refptr._ZSt3cin(%rip), %rax
	movq	%rax, %rcx
	call	_ZStrsIcSt11char_traitsIcESaIcEERSt13basic_istreamIT_T0_ES7_RNSt7__cxx1112basic_stringIS4_S5_T1_EE
.L389:
	leaq	1456(%rbp), %rdx
	leaq	960(%rbp), %rax
	movl	$8, %r8d
	movq	%rax, %rcx
	call	_ZNSt14basic_ifstreamIcSt11char_traitsIcEEC1ERKNSt7__cxx1112basic_stringIcS1_SaIcEEESt13_Ios_Openmode
.LEHE102:
	leaq	960(%rbp), %rax
	movq	%rax, %rcx
	call	_ZNSt14basic_ifstreamIcSt11char_traitsIcEE7is_openEv
	xorl	$1, %eax
	testb	%al, %al
	je	.L390
	leaq	.LC69(%rip), %rax
	movq	%rax, %rdx
	movq	.refptr._ZSt4cerr(%rip), %rax
	movq	%rax, %rcx
.LEHB103:
	call	_ZStlsISt11char_traitsIcEERSt13basic_ostreamIcT_ES5_PKc
	movq	%rax, %rcx
	leaq	1456(%rbp), %rax
	movq	%rax, %rdx
	call	_ZStlsIcSt11char_traitsIcESaIcEERSt13basic_ostreamIT_T0_ES7_RKNSt7__cxx1112basic_stringIS4_S5_T1_EE
	movq	%rax, %rcx
	movq	.refptr._ZSt4endlIcSt11char_traitsIcEERSt13basic_ostreamIT_T0_ES6_(%rip), %rax
	movq	%rax, %rdx
	call	_ZNSolsEPFRSoS_E
.LEHE103:
	movl	$1, %ebx
	jmp	.L391
.L390:
	leaq	1503(%rbp), %rax
	movq	%rax, 2136(%rbp)
	nop
	nop
	leaq	1504(%rbp), %rax
	movq	%rax, %rcx
	call	_ZNSt19istreambuf_iteratorIcSt11char_traitsIcEEC1Ev
	leaq	960(%rbp), %rdx
	leaq	1520(%rbp), %rax
	movq	%rax, %rcx
	call	_ZNSt19istreambuf_iteratorIcSt11char_traitsIcEEC1ERSi
	movq	1520(%rbp), %rax
	movq	1528(%rbp), %rdx
	movq	%rax, -80(%rbp)
	movq	%rdx, -72(%rbp)
	movq	1504(%rbp), %rax
	movq	1512(%rbp), %rdx
	movq	%rax, -96(%rbp)
	movq	%rdx, -88(%rbp)
	leaq	1503(%rbp), %r8
	leaq	-96(%rbp), %rcx
	leaq	-80(%rbp), %rdx
	leaq	928(%rbp), %rax
	movq	%r8, %r9
	movq	%rcx, %r8
	movq	%rax, %rcx
.LEHB104:
	call	_ZNSt7__cxx1112basic_stringIcSt11char_traitsIcESaIcEEC1ISt19istreambuf_iteratorIcS2_EvEET_S8_RKS3_
.LEHE104:
	leaq	1503(%rbp), %rax
	movq	%rax, %rcx
	call	_ZNSt15__new_allocatorIcED2Ev
	nop
	leaq	960(%rbp), %rax
	movq	%rax, %rcx
.LEHB105:
	call	_ZNSt14basic_ifstreamIcSt11char_traitsIcEE5closeEv
	leaq	928(%rbp), %rdx
	leaq	848(%rbp), %rax
	movq	%rax, %rcx
	call	_ZN5LexerC1ERKNSt7__cxx1112basic_stringIcSt11char_traitsIcESaIcEEE
.LEHE105:
	leaq	816(%rbp), %rax
	leaq	848(%rbp), %rdx
	movq	%rax, %rcx
.LEHB106:
	call	_ZN5Lexer8tokenizeEv
.LEHE106:
	leaq	816(%rbp), %rdx
	leaq	736(%rbp), %rax
	movq	%rax, %rcx
.LEHB107:
	call	_ZN6ParserC1ERKSt6vectorI5TokenSaIS1_EE
.LEHE107:
	leaq	704(%rbp), %rax
	leaq	736(%rbp), %rdx
	movq	%rax, %rcx
.LEHB108:
	call	_ZN6Parser5parseEv
.LEHE108:
	leaq	1536(%rbp), %rax
	movl	$2, %r8d
	leaq	.LC70(%rip), %rdx
	movq	%rax, %rcx
.LEHB109:
	call	_ZNSt10filesystem7__cxx114pathC1IA7_cS1_EERKT_NS1_6formatE
.LEHE109:
	leaq	1536(%rbp), %rax
	movq	%rax, %rcx
.LEHB110:
	call	_ZNSt10filesystem18create_directoriesERKNS_7__cxx114pathE
.LEHE110:
	leaq	1536(%rbp), %rax
	movq	%rax, %rcx
	call	_ZNSt10filesystem7__cxx114pathD1Ev
	leaq	224(%rbp), %rax
	movl	$16, %r8d
	leaq	.LC71(%rip), %rdx
	movq	%rax, %rcx
.LEHB111:
	call	_ZNSt14basic_ofstreamIcSt11char_traitsIcEEC1EPKcSt13_Ios_Openmode
.LEHE111:
	leaq	224(%rbp), %rax
	movq	%rax, %rcx
	call	_ZNSt14basic_ofstreamIcSt11char_traitsIcEE7is_openEv
	xorl	$1, %eax
	testb	%al, %al
	je	.L392
	leaq	.LC72(%rip), %rax
	movq	%rax, %rdx
	movq	.refptr._ZSt4cerr(%rip), %rax
	movq	%rax, %rcx
.LEHB112:
	call	_ZStlsISt11char_traitsIcEERSt13basic_ostreamIcT_ES5_PKc
	movq	%rax, %rcx
	movq	.refptr._ZSt4endlIcSt11char_traitsIcEERSt13basic_ostreamIT_T0_ES6_(%rip), %rax
	movq	%rax, %rdx
	call	_ZNSolsEPFRSoS_E
.LEHE112:
	movl	$1, %ebx
	jmp	.L393
.L392:
	movb	$0, 2207(%rbp)
	movb	$0, 2206(%rbp)
	movb	$0, 2205(%rbp)
	movb	$0, 2204(%rbp)
	leaq	1580(%rbp), %rax
	movq	%rax, 2128(%rbp)
	nop
	nop
	leaq	1580(%rbp), %rdx
	leaq	192(%rbp), %rax
	movq	%rdx, %r8
	leaq	.LC41(%rip), %rdx
	movq	%rax, %rcx
.LEHB113:
	call	_ZNSt7__cxx1112basic_stringIcSt11char_traitsIcESaIcEEC1IS3_EEPKcRKS3_
.LEHE113:
	leaq	1580(%rbp), %rax
	movq	%rax, %rcx
	call	_ZNSt15__new_allocatorIcED2Ev
	nop
	leaq	1581(%rbp), %rax
	movq	%rax, 2120(%rbp)
	nop
	nop
	leaq	1581(%rbp), %rdx
	leaq	160(%rbp), %rax
	movq	%rdx, %r8
	leaq	.LC41(%rip), %rdx
	movq	%rax, %rcx
.LEHB114:
	call	_ZNSt7__cxx1112basic_stringIcSt11char_traitsIcESaIcEEC1IS3_EEPKcRKS3_
.LEHE114:
	leaq	1581(%rbp), %rax
	movq	%rax, %rcx
	call	_ZNSt15__new_allocatorIcED2Ev
	nop
	leaq	1582(%rbp), %rax
	movq	%rax, 2112(%rbp)
	nop
	nop
	leaq	1582(%rbp), %rdx
	leaq	128(%rbp), %rax
	movq	%rdx, %r8
	leaq	.LC41(%rip), %rdx
	movq	%rax, %rcx
.LEHB115:
	call	_ZNSt7__cxx1112basic_stringIcSt11char_traitsIcESaIcEEC1IS3_EEPKcRKS3_
.LEHE115:
	leaq	1582(%rbp), %rax
	movq	%rax, %rcx
	call	_ZNSt15__new_allocatorIcED2Ev
	nop
	leaq	1583(%rbp), %rax
	movq	%rax, 2104(%rbp)
	nop
	nop
	leaq	1583(%rbp), %rdx
	leaq	96(%rbp), %rax
	movq	%rdx, %r8
	leaq	.LC73(%rip), %rdx
	movq	%rax, %rcx
.LEHB116:
	call	_ZNSt7__cxx1112basic_stringIcSt11char_traitsIcESaIcEEC1IS3_EEPKcRKS3_
.LEHE116:
	leaq	1583(%rbp), %rax
	movq	%rax, %rcx
	call	_ZNSt15__new_allocatorIcED2Ev
	nop
	leaq	704(%rbp), %rax
	movq	%rax, 2192(%rbp)
	movq	2192(%rbp), %rax
	movq	%rax, %rcx
	call	_ZNSt6vectorISt10unique_ptrI7ASTNodeSt14default_deleteIS1_EESaIS4_EE5beginEv
	movq	%rax, 88(%rbp)
	movq	2192(%rbp), %rax
	movq	%rax, %rcx
	call	_ZNSt6vectorISt10unique_ptrI7ASTNodeSt14default_deleteIS1_EESaIS4_EE3endEv
	movq	%rax, 80(%rbp)
	jmp	.L394
.L410:
	leaq	88(%rbp), %rax
	movq	%rax, %rcx
	call	_ZNK9__gnu_cxx17__normal_iteratorIPSt10unique_ptrI7ASTNodeSt14default_deleteIS2_EESt6vectorIS5_SaIS5_EEEdeEv
	movq	%rax, 2152(%rbp)
	movq	2152(%rbp), %rax
	movq	%rax, %rcx
	call	_ZNKSt10unique_ptrI7ASTNodeSt14default_deleteIS0_EE3getEv
	testq	%rax, %rax
	je	.L395
	movl	$0, %r9d
	leaq	_ZTI13VarAssignNode(%rip), %r8
	leaq	_ZTI7ASTNode(%rip), %rdx
	movq	%rax, %rcx
	call	__dynamic_cast
	jmp	.L396
.L395:
	movl	$0, %eax
.L396:
	movq	%rax, 2144(%rbp)
	cmpq	$0, 2144(%rbp)
	je	.L397
	movq	2144(%rbp), %rax
	movq	(%rax), %rax
	addq	$16, %rax
	movq	(%rax), %r8
	leaq	-64(%rbp), %rax
	movq	2144(%rbp), %rdx
	movq	%rax, %rcx
.LEHB117:
	call	*%r8
.LEHE117:
	movq	2144(%rbp), %rax
	leaq	8(%rax), %rdx
	leaq	1584(%rbp), %rax
	leaq	.LC74(%rip), %r8
	movq	%rax, %rcx
.LEHB118:
	call	_ZStplIcSt11char_traitsIcESaIcEENSt7__cxx1112basic_stringIT_T0_T1_EERKS8_PKS5_
	leaq	1584(%rbp), %rdx
	leaq	-64(%rbp), %rax
	movl	$0, %r8d
	movq	%rax, %rcx
	call	_ZNKSt7__cxx1112basic_stringIcSt11char_traitsIcESaIcEE4findERKS4_y
	testq	%rax, %rax
	sete	%sil
	leaq	1584(%rbp), %rax
	movq	%rax, %rcx
	call	_ZNSt7__cxx1112basic_stringIcSt11char_traitsIcESaIcEED1Ev
	testb	%sil, %sil
	je	.L398
	leaq	.LC75(%rip), %rax
	movq	%rax, %rdx
	movq	.refptr._ZSt4cerr(%rip), %rax
	movq	%rax, %rcx
	call	_ZStlsISt11char_traitsIcEERSt13basic_ostreamIcT_ES5_PKc
	movq	%rax, %rcx
	movq	2144(%rbp), %rax
	addq	$8, %rax
	movq	%rax, %rdx
	call	_ZStlsIcSt11char_traitsIcESaIcEERSt13basic_ostreamIT_T0_ES7_RKNSt7__cxx1112basic_stringIS4_S5_T1_EE
	movq	%rax, %rcx
	leaq	.LC76(%rip), %rax
	movq	%rax, %rdx
	call	_ZStlsISt11char_traitsIcEERSt13basic_ostreamIcT_ES5_PKc
	movq	%rax, %rcx
	leaq	.LC77(%rip), %rax
	movq	%rax, %rdx
	call	_ZStlsISt11char_traitsIcEERSt13basic_ostreamIcT_ES5_PKc
	movq	%rax, %rcx
	movq	2144(%rbp), %rax
	addq	$8, %rax
	movq	%rax, %rdx
	call	_ZStlsIcSt11char_traitsIcESaIcEERSt13basic_ostreamIT_T0_ES7_RKNSt7__cxx1112basic_stringIS4_S5_T1_EE
	movq	%rax, %rcx
	leaq	.LC78(%rip), %rax
	movq	%rax, %rdx
	call	_ZStlsISt11char_traitsIcEERSt13basic_ostreamIcT_ES5_PKc
	movq	%rax, %rcx
	movq	.refptr._ZSt4endlIcSt11char_traitsIcEERSt13basic_ostreamIT_T0_ES6_(%rip), %rax
	movq	%rax, %rdx
	call	_ZNSolsEPFRSoS_E
	leaq	224(%rbp), %rax
	movq	%rax, %rcx
	call	_ZNSt14basic_ofstreamIcSt11char_traitsIcEE5closeEv
	leaq	.LC71(%rip), %rax
	movq	%rax, %rcx
	call	remove
	movl	$1, %ebx
	movl	$0, %esi
	jmp	.L399
.L398:
	leaq	-64(%rbp), %rdx
	leaq	160(%rbp), %rax
	movq	%rax, %rcx
	call	_ZNSt7__cxx1112basic_stringIcSt11char_traitsIcESaIcEEpLERKS4_
.LEHE118:
	movl	$1, %esi
.L399:
	leaq	-64(%rbp), %rax
	movq	%rax, %rcx
	call	_ZNSt7__cxx1112basic_stringIcSt11char_traitsIcESaIcEED1Ev
	cmpl	$1, %esi
	jne	.L402
	jmp	.L401
.L397:
	movq	2152(%rbp), %rax
	movq	%rax, %rcx
	call	_ZNKSt10unique_ptrI7ASTNodeSt14default_deleteIS0_EEptEv
	movq	(%rax), %rdx
	addq	$16, %rdx
	movq	(%rdx), %r8
	leaq	-64(%rbp), %rcx
	movq	%rax, %rdx
.LEHB119:
	call	*%r8
.LEHE119:
	leaq	-64(%rbp), %rax
	movl	$0, %r8d
	leaq	.LC79(%rip), %rdx
	movq	%rax, %rcx
	call	_ZNKSt7__cxx1112basic_stringIcSt11char_traitsIcESaIcEE4findEPKcy
	cmpq	$-1, %rax
	setne	%al
	testb	%al, %al
	je	.L403
	movb	$1, 2207(%rbp)
.L403:
	leaq	-64(%rbp), %rax
	movl	$0, %r8d
	leaq	.LC80(%rip), %rdx
	movq	%rax, %rcx
	call	_ZNKSt7__cxx1112basic_stringIcSt11char_traitsIcESaIcEE4findEPKcy
	cmpq	$-1, %rax
	jne	.L404
	leaq	-64(%rbp), %rax
	movl	$0, %r8d
	leaq	.LC81(%rip), %rdx
	movq	%rax, %rcx
	call	_ZNKSt7__cxx1112basic_stringIcSt11char_traitsIcESaIcEE4findEPKcy
	cmpq	$-1, %rax
	jne	.L404
	leaq	-64(%rbp), %rax
	movl	$0, %r8d
	leaq	.LC82(%rip), %rdx
	movq	%rax, %rcx
	call	_ZNKSt7__cxx1112basic_stringIcSt11char_traitsIcESaIcEE4findEPKcy
	cmpq	$-1, %rax
	jne	.L404
	leaq	-64(%rbp), %rax
	movl	$0, %r8d
	leaq	.LC83(%rip), %rdx
	movq	%rax, %rcx
	call	_ZNKSt7__cxx1112basic_stringIcSt11char_traitsIcESaIcEE4findEPKcy
	cmpq	$-1, %rax
	je	.L405
.L404:
	movl	$1, %eax
	jmp	.L406
.L405:
	movl	$0, %eax
.L406:
	testb	%al, %al
	je	.L407
	movb	$1, 2204(%rbp)
.L407:
	leaq	-64(%rbp), %rax
	movl	$0, %r8d
	leaq	.LC84(%rip), %rdx
	movq	%rax, %rcx
	call	_ZNKSt7__cxx1112basic_stringIcSt11char_traitsIcESaIcEE4findEPKcy
	cmpq	$-1, %rax
	setne	%al
	testb	%al, %al
	je	.L408
	movb	$1, 2205(%rbp)
.L408:
	leaq	-64(%rbp), %rax
	movl	$0, %r8d
	leaq	.LC85(%rip), %rdx
	movq	%rax, %rcx
	call	_ZNKSt7__cxx1112basic_stringIcSt11char_traitsIcESaIcEE4findEPKcy
	cmpq	$-1, %rax
	setne	%al
	testb	%al, %al
	je	.L409
	movb	$1, 2206(%rbp)
.L409:
	leaq	1616(%rbp), %rax
	leaq	-64(%rbp), %rdx
	leaq	.LC7(%rip), %r8
	movq	%rax, %rcx
.LEHB120:
	call	_ZStplIcSt11char_traitsIcESaIcEENSt7__cxx1112basic_stringIT_T0_T1_EERKS8_PKS5_
.LEHE120:
	leaq	1616(%rbp), %rdx
	leaq	128(%rbp), %rax
	movq	%rax, %rcx
.LEHB121:
	call	_ZNSt7__cxx1112basic_stringIcSt11char_traitsIcESaIcEEpLERKS4_
.LEHE121:
	leaq	1616(%rbp), %rax
	movq	%rax, %rcx
	call	_ZNSt7__cxx1112basic_stringIcSt11char_traitsIcESaIcEED1Ev
	leaq	-64(%rbp), %rax
	movq	%rax, %rcx
	call	_ZNSt7__cxx1112basic_stringIcSt11char_traitsIcESaIcEED1Ev
.L401:
	leaq	88(%rbp), %rax
	movq	%rax, %rcx
	call	_ZN9__gnu_cxx17__normal_iteratorIPSt10unique_ptrI7ASTNodeSt14default_deleteIS2_EESt6vectorIS5_SaIS5_EEEppEv
.L394:
	leaq	80(%rbp), %rdx
	leaq	88(%rbp), %rax
	movq	%rax, %rcx
	call	_ZN9__gnu_cxxneIPSt10unique_ptrI7ASTNodeSt14default_deleteIS2_EESt6vectorIS5_SaIS5_EEEEbRKNS_17__normal_iteratorIT_T0_EESF_
	testb	%al, %al
	jne	.L410
	leaq	_Z17includedLibrariesB5cxx11(%rip), %rax
	movq	%rax, %rcx
	call	_ZNKSt3setINSt7__cxx1112basic_stringIcSt11char_traitsIcESaIcEEESt4lessIS5_ESaIS5_EE5emptyEv
	xorl	$1, %eax
	testb	%al, %al
	je	.L411
	leaq	_Z17includedLibrariesB5cxx11(%rip), %rax
	movq	%rax, 2184(%rbp)
	movq	2184(%rbp), %rax
	movq	%rax, %rcx
	call	_ZNKSt3setINSt7__cxx1112basic_stringIcSt11char_traitsIcESaIcEEESt4lessIS5_ESaIS5_EE5beginEv
	movq	%rax, 72(%rbp)
	movq	2184(%rbp), %rax
	movq	%rax, %rcx
	call	_ZNKSt3setINSt7__cxx1112basic_stringIcSt11char_traitsIcESaIcEEESt4lessIS5_ESaIS5_EE3endEv
	movq	%rax, 64(%rbp)
	jmp	.L412
.L413:
	leaq	72(%rbp), %rax
	movq	%rax, %rcx
	call	_ZNKSt23_Rb_tree_const_iteratorINSt7__cxx1112basic_stringIcSt11char_traitsIcESaIcEEEEdeEv
	movq	%rax, 2176(%rbp)
	leaq	1680(%rbp), %rax
	movq	2176(%rbp), %rdx
	movq	%rdx, %r8
	leaq	.LC86(%rip), %rdx
	movq	%rax, %rcx
.LEHB122:
	call	_ZStplIcSt11char_traitsIcESaIcEENSt7__cxx1112basic_stringIT_T0_T1_EEPKS5_RKS8_
.LEHE122:
	leaq	1648(%rbp), %rax
	leaq	1680(%rbp), %rdx
	leaq	.LC87(%rip), %r8
	movq	%rax, %rcx
.LEHB123:
	call	_ZStplIcSt11char_traitsIcESaIcEENSt7__cxx1112basic_stringIT_T0_T1_EEOS8_PKS5_
.LEHE123:
	leaq	1648(%rbp), %rdx
	leaq	192(%rbp), %rax
	movq	%rax, %rcx
.LEHB124:
	call	_ZNSt7__cxx1112basic_stringIcSt11char_traitsIcESaIcEEpLERKS4_
.LEHE124:
	leaq	1648(%rbp), %rax
	movq	%rax, %rcx
	call	_ZNSt7__cxx1112basic_stringIcSt11char_traitsIcESaIcEED1Ev
	leaq	1680(%rbp), %rax
	movq	%rax, %rcx
	call	_ZNSt7__cxx1112basic_stringIcSt11char_traitsIcESaIcEED1Ev
	leaq	72(%rbp), %rax
	movq	%rax, %rcx
	call	_ZNSt23_Rb_tree_const_iteratorINSt7__cxx1112basic_stringIcSt11char_traitsIcESaIcEEEEppEv
.L412:
	leaq	64(%rbp), %rdx
	leaq	72(%rbp), %rax
	movq	%rax, %rcx
	call	_ZStneRKSt23_Rb_tree_const_iteratorINSt7__cxx1112basic_stringIcSt11char_traitsIcESaIcEEEES8_
	testb	%al, %al
	jne	.L413
.L411:
	leaq	96(%rbp), %rdx
	leaq	224(%rbp), %rax
	movq	%rax, %rcx
.LEHB125:
	call	_ZStlsIcSt11char_traitsIcESaIcEERSt13basic_ostreamIT_T0_ES7_RKNSt7__cxx1112basic_stringIS4_S5_T1_EE
	movq	%rax, %rcx
	leaq	.LC7(%rip), %rax
	movq	%rax, %rdx
	call	_ZStlsISt11char_traitsIcEERSt13basic_ostreamIcT_ES5_PKc
	leaq	192(%rbp), %rdx
	leaq	224(%rbp), %rax
	movq	%rax, %rcx
	call	_ZStlsIcSt11char_traitsIcESaIcEERSt13basic_ostreamIT_T0_ES7_RKNSt7__cxx1112basic_stringIS4_S5_T1_EE
	movq	%rax, %rcx
	leaq	.LC7(%rip), %rax
	movq	%rax, %rdx
	call	_ZStlsISt11char_traitsIcEERSt13basic_ostreamIcT_ES5_PKc
	leaq	160(%rbp), %rdx
	leaq	224(%rbp), %rax
	movq	%rax, %rcx
	call	_ZStlsIcSt11char_traitsIcESaIcEERSt13basic_ostreamIT_T0_ES7_RKNSt7__cxx1112basic_stringIS4_S5_T1_EE
	movq	%rax, %rcx
	leaq	.LC7(%rip), %rax
	movq	%rax, %rdx
	call	_ZStlsISt11char_traitsIcEERSt13basic_ostreamIcT_ES5_PKc
.LEHE125:
	movzbl	2207(%rbp), %eax
	xorl	$1, %eax
	testb	%al, %al
	je	.L414
	leaq	32(%rbp), %rax
	movq	%rax, %rcx
	call	_ZNSt6vectorISt10unique_ptrI7ASTNodeSt14default_deleteIS1_EESaIS4_EEC1Ev
	movzbl	2205(%rbp), %eax
	xorl	$1, %eax
	testb	%al, %al
	je	.L415
	cmpb	$0, 2204(%rbp)
	je	.L415
	movq	%rbp, %rax
	movq	%rax, %rcx
	call	_ZNSt6vectorISt10unique_ptrI7ASTNodeSt14default_deleteIS1_EESaIS4_EEC1Ev
	movb	$0, 1743(%rbp)
	leaq	1728(%rbp), %rax
	leaq	1743(%rbp), %rdx
	movq	%rdx, %r8
	leaq	.LC88(%rip), %rdx
	movq	%rax, %rcx
.LEHB126:
	call	_ZSt11make_uniqueI11LiteralNodeJRA5_KcbEENSt8__detail9_MakeUniqIT_E15__single_objectEDpOT0_
.LEHE126:
	leaq	1728(%rbp), %rdx
	leaq	1720(%rbp), %rax
	movq	%rax, %rcx
	call	_ZNSt10unique_ptrI7ASTNodeSt14default_deleteIS0_EEC1I11LiteralNodeS1_IS5_EvEEOS_IT_T0_E
	leaq	1720(%rbp), %rdx
	movq	%rbp, %rax
	movq	%rax, %rcx
.LEHB127:
	call	_ZNSt6vectorISt10unique_ptrI7ASTNodeSt14default_deleteIS1_EESaIS4_EE9push_backEOS4_
.LEHE127:
	leaq	1720(%rbp), %rax
	movq	%rax, %rcx
	call	_ZNSt10unique_ptrI7ASTNodeSt14default_deleteIS0_EED1Ev
	leaq	1728(%rbp), %rax
	movq	%rax, %rcx
	call	_ZNSt10unique_ptrI11LiteralNodeSt14default_deleteIS0_EED1Ev
	movq	%rbp, %rax
	movq	%rax, %rcx
	call	_ZSt4moveIRSt6vectorISt10unique_ptrI7ASTNodeSt14default_deleteIS2_EESaIS5_EEEONSt16remove_referenceIT_E4typeEOSA_
	movq	%rax, %rdx
	leaq	1752(%rbp), %rax
	movq	%rdx, %r8
	leaq	.LC84(%rip), %rdx
	movq	%rax, %rcx
.LEHB128:
	call	_ZSt11make_uniqueI16FunctionCallNodeJRA13_KcSt6vectorISt10unique_ptrI7ASTNodeSt14default_deleteIS6_EESaIS9_EEEENSt8__detail9_MakeUniqIT_E15__single_objectEDpOT0_
.LEHE128:
	leaq	1752(%rbp), %rdx
	leaq	1744(%rbp), %rax
	movq	%rax, %rcx
	call	_ZNSt10unique_ptrI7ASTNodeSt14default_deleteIS0_EEC1I16FunctionCallNodeS1_IS5_EvEEOS_IT_T0_E
	leaq	1744(%rbp), %rdx
	leaq	32(%rbp), %rax
	movq	%rax, %rcx
.LEHB129:
	call	_ZNSt6vectorISt10unique_ptrI7ASTNodeSt14default_deleteIS1_EESaIS4_EE9push_backEOS4_
.LEHE129:
	leaq	1744(%rbp), %rax
	movq	%rax, %rcx
	call	_ZNSt10unique_ptrI7ASTNodeSt14default_deleteIS0_EED1Ev
	leaq	1752(%rbp), %rax
	movq	%rax, %rcx
	call	_ZNSt10unique_ptrI16FunctionCallNodeSt14default_deleteIS0_EED1Ev
	movq	%rbp, %rax
	movq	%rax, %rcx
	call	_ZNSt6vectorISt10unique_ptrI7ASTNodeSt14default_deleteIS1_EESaIS4_EED1Ev
.L415:
	leaq	32(%rbp), %rax
	movq	%rax, %rcx
	call	_ZSt4moveIRSt6vectorISt10unique_ptrI7ASTNodeSt14default_deleteIS2_EESaIS5_EEEONSt16remove_referenceIT_E4typeEOSA_
	movq	%rax, %rdx
	leaq	1760(%rbp), %rax
	movq	%rax, %rcx
	call	_ZNSt6vectorISt10unique_ptrI7ASTNodeSt14default_deleteIS1_EESaIS4_EEC1EOS6_
	leaq	1839(%rbp), %rax
	movq	%rax, 2096(%rbp)
	nop
	nop
	leaq	1839(%rbp), %rdx
	leaq	1792(%rbp), %rax
	movq	%rdx, %r8
	leaq	.LC1(%rip), %rdx
	movq	%rax, %rcx
.LEHB130:
	call	_ZNSt7__cxx1112basic_stringIcSt11char_traitsIcESaIcEEC1IS3_EEPKcRKS3_
.LEHE130:
	leaq	1760(%rbp), %rcx
	leaq	1792(%rbp), %rdx
	leaq	-64(%rbp), %rax
	movq	%rcx, %r8
	movq	%rax, %rcx
.LEHB131:
	call	_ZN12FunctionNodeC1ERKNSt7__cxx1112basic_stringIcSt11char_traitsIcESaIcEEESt6vectorISt10unique_ptrI7ASTNodeSt14default_deleteISA_EESaISD_EE
.LEHE131:
	leaq	1792(%rbp), %rax
	movq	%rax, %rcx
	call	_ZNSt7__cxx1112basic_stringIcSt11char_traitsIcESaIcEED1Ev
	leaq	1839(%rbp), %rax
	movq	%rax, %rcx
	call	_ZNSt15__new_allocatorIcED2Ev
	nop
	leaq	1760(%rbp), %rax
	movq	%rax, %rcx
	call	_ZNSt6vectorISt10unique_ptrI7ASTNodeSt14default_deleteIS1_EESaIS4_EED1Ev
	leaq	1840(%rbp), %rax
	leaq	-64(%rbp), %rdx
	movq	%rax, %rcx
.LEHB132:
	call	_ZN12FunctionNode5toCppB5cxx11Ev
.LEHE132:
	leaq	1840(%rbp), %rdx
	leaq	224(%rbp), %rax
	movq	%rax, %rcx
.LEHB133:
	call	_ZStlsIcSt11char_traitsIcESaIcEERSt13basic_ostreamIT_T0_ES7_RKNSt7__cxx1112basic_stringIS4_S5_T1_EE
	movq	%rax, %rcx
	leaq	.LC7(%rip), %rax
	movq	%rax, %rdx
	call	_ZStlsISt11char_traitsIcEERSt13basic_ostreamIcT_ES5_PKc
.LEHE133:
	leaq	1840(%rbp), %rax
	movq	%rax, %rcx
	call	_ZNSt7__cxx1112basic_stringIcSt11char_traitsIcESaIcEED1Ev
	leaq	-64(%rbp), %rax
	movq	%rax, %rcx
	call	_ZN12FunctionNodeD1Ev
	leaq	32(%rbp), %rax
	movq	%rax, %rcx
	call	_ZNSt6vectorISt10unique_ptrI7ASTNodeSt14default_deleteIS1_EESaIS4_EED1Ev
	jmp	.L416
.L414:
	movzbl	2205(%rbp), %eax
	xorl	$1, %eax
	testb	%al, %al
	je	.L416
	cmpb	$0, 2204(%rbp)
	je	.L416
	leaq	128(%rbp), %rax
	movl	$0, %r8d
	leaq	.LC89(%rip), %rdx
	movq	%rax, %rcx
	call	_ZNKSt7__cxx1112basic_stringIcSt11char_traitsIcESaIcEE4findEPKcy
	movq	%rax, 2168(%rbp)
	cmpq	$-1, 2168(%rbp)
	je	.L416
	movq	2168(%rbp), %rdx
	leaq	128(%rbp), %rax
	movq	%rdx, %r8
	movl	$10, %edx
	movq	%rax, %rcx
	call	_ZNKSt7__cxx1112basic_stringIcSt11char_traitsIcESaIcEE4findEcy
	addq	$1, %rax
	movq	%rax, 2160(%rbp)
	movq	2160(%rbp), %rdx
	leaq	128(%rbp), %rax
	leaq	.LC90(%rip), %r8
	movq	%rax, %rcx
.LEHB134:
	call	_ZNSt7__cxx1112basic_stringIcSt11char_traitsIcESaIcEE6insertEyPKc
.L416:
	leaq	128(%rbp), %rdx
	leaq	224(%rbp), %rax
	movq	%rax, %rcx
	call	_ZStlsIcSt11char_traitsIcESaIcEERSt13basic_ostreamIT_T0_ES7_RKNSt7__cxx1112basic_stringIS4_S5_T1_EE
.LEHE134:
	movzbl	2206(%rbp), %eax
	xorl	$1, %eax
	testb	%al, %al
	je	.L417
	pxor	%xmm0, %xmm0
	movaps	%xmm0, 1872(%rbp)
	movq	%xmm0, 1888(%rbp)
	leaq	1872(%rbp), %rax
	movq	%rax, %rcx
	call	_ZNSt6vectorISt10unique_ptrI7ASTNodeSt14default_deleteIS1_EESaIS4_EEC1Ev
	leaq	1951(%rbp), %rax
	movq	%rax, 2088(%rbp)
	nop
	nop
	leaq	1951(%rbp), %rdx
	leaq	1904(%rbp), %rax
	movq	%rdx, %r8
	leaq	.LC91(%rip), %rdx
	movq	%rax, %rcx
.LEHB135:
	call	_ZNSt7__cxx1112basic_stringIcSt11char_traitsIcESaIcEEC1IS3_EEPKcRKS3_
.LEHE135:
	leaq	1872(%rbp), %rcx
	leaq	1904(%rbp), %rdx
	leaq	-64(%rbp), %rax
	movq	%rcx, %r8
	movq	%rax, %rcx
.LEHB136:
	call	_ZN12FunctionNodeC1ERKNSt7__cxx1112basic_stringIcSt11char_traitsIcESaIcEEESt6vectorISt10unique_ptrI7ASTNodeSt14default_deleteISA_EESaISD_EE
.LEHE136:
	leaq	1904(%rbp), %rax
	movq	%rax, %rcx
	call	_ZNSt7__cxx1112basic_stringIcSt11char_traitsIcESaIcEED1Ev
	leaq	1951(%rbp), %rax
	movq	%rax, %rcx
	call	_ZNSt15__new_allocatorIcED2Ev
	nop
	leaq	1872(%rbp), %rax
	movq	%rax, %rcx
	call	_ZNSt6vectorISt10unique_ptrI7ASTNodeSt14default_deleteIS1_EESaIS4_EED1Ev
	leaq	1952(%rbp), %rax
	leaq	-64(%rbp), %rdx
	movq	%rax, %rcx
.LEHB137:
	call	_ZN12FunctionNode5toCppB5cxx11Ev
.LEHE137:
	leaq	1952(%rbp), %rdx
	leaq	224(%rbp), %rax
	movq	%rax, %rcx
.LEHB138:
	call	_ZStlsIcSt11char_traitsIcESaIcEERSt13basic_ostreamIT_T0_ES7_RKNSt7__cxx1112basic_stringIS4_S5_T1_EE
.LEHE138:
	leaq	1952(%rbp), %rax
	movq	%rax, %rcx
	call	_ZNSt7__cxx1112basic_stringIcSt11char_traitsIcESaIcEED1Ev
	leaq	-64(%rbp), %rax
	movq	%rax, %rcx
	call	_ZN12FunctionNodeD1Ev
.L417:
	leaq	224(%rbp), %rax
	movq	%rax, %rcx
.LEHB139:
	call	_ZNSt14basic_ofstreamIcSt11char_traitsIcEE5closeEv
	leaq	1984(%rbp), %rax
	movl	$2, %r8d
	leaq	.LC92(%rip), %rdx
	movq	%rax, %rcx
	call	_ZNSt10filesystem7__cxx114pathC1IA23_cS1_EERKT_NS1_6formatE
.LEHE139:
	leaq	1984(%rbp), %rax
	movq	%rax, %rcx
.LEHB140:
	call	_ZNSt10filesystem6existsERKNS_7__cxx114pathE
.LEHE140:
	xorl	$1, %eax
	movl	%eax, %ebx
	leaq	1984(%rbp), %rax
	movq	%rax, %rcx
	call	_ZNSt10filesystem7__cxx114pathD1Ev
	testb	%bl, %bl
	je	.L418
	leaq	.LC93(%rip), %rax
	movq	%rax, %rdx
	movq	.refptr._ZSt4cerr(%rip), %rax
	movq	%rax, %rcx
.LEHB141:
	call	_ZStlsISt11char_traitsIcEERSt13basic_ostreamIcT_ES5_PKc
	movq	%rax, %rcx
	movq	.refptr._ZSt4endlIcSt11char_traitsIcEERSt13basic_ostreamIT_T0_ES6_(%rip), %rax
	movq	%rax, %rdx
	call	_ZNSolsEPFRSoS_E
	movl	$1, %ebx
	jmp	.L402
.L418:
	call	_Z16installLibrariesv
	call	_Z11compileCodev
.LEHE141:
	movl	$0, %ebx
	movl	$0, %esi
	cmpl	$2, 2256(%rbp)
	jle	.L419
	leaq	2079(%rbp), %rax
	movq	%rax, 2080(%rbp)
	nop
	nop
	movl	$1, %ebx
	movq	2264(%rbp), %rax
	addq	$16, %rax
	movq	(%rax), %rdx
	leaq	2079(%rbp), %rcx
	leaq	2032(%rbp), %rax
	movq	%rcx, %r8
	movq	%rax, %rcx
.LEHB142:
	call	_ZNSt7__cxx1112basic_stringIcSt11char_traitsIcESaIcEEC1IS3_EEPKcRKS3_
	movl	$1, %esi
	leaq	2032(%rbp), %rax
	leaq	.LC94(%rip), %rdx
	movq	%rax, %rcx
	call	_ZSteqIcSt11char_traitsIcESaIcEEbRKNSt7__cxx1112basic_stringIT_T0_T1_EEPKS5_
.LEHE142:
	testb	%al, %al
	je	.L419
	movl	$1, %edi
	jmp	.L420
.L419:
	movl	$0, %edi
.L420:
	testb	%sil, %sil
	je	.L421
	leaq	2032(%rbp), %rax
	movq	%rax, %rcx
	call	_ZNSt7__cxx1112basic_stringIcSt11char_traitsIcESaIcEED1Ev
.L421:
	testb	%bl, %bl
	je	.L422
	leaq	2079(%rbp), %rax
	movq	%rax, %rcx
	call	_ZNSt15__new_allocatorIcED2Ev
	nop
.L422:
	testb	%dil, %dil
	je	.L423
.LEHB143:
	call	_Z10uploadCodev
.LEHE143:
.L423:
	movl	$0, %ebx
.L402:
	leaq	96(%rbp), %rax
	movq	%rax, %rcx
	call	_ZNSt7__cxx1112basic_stringIcSt11char_traitsIcESaIcEED1Ev
	leaq	128(%rbp), %rax
	movq	%rax, %rcx
	call	_ZNSt7__cxx1112basic_stringIcSt11char_traitsIcESaIcEED1Ev
	leaq	160(%rbp), %rax
	movq	%rax, %rcx
	call	_ZNSt7__cxx1112basic_stringIcSt11char_traitsIcESaIcEED1Ev
	leaq	192(%rbp), %rax
	movq	%rax, %rcx
	call	_ZNSt7__cxx1112basic_stringIcSt11char_traitsIcESaIcEED1Ev
.L393:
	leaq	224(%rbp), %rax
	movq	%rax, %rcx
	call	_ZNSt14basic_ofstreamIcSt11char_traitsIcEED1Ev
	leaq	704(%rbp), %rax
	movq	%rax, %rcx
	call	_ZNSt6vectorISt10unique_ptrI7ASTNodeSt14default_deleteIS1_EESaIS4_EED1Ev
	leaq	736(%rbp), %rax
	movq	%rax, %rcx
	call	_ZN6ParserD1Ev
	leaq	816(%rbp), %rax
	movq	%rax, %rcx
	call	_ZNSt6vectorI5TokenSaIS0_EED1Ev
	leaq	848(%rbp), %rax
	movq	%rax, %rcx
	call	_ZN5LexerD1Ev
	leaq	928(%rbp), %rax
	movq	%rax, %rcx
	call	_ZNSt7__cxx1112basic_stringIcSt11char_traitsIcESaIcEED1Ev
.L391:
	leaq	960(%rbp), %rax
	movq	%rax, %rcx
	call	_ZNSt14basic_ifstreamIcSt11char_traitsIcEED1Ev
	leaq	1456(%rbp), %rax
	movq	%rax, %rcx
	call	_ZNSt7__cxx1112basic_stringIcSt11char_traitsIcESaIcEED1Ev
	movl	%ebx, %eax
	jmp	.L497
.L466:
	movq	%rax, %rbx
	leaq	1503(%rbp), %rax
	movq	%rax, %rcx
	call	_ZNSt15__new_allocatorIcED2Ev
	nop
	jmp	.L426
.L471:
	movq	%rax, %rbx
	leaq	1536(%rbp), %rax
	movq	%rax, %rcx
	call	_ZNSt10filesystem7__cxx114pathD1Ev
	jmp	.L428
.L474:
	movq	%rax, %rbx
	leaq	1580(%rbp), %rax
	movq	%rax, %rcx
	call	_ZNSt15__new_allocatorIcED2Ev
	nop
	jmp	.L430
.L475:
	movq	%rax, %rbx
	leaq	1581(%rbp), %rax
	movq	%rax, %rcx
	call	_ZNSt15__new_allocatorIcED2Ev
	nop
	jmp	.L432
.L476:
	movq	%rax, %rbx
	leaq	1582(%rbp), %rax
	movq	%rax, %rcx
	call	_ZNSt15__new_allocatorIcED2Ev
	nop
	jmp	.L434
.L477:
	movq	%rax, %rbx
	leaq	1583(%rbp), %rax
	movq	%rax, %rcx
	call	_ZNSt15__new_allocatorIcED2Ev
	nop
	jmp	.L436
.L478:
	movq	%rax, %rbx
	leaq	-64(%rbp), %rax
	movq	%rax, %rcx
	call	_ZNSt7__cxx1112basic_stringIcSt11char_traitsIcESaIcEED1Ev
	jmp	.L438
.L480:
	movq	%rax, %rbx
	leaq	1616(%rbp), %rax
	movq	%rax, %rcx
	call	_ZNSt7__cxx1112basic_stringIcSt11char_traitsIcESaIcEED1Ev
	jmp	.L440
.L479:
	movq	%rax, %rbx
.L440:
	leaq	-64(%rbp), %rax
	movq	%rax, %rcx
	call	_ZNSt7__cxx1112basic_stringIcSt11char_traitsIcESaIcEED1Ev
	jmp	.L438
.L483:
	movq	%rax, %rbx
	leaq	1648(%rbp), %rax
	movq	%rax, %rcx
	call	_ZNSt7__cxx1112basic_stringIcSt11char_traitsIcESaIcEED1Ev
	jmp	.L442
.L482:
	movq	%rax, %rbx
.L442:
	leaq	1680(%rbp), %rax
	movq	%rax, %rcx
	call	_ZNSt7__cxx1112basic_stringIcSt11char_traitsIcESaIcEED1Ev
	jmp	.L438
.L484:
	movq	%rax, %rbx
	leaq	1720(%rbp), %rax
	movq	%rax, %rcx
	call	_ZNSt10unique_ptrI7ASTNodeSt14default_deleteIS0_EED1Ev
	leaq	1728(%rbp), %rax
	movq	%rax, %rcx
	call	_ZNSt10unique_ptrI11LiteralNodeSt14default_deleteIS0_EED1Ev
	jmp	.L444
.L486:
	movq	%rax, %rbx
	leaq	1744(%rbp), %rax
	movq	%rax, %rcx
	call	_ZNSt10unique_ptrI7ASTNodeSt14default_deleteIS0_EED1Ev
	leaq	1752(%rbp), %rax
	movq	%rax, %rcx
	call	_ZNSt10unique_ptrI16FunctionCallNodeSt14default_deleteIS0_EED1Ev
	jmp	.L444
.L485:
	movq	%rax, %rbx
.L444:
	movq	%rbp, %rax
	movq	%rax, %rcx
	call	_ZNSt6vectorISt10unique_ptrI7ASTNodeSt14default_deleteIS1_EESaIS4_EED1Ev
	jmp	.L446
.L488:
	movq	%rax, %rbx
	leaq	1792(%rbp), %rax
	movq	%rax, %rcx
	call	_ZNSt7__cxx1112basic_stringIcSt11char_traitsIcESaIcEED1Ev
	jmp	.L448
.L487:
	movq	%rax, %rbx
.L448:
	leaq	1839(%rbp), %rax
	movq	%rax, %rcx
	call	_ZNSt15__new_allocatorIcED2Ev
	nop
	leaq	1760(%rbp), %rax
	movq	%rax, %rcx
	call	_ZNSt6vectorISt10unique_ptrI7ASTNodeSt14default_deleteIS1_EESaIS4_EED1Ev
	jmp	.L446
.L490:
	movq	%rax, %rbx
	leaq	1840(%rbp), %rax
	movq	%rax, %rcx
	call	_ZNSt7__cxx1112basic_stringIcSt11char_traitsIcESaIcEED1Ev
	jmp	.L450
.L489:
	movq	%rax, %rbx
.L450:
	leaq	-64(%rbp), %rax
	movq	%rax, %rcx
	call	_ZN12FunctionNodeD1Ev
.L446:
	leaq	32(%rbp), %rax
	movq	%rax, %rcx
	call	_ZNSt6vectorISt10unique_ptrI7ASTNodeSt14default_deleteIS1_EESaIS4_EED1Ev
	jmp	.L438
.L492:
	movq	%rax, %rbx
	leaq	1904(%rbp), %rax
	movq	%rax, %rcx
	call	_ZNSt7__cxx1112basic_stringIcSt11char_traitsIcESaIcEED1Ev
	jmp	.L452
.L491:
	movq	%rax, %rbx
.L452:
	leaq	1951(%rbp), %rax
	movq	%rax, %rcx
	call	_ZNSt15__new_allocatorIcED2Ev
	nop
	leaq	1872(%rbp), %rax
	movq	%rax, %rcx
	call	_ZNSt6vectorISt10unique_ptrI7ASTNodeSt14default_deleteIS1_EESaIS4_EED1Ev
	jmp	.L438
.L494:
	movq	%rax, %rbx
	leaq	1952(%rbp), %rax
	movq	%rax, %rcx
	call	_ZNSt7__cxx1112basic_stringIcSt11char_traitsIcESaIcEED1Ev
	jmp	.L454
.L493:
	movq	%rax, %rbx
.L454:
	leaq	-64(%rbp), %rax
	movq	%rax, %rcx
	call	_ZN12FunctionNodeD1Ev
	jmp	.L438
.L495:
	movq	%rax, %rbx
	leaq	1984(%rbp), %rax
	movq	%rax, %rcx
	call	_ZNSt10filesystem7__cxx114pathD1Ev
	jmp	.L438
.L496:
	movq	%rax, %rdi
	testb	%sil, %sil
	je	.L457
	leaq	2032(%rbp), %rax
	movq	%rax, %rcx
	call	_ZNSt7__cxx1112basic_stringIcSt11char_traitsIcESaIcEED1Ev
.L457:
	movq	%rdi, %rsi
	testb	%bl, %bl
	je	.L458
	leaq	2079(%rbp), %rax
	movq	%rax, %rcx
	call	_ZNSt15__new_allocatorIcED2Ev
	nop
.L458:
	movq	%rsi, %rbx
	jmp	.L438
.L481:
	movq	%rax, %rbx
.L438:
	leaq	96(%rbp), %rax
	movq	%rax, %rcx
	call	_ZNSt7__cxx1112basic_stringIcSt11char_traitsIcESaIcEED1Ev
.L436:
	leaq	128(%rbp), %rax
	movq	%rax, %rcx
	call	_ZNSt7__cxx1112basic_stringIcSt11char_traitsIcESaIcEED1Ev
.L434:
	leaq	160(%rbp), %rax
	movq	%rax, %rcx
	call	_ZNSt7__cxx1112basic_stringIcSt11char_traitsIcESaIcEED1Ev
.L432:
	leaq	192(%rbp), %rax
	movq	%rax, %rcx
	call	_ZNSt7__cxx1112basic_stringIcSt11char_traitsIcESaIcEED1Ev
	jmp	.L430
.L473:
	movq	%rax, %rbx
.L430:
	leaq	224(%rbp), %rax
	movq	%rax, %rcx
	call	_ZNSt14basic_ofstreamIcSt11char_traitsIcEED1Ev
	jmp	.L428
.L472:
	movq	%rax, %rbx
.L428:
	leaq	704(%rbp), %rax
	movq	%rax, %rcx
	call	_ZNSt6vectorISt10unique_ptrI7ASTNodeSt14default_deleteIS1_EESaIS4_EED1Ev
	jmp	.L459
.L470:
	movq	%rax, %rbx
.L459:
	leaq	736(%rbp), %rax
	movq	%rax, %rcx
	call	_ZN6ParserD1Ev
	jmp	.L460
.L469:
	movq	%rax, %rbx
.L460:
	leaq	816(%rbp), %rax
	movq	%rax, %rcx
	call	_ZNSt6vectorI5TokenSaIS0_EED1Ev
	jmp	.L461
.L468:
	movq	%rax, %rbx
.L461:
	leaq	848(%rbp), %rax
	movq	%rax, %rcx
	call	_ZN5LexerD1Ev
	jmp	.L462
.L467:
	movq	%rax, %rbx
.L462:
	leaq	928(%rbp), %rax
	movq	%rax, %rcx
	call	_ZNSt7__cxx1112basic_stringIcSt11char_traitsIcESaIcEED1Ev
	jmp	.L426
.L465:
	movq	%rax, %rbx
.L426:
	leaq	960(%rbp), %rax
	movq	%rax, %rcx
	call	_ZNSt14basic_ifstreamIcSt11char_traitsIcEED1Ev
	jmp	.L463
.L464:
	movq	%rax, %rbx
.L463:
	leaq	1456(%rbp), %rax
	movq	%rax, %rcx
	call	_ZNSt7__cxx1112basic_stringIcSt11char_traitsIcESaIcEED1Ev
	movq	%rbx, %rax
	movq	%rax, %rcx
.LEHB144:
	call	_Unwind_Resume
.LEHE144:
.L497:
	addq	$2344, %rsp
	popq	%rbx
	popq	%rsi
	popq	%rdi
	popq	%rbp
	ret
	.seh_handler	__gxx_personality_seh0, @unwind, @except
	.seh_handlerdata
.LLSDA5639:
	.byte	0xff
	.byte	0xff
	.byte	0x1
	.uleb128 .LLSDACSE5639-.LLSDACSB5639
.LLSDACSB5639:
	.uleb128 .LEHB102-.LFB5639
	.uleb128 .LEHE102-.LEHB102
	.uleb128 .L464-.LFB5639
	.uleb128 0
	.uleb128 .LEHB103-.LFB5639
	.uleb128 .LEHE103-.LEHB103
	.uleb128 .L465-.LFB5639
	.uleb128 0
	.uleb128 .LEHB104-.LFB5639
	.uleb128 .LEHE104-.LEHB104
	.uleb128 .L466-.LFB5639
	.uleb128 0
	.uleb128 .LEHB105-.LFB5639
	.uleb128 .LEHE105-.LEHB105
	.uleb128 .L467-.LFB5639
	.uleb128 0
	.uleb128 .LEHB106-.LFB5639
	.uleb128 .LEHE106-.LEHB106
	.uleb128 .L468-.LFB5639
	.uleb128 0
	.uleb128 .LEHB107-.LFB5639
	.uleb128 .LEHE107-.LEHB107
	.uleb128 .L469-.LFB5639
	.uleb128 0
	.uleb128 .LEHB108-.LFB5639
	.uleb128 .LEHE108-.LEHB108
	.uleb128 .L470-.LFB5639
	.uleb128 0
	.uleb128 .LEHB109-.LFB5639
	.uleb128 .LEHE109-.LEHB109
	.uleb128 .L472-.LFB5639
	.uleb128 0
	.uleb128 .LEHB110-.LFB5639
	.uleb128 .LEHE110-.LEHB110
	.uleb128 .L471-.LFB5639
	.uleb128 0
	.uleb128 .LEHB111-.LFB5639
	.uleb128 .LEHE111-.LEHB111
	.uleb128 .L472-.LFB5639
	.uleb128 0
	.uleb128 .LEHB112-.LFB5639
	.uleb128 .LEHE112-.LEHB112
	.uleb128 .L473-.LFB5639
	.uleb128 0
	.uleb128 .LEHB113-.LFB5639
	.uleb128 .LEHE113-.LEHB113
	.uleb128 .L474-.LFB5639
	.uleb128 0
	.uleb128 .LEHB114-.LFB5639
	.uleb128 .LEHE114-.LEHB114
	.uleb128 .L475-.LFB5639
	.uleb128 0
	.uleb128 .LEHB115-.LFB5639
	.uleb128 .LEHE115-.LEHB115
	.uleb128 .L476-.LFB5639
	.uleb128 0
	.uleb128 .LEHB116-.LFB5639
	.uleb128 .LEHE116-.LEHB116
	.uleb128 .L477-.LFB5639
	.uleb128 0
	.uleb128 .LEHB117-.LFB5639
	.uleb128 .LEHE117-.LEHB117
	.uleb128 .L481-.LFB5639
	.uleb128 0
	.uleb128 .LEHB118-.LFB5639
	.uleb128 .LEHE118-.LEHB118
	.uleb128 .L478-.LFB5639
	.uleb128 0
	.uleb128 .LEHB119-.LFB5639
	.uleb128 .LEHE119-.LEHB119
	.uleb128 .L481-.LFB5639
	.uleb128 0
	.uleb128 .LEHB120-.LFB5639
	.uleb128 .LEHE120-.LEHB120
	.uleb128 .L479-.LFB5639
	.uleb128 0
	.uleb128 .LEHB121-.LFB5639
	.uleb128 .LEHE121-.LEHB121
	.uleb128 .L480-.LFB5639
	.uleb128 0
	.uleb128 .LEHB122-.LFB5639
	.uleb128 .LEHE122-.LEHB122
	.uleb128 .L481-.LFB5639
	.uleb128 0
	.uleb128 .LEHB123-.LFB5639
	.uleb128 .LEHE123-.LEHB123
	.uleb128 .L482-.LFB5639
	.uleb128 0
	.uleb128 .LEHB124-.LFB5639
	.uleb128 .LEHE124-.LEHB124
	.uleb128 .L483-.LFB5639
	.uleb128 0
	.uleb128 .LEHB125-.LFB5639
	.uleb128 .LEHE125-.LEHB125
	.uleb128 .L481-.LFB5639
	.uleb128 0
	.uleb128 .LEHB126-.LFB5639
	.uleb128 .LEHE126-.LEHB126
	.uleb128 .L485-.LFB5639
	.uleb128 0
	.uleb128 .LEHB127-.LFB5639
	.uleb128 .LEHE127-.LEHB127
	.uleb128 .L484-.LFB5639
	.uleb128 0
	.uleb128 .LEHB128-.LFB5639
	.uleb128 .LEHE128-.LEHB128
	.uleb128 .L485-.LFB5639
	.uleb128 0
	.uleb128 .LEHB129-.LFB5639
	.uleb128 .LEHE129-.LEHB129
	.uleb128 .L486-.LFB5639
	.uleb128 0
	.uleb128 .LEHB130-.LFB5639
	.uleb128 .LEHE130-.LEHB130
	.uleb128 .L487-.LFB5639
	.uleb128 0
	.uleb128 .LEHB131-.LFB5639
	.uleb128 .LEHE131-.LEHB131
	.uleb128 .L488-.LFB5639
	.uleb128 0
	.uleb128 .LEHB132-.LFB5639
	.uleb128 .LEHE132-.LEHB132
	.uleb128 .L489-.LFB5639
	.uleb128 0
	.uleb128 .LEHB133-.LFB5639
	.uleb128 .LEHE133-.LEHB133
	.uleb128 .L490-.LFB5639
	.uleb128 0
	.uleb128 .LEHB134-.LFB5639
	.uleb128 .LEHE134-.LEHB134
	.uleb128 .L481-.LFB5639
	.uleb128 0
	.uleb128 .LEHB135-.LFB5639
	.uleb128 .LEHE135-.LEHB135
	.uleb128 .L491-.LFB5639
	.uleb128 0
	.uleb128 .LEHB136-.LFB5639
	.uleb128 .LEHE136-.LEHB136
	.uleb128 .L492-.LFB5639
	.uleb128 0
	.uleb128 .LEHB137-.LFB5639
	.uleb128 .LEHE137-.LEHB137
	.uleb128 .L493-.LFB5639
	.uleb128 0
	.uleb128 .LEHB138-.LFB5639
	.uleb128 .LEHE138-.LEHB138
	.uleb128 .L494-.LFB5639
	.uleb128 0
	.uleb128 .LEHB139-.LFB5639
	.uleb128 .LEHE139-.LEHB139
	.uleb128 .L481-.LFB5639
	.uleb128 0
	.uleb128 .LEHB140-.LFB5639
	.uleb128 .LEHE140-.LEHB140
	.uleb128 .L495-.LFB5639
	.uleb128 0
	.uleb128 .LEHB141-.LFB5639
	.uleb128 .LEHE141-.LEHB141
	.uleb128 .L481-.LFB5639
	.uleb128 0
	.uleb128 .LEHB142-.LFB5639
	.uleb128 .LEHE142-.LEHB142
	.uleb128 .L496-.LFB5639
	.uleb128 0
	.uleb128 .LEHB143-.LFB5639
	.uleb128 .LEHE143-.LEHB143
	.uleb128 .L481-.LFB5639
	.uleb128 0
	.uleb128 .LEHB144-.LFB5639
	.uleb128 .LEHE144-.LEHB144
	.uleb128 0
	.uleb128 0
.LLSDACSE5639:
	.text
	.seh_endproc
	.section	.text$_ZN9__gnu_cxx11char_traitsIcE6lengthEPKc,"x"
	.linkonce discard
	.align 2
	.globl	_ZN9__gnu_cxx11char_traitsIcE6lengthEPKc
	.def	_ZN9__gnu_cxx11char_traitsIcE6lengthEPKc;	.scl	2;	.type	32;	.endef
	.seh_proc	_ZN9__gnu_cxx11char_traitsIcE6lengthEPKc
_ZN9__gnu_cxx11char_traitsIcE6lengthEPKc:
.LFB5669:
	pushq	%rbp
	.seh_pushreg	%rbp
	movq	%rsp, %rbp
	.seh_setframe	%rbp, 0
	subq	$48, %rsp
	.seh_stackalloc	48
	.seh_endprologue
	movq	%rcx, 16(%rbp)
	movq	$0, -8(%rbp)
	jmp	.L499
.L500:
	addq	$1, -8(%rbp)
.L499:
	movb	$0, -9(%rbp)
	movq	16(%rbp), %rdx
	movq	-8(%rbp), %rax
	leaq	(%rdx,%rax), %rcx
	leaq	-9(%rbp), %rax
	movq	%rax, %rdx
	call	_ZN9__gnu_cxx11char_traitsIcE2eqERKcS3_
	xorl	$1, %eax
	testb	%al, %al
	jne	.L500
	movq	-8(%rbp), %rax
	addq	$48, %rsp
	popq	%rbp
	ret
	.seh_endproc
	.section	.text$_ZNSt7__cxx1112basic_stringIcSt11char_traitsIcESaIcEE12_Alloc_hiderD1Ev,"x"
	.linkonce discard
	.align 2
	.globl	_ZNSt7__cxx1112basic_stringIcSt11char_traitsIcESaIcEE12_Alloc_hiderD1Ev
	.def	_ZNSt7__cxx1112basic_stringIcSt11char_traitsIcESaIcEE12_Alloc_hiderD1Ev;	.scl	2;	.type	32;	.endef
	.seh_proc	_ZNSt7__cxx1112basic_stringIcSt11char_traitsIcESaIcEE12_Alloc_hiderD1Ev
_ZNSt7__cxx1112basic_stringIcSt11char_traitsIcESaIcEE12_Alloc_hiderD1Ev:
.LFB5768:
	pushq	%rbp
	.seh_pushreg	%rbp
	movq	%rsp, %rbp
	.seh_setframe	%rbp, 0
	subq	$48, %rsp
	.seh_stackalloc	48
	.seh_endprologue
	movq	%rcx, 16(%rbp)
	movq	16(%rbp), %rax
	movq	%rax, -8(%rbp)
	movq	-8(%rbp), %rax
	movq	%rax, %rcx
	call	_ZNSt15__new_allocatorIcED2Ev
	nop
	nop
	addq	$48, %rsp
	popq	%rbp
	ret
	.seh_endproc
	.section	.text$_ZNKSt17basic_string_viewIcSt11char_traitsIcEE4sizeEv,"x"
	.linkonce discard
	.align 2
	.globl	_ZNKSt17basic_string_viewIcSt11char_traitsIcEE4sizeEv
	.def	_ZNKSt17basic_string_viewIcSt11char_traitsIcEE4sizeEv;	.scl	2;	.type	32;	.endef
	.seh_proc	_ZNKSt17basic_string_viewIcSt11char_traitsIcEE4sizeEv
_ZNKSt17basic_string_viewIcSt11char_traitsIcEE4sizeEv:
.LFB5878:
	pushq	%rbp
	.seh_pushreg	%rbp
	movq	%rsp, %rbp
	.seh_setframe	%rbp, 0
	.seh_endprologue
	movq	%rcx, 16(%rbp)
	movq	16(%rbp), %rax
	movq	(%rax), %rax
	popq	%rbp
	ret
	.seh_endproc
	.section .rdata,"dr"
	.align 8
.LC95:
	.ascii "basic_string: construction from null is not valid\0"
	.section	.text$_ZNSt7__cxx1112basic_stringIcSt11char_traitsIcESaIcEEC1IS3_EEPKcRKS3_,"x"
	.linkonce discard
	.align 2
	.globl	_ZNSt7__cxx1112basic_stringIcSt11char_traitsIcESaIcEEC1IS3_EEPKcRKS3_
	.def	_ZNSt7__cxx1112basic_stringIcSt11char_traitsIcESaIcEEC1IS3_EEPKcRKS3_;	.scl	2;	.type	32;	.endef
	.seh_proc	_ZNSt7__cxx1112basic_stringIcSt11char_traitsIcESaIcEEC1IS3_EEPKcRKS3_
_ZNSt7__cxx1112basic_stringIcSt11char_traitsIcESaIcEEC1IS3_EEPKcRKS3_:
.LFB5939:
	pushq	%rbp
	.seh_pushreg	%rbp
	pushq	%rsi
	.seh_pushreg	%rsi
	pushq	%rbx
	.seh_pushreg	%rbx
	subq	$48, %rsp
	.seh_stackalloc	48
	leaq	48(%rsp), %rbp
	.seh_setframe	%rbp, 48
	.seh_endprologue
	movq	%rcx, 32(%rbp)
	movq	%rdx, 40(%rbp)
	movq	%r8, 48(%rbp)
	movq	32(%rbp), %rbx
	movq	32(%rbp), %rax
	movq	%rax, %rcx
	call	_ZNSt7__cxx1112basic_stringIcSt11char_traitsIcESaIcEE13_M_local_dataEv
	movq	48(%rbp), %rdx
	movq	%rdx, %r8
	movq	%rax, %rdx
	movq	%rbx, %rcx
	call	_ZNSt7__cxx1112basic_stringIcSt11char_traitsIcESaIcEE12_Alloc_hiderC1EPcRKS3_
	cmpq	$0, 40(%rbp)
	jne	.L506
	leaq	.LC95(%rip), %rax
	movq	%rax, %rcx
.LEHB145:
	call	_ZSt19__throw_logic_errorPKc
.L506:
	movq	40(%rbp), %rax
	movq	%rax, %rcx
	call	_ZNSt11char_traitsIcE6lengthEPKc
	movq	40(%rbp), %rdx
	addq	%rdx, %rax
	movq	%rax, -8(%rbp)
	movq	-8(%rbp), %rcx
	movq	40(%rbp), %rdx
	movq	32(%rbp), %rax
	movl	%esi, %r9d
	movq	%rcx, %r8
	movq	%rax, %rcx
	call	_ZNSt7__cxx1112basic_stringIcSt11char_traitsIcESaIcEE12_M_constructIPKcEEvT_S8_St20forward_iterator_tag
.LEHE145:
	jmp	.L509
.L508:
	movq	%rax, %rbx
	movq	32(%rbp), %rax
	movq	%rax, %rcx
	call	_ZNSt7__cxx1112basic_stringIcSt11char_traitsIcESaIcEE12_Alloc_hiderD1Ev
	movq	%rbx, %rax
	movq	%rax, %rcx
.LEHB146:
	call	_Unwind_Resume
	nop
.LEHE146:
.L509:
	addq	$48, %rsp
	popq	%rbx
	popq	%rsi
	popq	%rbp
	ret
	.seh_handler	__gxx_personality_seh0, @unwind, @except
	.seh_handlerdata
.LLSDA5939:
	.byte	0xff
	.byte	0xff
	.byte	0x1
	.uleb128 .LLSDACSE5939-.LLSDACSB5939
.LLSDACSB5939:
	.uleb128 .LEHB145-.LFB5939
	.uleb128 .LEHE145-.LEHB145
	.uleb128 .L508-.LFB5939
	.uleb128 0
	.uleb128 .LEHB146-.LFB5939
	.uleb128 .LEHE146-.LEHB146
	.uleb128 0
	.uleb128 0
.LLSDACSE5939:
	.section	.text$_ZNSt7__cxx1112basic_stringIcSt11char_traitsIcESaIcEEC1IS3_EEPKcRKS3_,"x"
	.linkonce discard
	.seh_endproc
	.section	.text$_ZSt3maxIyERKT_S2_S2_,"x"
	.linkonce discard
	.globl	_ZSt3maxIyERKT_S2_S2_
	.def	_ZSt3maxIyERKT_S2_S2_;	.scl	2;	.type	32;	.endef
	.seh_proc	_ZSt3maxIyERKT_S2_S2_
_ZSt3maxIyERKT_S2_S2_:
.LFB5943:
	pushq	%rbp
	.seh_pushreg	%rbp
	movq	%rsp, %rbp
	.seh_setframe	%rbp, 0
	.seh_endprologue
	movq	%rcx, 16(%rbp)
	movq	%rdx, 24(%rbp)
	movq	16(%rbp), %rax
	movq	(%rax), %rdx
	movq	24(%rbp), %rax
	movq	(%rax), %rax
	cmpq	%rax, %rdx
	jnb	.L511
	movq	24(%rbp), %rax
	jmp	.L512
.L511:
	movq	16(%rbp), %rax
.L512:
	popq	%rbp
	ret
	.seh_endproc
	.section	.text$_ZNSt13unordered_setINSt7__cxx1112basic_stringIcSt11char_traitsIcESaIcEEESt4hashIS5_ESt8equal_toIS5_ESaIS5_EEC1IPKPKcEET_SH_yRKS7_RKS9_RKSA_,"x"
	.linkonce discard
	.align 2
	.globl	_ZNSt13unordered_setINSt7__cxx1112basic_stringIcSt11char_traitsIcESaIcEEESt4hashIS5_ESt8equal_toIS5_ESaIS5_EEC1IPKPKcEET_SH_yRKS7_RKS9_RKSA_
	.def	_ZNSt13unordered_setINSt7__cxx1112basic_stringIcSt11char_traitsIcESaIcEEESt4hashIS5_ESt8equal_toIS5_ESaIS5_EEC1IPKPKcEET_SH_yRKS7_RKS9_RKSA_;	.scl	2;	.type	32;	.endef
	.seh_proc	_ZNSt13unordered_setINSt7__cxx1112basic_stringIcSt11char_traitsIcESaIcEEESt4hashIS5_ESt8equal_toIS5_ESaIS5_EEC1IPKPKcEET_SH_yRKS7_RKS9_RKSA_
_ZNSt13unordered_setINSt7__cxx1112basic_stringIcSt11char_traitsIcESaIcEEESt4hashIS5_ESt8equal_toIS5_ESaIS5_EEC1IPKPKcEET_SH_yRKS7_RKS9_RKSA_:
.LFB5959:
	pushq	%rbp
	.seh_pushreg	%rbp
	movq	%rsp, %rbp
	.seh_setframe	%rbp, 0
	subq	$64, %rsp
	.seh_stackalloc	64
	.seh_endprologue
	movq	%rcx, 16(%rbp)
	movq	%rdx, 24(%rbp)
	movq	%r8, 32(%rbp)
	movq	%r9, 40(%rbp)
	movq	16(%rbp), %rax
	movq	40(%rbp), %r9
	movq	32(%rbp), %r8
	movq	24(%rbp), %rdx
	movq	64(%rbp), %rcx
	movq	%rcx, 48(%rsp)
	movq	56(%rbp), %rcx
	movq	%rcx, 40(%rsp)
	movq	48(%rbp), %rcx
	movq	%rcx, 32(%rsp)
	movq	%rax, %rcx
	call	_ZNSt10_HashtableINSt7__cxx1112basic_stringIcSt11char_traitsIcESaIcEEES5_SaIS5_ENSt8__detail9_IdentityESt8equal_toIS5_ESt4hashIS5_ENS7_18_Mod_range_hashingENS7_20_Default_ranged_hashENS7_20_Prime_rehash_policyENS7_17_Hashtable_traitsILb1ELb1ELb1EEEEC1IPKPKcEET_SO_yRKSC_RKSA_RKS6_
	nop
	addq	$64, %rsp
	popq	%rbp
	ret
	.seh_endproc
	.section	.text$_ZNSt8_Rb_treeINSt7__cxx1112basic_stringIcSt11char_traitsIcESaIcEEES5_St9_IdentityIS5_ESt4lessIS5_ESaIS5_EE13_Rb_tree_implIS9_Lb1EEC1Ev,"x"
	.linkonce discard
	.align 2
	.globl	_ZNSt8_Rb_treeINSt7__cxx1112basic_stringIcSt11char_traitsIcESaIcEEES5_St9_IdentityIS5_ESt4lessIS5_ESaIS5_EE13_Rb_tree_implIS9_Lb1EEC1Ev
	.def	_ZNSt8_Rb_treeINSt7__cxx1112basic_stringIcSt11char_traitsIcESaIcEEES5_St9_IdentityIS5_ESt4lessIS5_ESaIS5_EE13_Rb_tree_implIS9_Lb1EEC1Ev;	.scl	2;	.type	32;	.endef
	.seh_proc	_ZNSt8_Rb_treeINSt7__cxx1112basic_stringIcSt11char_traitsIcESaIcEEES5_St9_IdentityIS5_ESt4lessIS5_ESaIS5_EE13_Rb_tree_implIS9_Lb1EEC1Ev
_ZNSt8_Rb_treeINSt7__cxx1112basic_stringIcSt11char_traitsIcESaIcEEES5_St9_IdentityIS5_ESt4lessIS5_ESaIS5_EE13_Rb_tree_implIS9_Lb1EEC1Ev:
.LFB5967:
	pushq	%rbp
	.seh_pushreg	%rbp
	movq	%rsp, %rbp
	.seh_setframe	%rbp, 0
	subq	$48, %rsp
	.seh_stackalloc	48
	.seh_endprologue
	movq	%rcx, 16(%rbp)
	movq	16(%rbp), %rax
	movq	%rax, -8(%rbp)
	movq	-8(%rbp), %rax
	movq	%rax, -16(%rbp)
	nop
	nop
	movq	16(%rbp), %rax
	movq	%rax, %rcx
	call	_ZNSt20_Rb_tree_key_compareISt4lessINSt7__cxx1112basic_stringIcSt11char_traitsIcESaIcEEEEEC2Ev
	movq	16(%rbp), %rax
	addq	$8, %rax
	movq	%rax, %rcx
	call	_ZNSt15_Rb_tree_headerC2Ev
	nop
	addq	$48, %rsp
	popq	%rbp
	ret
	.seh_endproc
	.section	.text$_ZNSt8_Rb_treeINSt7__cxx1112basic_stringIcSt11char_traitsIcESaIcEEES5_St9_IdentityIS5_ESt4lessIS5_ESaIS5_EED1Ev,"x"
	.linkonce discard
	.align 2
	.globl	_ZNSt8_Rb_treeINSt7__cxx1112basic_stringIcSt11char_traitsIcESaIcEEES5_St9_IdentityIS5_ESt4lessIS5_ESaIS5_EED1Ev
	.def	_ZNSt8_Rb_treeINSt7__cxx1112basic_stringIcSt11char_traitsIcESaIcEEES5_St9_IdentityIS5_ESt4lessIS5_ESaIS5_EED1Ev;	.scl	2;	.type	32;	.endef
	.seh_proc	_ZNSt8_Rb_treeINSt7__cxx1112basic_stringIcSt11char_traitsIcESaIcEEES5_St9_IdentityIS5_ESt4lessIS5_ESaIS5_EED1Ev
_ZNSt8_Rb_treeINSt7__cxx1112basic_stringIcSt11char_traitsIcESaIcEEES5_St9_IdentityIS5_ESt4lessIS5_ESaIS5_EED1Ev:
.LFB5973:
	pushq	%rbp
	.seh_pushreg	%rbp
	movq	%rsp, %rbp
	.seh_setframe	%rbp, 0
	subq	$32, %rsp
	.seh_stackalloc	32
	.seh_endprologue
	movq	%rcx, 16(%rbp)
	movq	16(%rbp), %rax
	movq	%rax, %rcx
	call	_ZNSt8_Rb_treeINSt7__cxx1112basic_stringIcSt11char_traitsIcESaIcEEES5_St9_IdentityIS5_ESt4lessIS5_ESaIS5_EE8_M_beginEv
	movq	%rax, %rdx
	movq	16(%rbp), %rax
	movq	%rax, %rcx
	call	_ZNSt8_Rb_treeINSt7__cxx1112basic_stringIcSt11char_traitsIcESaIcEEES5_St9_IdentityIS5_ESt4lessIS5_ESaIS5_EE8_M_eraseEPSt13_Rb_tree_nodeIS5_E
	movq	16(%rbp), %rax
	movq	%rax, %rcx
	call	_ZNSt8_Rb_treeINSt7__cxx1112basic_stringIcSt11char_traitsIcESaIcEEES5_St9_IdentityIS5_ESt4lessIS5_ESaIS5_EE13_Rb_tree_implIS9_Lb1EED1Ev
	nop
	addq	$32, %rsp
	popq	%rbp
	ret
	.seh_handler	__gxx_personality_seh0, @unwind, @except
	.seh_handlerdata
.LLSDA5973:
	.byte	0xff
	.byte	0xff
	.byte	0x1
	.uleb128 .LLSDACSE5973-.LLSDACSB5973
.LLSDACSB5973:
.LLSDACSE5973:
	.section	.text$_ZNSt8_Rb_treeINSt7__cxx1112basic_stringIcSt11char_traitsIcESaIcEEES5_St9_IdentityIS5_ESt4lessIS5_ESaIS5_EED1Ev,"x"
	.linkonce discard
	.seh_endproc
	.section	.text$_ZNSt8_Rb_treeINSt7__cxx1112basic_stringIcSt11char_traitsIcESaIcEEESt4pairIKS5_St6vectorIbSaIbEEESt10_Select1stISB_ESt4lessIS5_ESaISB_EE13_Rb_tree_implISF_Lb1EEC1Ev,"x"
	.linkonce discard
	.align 2
	.globl	_ZNSt8_Rb_treeINSt7__cxx1112basic_stringIcSt11char_traitsIcESaIcEEESt4pairIKS5_St6vectorIbSaIbEEESt10_Select1stISB_ESt4lessIS5_ESaISB_EE13_Rb_tree_implISF_Lb1EEC1Ev
	.def	_ZNSt8_Rb_treeINSt7__cxx1112basic_stringIcSt11char_traitsIcESaIcEEESt4pairIKS5_St6vectorIbSaIbEEESt10_Select1stISB_ESt4lessIS5_ESaISB_EE13_Rb_tree_implISF_Lb1EEC1Ev;	.scl	2;	.type	32;	.endef
	.seh_proc	_ZNSt8_Rb_treeINSt7__cxx1112basic_stringIcSt11char_traitsIcESaIcEEESt4pairIKS5_St6vectorIbSaIbEEESt10_Select1stISB_ESt4lessIS5_ESaISB_EE13_Rb_tree_implISF_Lb1EEC1Ev
_ZNSt8_Rb_treeINSt7__cxx1112basic_stringIcSt11char_traitsIcESaIcEEESt4pairIKS5_St6vectorIbSaIbEEESt10_Select1stISB_ESt4lessIS5_ESaISB_EE13_Rb_tree_implISF_Lb1EEC1Ev:
.LFB5976:
	pushq	%rbp
	.seh_pushreg	%rbp
	movq	%rsp, %rbp
	.seh_setframe	%rbp, 0
	subq	$48, %rsp
	.seh_stackalloc	48
	.seh_endprologue
	movq	%rcx, 16(%rbp)
	movq	16(%rbp), %rax
	movq	%rax, -8(%rbp)
	movq	-8(%rbp), %rax
	movq	%rax, -16(%rbp)
	nop
	nop
	movq	16(%rbp), %rax
	movq	%rax, %rcx
	call	_ZNSt20_Rb_tree_key_compareISt4lessINSt7__cxx1112basic_stringIcSt11char_traitsIcESaIcEEEEEC2Ev
	movq	16(%rbp), %rax
	addq	$8, %rax
	movq	%rax, %rcx
	call	_ZNSt15_Rb_tree_headerC2Ev
	nop
	addq	$48, %rsp
	popq	%rbp
	ret
	.seh_endproc
	.section	.text$_ZNSt8_Rb_treeINSt7__cxx1112basic_stringIcSt11char_traitsIcESaIcEEESt4pairIKS5_St6vectorIbSaIbEEESt10_Select1stISB_ESt4lessIS5_ESaISB_EED1Ev,"x"
	.linkonce discard
	.align 2
	.globl	_ZNSt8_Rb_treeINSt7__cxx1112basic_stringIcSt11char_traitsIcESaIcEEESt4pairIKS5_St6vectorIbSaIbEEESt10_Select1stISB_ESt4lessIS5_ESaISB_EED1Ev
	.def	_ZNSt8_Rb_treeINSt7__cxx1112basic_stringIcSt11char_traitsIcESaIcEEESt4pairIKS5_St6vectorIbSaIbEEESt10_Select1stISB_ESt4lessIS5_ESaISB_EED1Ev;	.scl	2;	.type	32;	.endef
	.seh_proc	_ZNSt8_Rb_treeINSt7__cxx1112basic_stringIcSt11char_traitsIcESaIcEEESt4pairIKS5_St6vectorIbSaIbEEESt10_Select1stISB_ESt4lessIS5_ESaISB_EED1Ev
_ZNSt8_Rb_treeINSt7__cxx1112basic_stringIcSt11char_traitsIcESaIcEEESt4pairIKS5_St6vectorIbSaIbEEESt10_Select1stISB_ESt4lessIS5_ESaISB_EED1Ev:
.LFB5982:
	pushq	%rbp
	.seh_pushreg	%rbp
	movq	%rsp, %rbp
	.seh_setframe	%rbp, 0
	subq	$32, %rsp
	.seh_stackalloc	32
	.seh_endprologue
	movq	%rcx, 16(%rbp)
	movq	16(%rbp), %rax
	movq	%rax, %rcx
	call	_ZNSt8_Rb_treeINSt7__cxx1112basic_stringIcSt11char_traitsIcESaIcEEESt4pairIKS5_St6vectorIbSaIbEEESt10_Select1stISB_ESt4lessIS5_ESaISB_EE8_M_beginEv
	movq	%rax, %rdx
	movq	16(%rbp), %rax
	movq	%rax, %rcx
	call	_ZNSt8_Rb_treeINSt7__cxx1112basic_stringIcSt11char_traitsIcESaIcEEESt4pairIKS5_St6vectorIbSaIbEEESt10_Select1stISB_ESt4lessIS5_ESaISB_EE8_M_eraseEPSt13_Rb_tree_nodeISB_E
	movq	16(%rbp), %rax
	movq	%rax, %rcx
	call	_ZNSt8_Rb_treeINSt7__cxx1112basic_stringIcSt11char_traitsIcESaIcEEESt4pairIKS5_St6vectorIbSaIbEEESt10_Select1stISB_ESt4lessIS5_ESaISB_EE13_Rb_tree_implISF_Lb1EED1Ev
	nop
	addq	$32, %rsp
	popq	%rbp
	ret
	.seh_handler	__gxx_personality_seh0, @unwind, @except
	.seh_handlerdata
.LLSDA5982:
	.byte	0xff
	.byte	0xff
	.byte	0x1
	.uleb128 .LLSDACSE5982-.LLSDACSB5982
.LLSDACSB5982:
.LLSDACSE5982:
	.section	.text$_ZNSt8_Rb_treeINSt7__cxx1112basic_stringIcSt11char_traitsIcESaIcEEESt4pairIKS5_St6vectorIbSaIbEEESt10_Select1stISB_ESt4lessIS5_ESaISB_EED1Ev,"x"
	.linkonce discard
	.seh_endproc
	.section	.text$_ZNSt12_Vector_baseINSt7__cxx1112basic_stringIcSt11char_traitsIcESaIcEEESaIS5_EE12_Vector_implC1Ev,"x"
	.linkonce discard
	.align 2
	.globl	_ZNSt12_Vector_baseINSt7__cxx1112basic_stringIcSt11char_traitsIcESaIcEEESaIS5_EE12_Vector_implC1Ev
	.def	_ZNSt12_Vector_baseINSt7__cxx1112basic_stringIcSt11char_traitsIcESaIcEEESaIS5_EE12_Vector_implC1Ev;	.scl	2;	.type	32;	.endef
	.seh_proc	_ZNSt12_Vector_baseINSt7__cxx1112basic_stringIcSt11char_traitsIcESaIcEEESaIS5_EE12_Vector_implC1Ev
_ZNSt12_Vector_baseINSt7__cxx1112basic_stringIcSt11char_traitsIcESaIcEEESaIS5_EE12_Vector_implC1Ev:
.LFB5985:
	pushq	%rbp
	.seh_pushreg	%rbp
	movq	%rsp, %rbp
	.seh_setframe	%rbp, 0
	subq	$48, %rsp
	.seh_stackalloc	48
	.seh_endprologue
	movq	%rcx, 16(%rbp)
	movq	16(%rbp), %rax
	movq	%rax, -8(%rbp)
	movq	-8(%rbp), %rax
	movq	%rax, -16(%rbp)
	nop
	nop
	movq	16(%rbp), %rax
	movq	%rax, %rcx
	call	_ZNSt12_Vector_baseINSt7__cxx1112basic_stringIcSt11char_traitsIcESaIcEEESaIS5_EE17_Vector_impl_dataC2Ev
	nop
	addq	$48, %rsp
	popq	%rbp
	ret
	.seh_endproc
	.section	.text$_ZNSt12_Vector_baseINSt7__cxx1112basic_stringIcSt11char_traitsIcESaIcEEESaIS5_EED2Ev,"x"
	.linkonce discard
	.align 2
	.globl	_ZNSt12_Vector_baseINSt7__cxx1112basic_stringIcSt11char_traitsIcESaIcEEESaIS5_EED2Ev
	.def	_ZNSt12_Vector_baseINSt7__cxx1112basic_stringIcSt11char_traitsIcESaIcEEESaIS5_EED2Ev;	.scl	2;	.type	32;	.endef
	.seh_proc	_ZNSt12_Vector_baseINSt7__cxx1112basic_stringIcSt11char_traitsIcESaIcEEESaIS5_EED2Ev
_ZNSt12_Vector_baseINSt7__cxx1112basic_stringIcSt11char_traitsIcESaIcEEESaIS5_EED2Ev:
.LFB5987:
	pushq	%rbp
	.seh_pushreg	%rbp
	movq	%rsp, %rbp
	.seh_setframe	%rbp, 0
	subq	$32, %rsp
	.seh_stackalloc	32
	.seh_endprologue
	movq	%rcx, 16(%rbp)
	movq	16(%rbp), %rax
	movq	16(%rax), %rdx
	movq	16(%rbp), %rax
	movq	(%rax), %rax
	subq	%rax, %rdx
	movq	%rdx, %rax
	sarq	$5, %rax
	movq	%rax, %rcx
	movq	16(%rbp), %rax
	movq	(%rax), %rdx
	movq	16(%rbp), %rax
	movq	%rcx, %r8
	movq	%rax, %rcx
	call	_ZNSt12_Vector_baseINSt7__cxx1112basic_stringIcSt11char_traitsIcESaIcEEESaIS5_EE13_M_deallocateEPS5_y
	movq	16(%rbp), %rax
	movq	%rax, %rcx
	call	_ZNSt12_Vector_baseINSt7__cxx1112basic_stringIcSt11char_traitsIcESaIcEEESaIS5_EE12_Vector_implD1Ev
	nop
	addq	$32, %rsp
	popq	%rbp
	ret
	.seh_handler	__gxx_personality_seh0, @unwind, @except
	.seh_handlerdata
.LLSDA5987:
	.byte	0xff
	.byte	0xff
	.byte	0x1
	.uleb128 .LLSDACSE5987-.LLSDACSB5987
.LLSDACSB5987:
.LLSDACSE5987:
	.section	.text$_ZNSt12_Vector_baseINSt7__cxx1112basic_stringIcSt11char_traitsIcESaIcEEESaIS5_EED2Ev,"x"
	.linkonce discard
	.seh_endproc
	.section	.text$_ZNSt3setINSt7__cxx1112basic_stringIcSt11char_traitsIcESaIcEEESt4lessIS5_ESaIS5_EE6insertERKS5_,"x"
	.linkonce discard
	.align 2
	.globl	_ZNSt3setINSt7__cxx1112basic_stringIcSt11char_traitsIcESaIcEEESt4lessIS5_ESaIS5_EE6insertERKS5_
	.def	_ZNSt3setINSt7__cxx1112basic_stringIcSt11char_traitsIcESaIcEEESt4lessIS5_ESaIS5_EE6insertERKS5_;	.scl	2;	.type	32;	.endef
	.seh_proc	_ZNSt3setINSt7__cxx1112basic_stringIcSt11char_traitsIcESaIcEEESt4lessIS5_ESaIS5_EE6insertERKS5_
_ZNSt3setINSt7__cxx1112basic_stringIcSt11char_traitsIcESaIcEEESt4lessIS5_ESaIS5_EE6insertERKS5_:
.LFB5998:
	pushq	%rbp
	.seh_pushreg	%rbp
	movq	%rsp, %rbp
	.seh_setframe	%rbp, 0
	subq	$48, %rsp
	.seh_stackalloc	48
	.seh_endprologue
	movq	%rcx, 16(%rbp)
	movq	%rdx, 24(%rbp)
	movq	%r8, 32(%rbp)
	movq	24(%rbp), %rdx
	leaq	-16(%rbp), %rax
	movq	32(%rbp), %rcx
	movq	%rcx, %r8
	movq	%rax, %rcx
	call	_ZNSt8_Rb_treeINSt7__cxx1112basic_stringIcSt11char_traitsIcESaIcEEES5_St9_IdentityIS5_ESt4lessIS5_ESaIS5_EE16_M_insert_uniqueIRKS5_EESt4pairISt17_Rb_tree_iteratorIS5_EbEOT_
	leaq	-16(%rbp), %rax
	leaq	8(%rax), %rcx
	leaq	-16(%rbp), %rdx
	movq	16(%rbp), %rax
	movq	%rcx, %r8
	movq	%rax, %rcx
	call	_ZNSt4pairISt23_Rb_tree_const_iteratorINSt7__cxx1112basic_stringIcSt11char_traitsIcESaIcEEEEbEC1IRSt17_Rb_tree_iteratorIS6_ERbLb1EEEOT_OT0_
	movq	16(%rbp), %rax
	addq	$48, %rsp
	popq	%rbp
	ret
	.seh_endproc
	.section	.text$_ZSteqIcSt11char_traitsIcESaIcEEbRKNSt7__cxx1112basic_stringIT_T0_T1_EEPKS5_,"x"
	.linkonce discard
	.globl	_ZSteqIcSt11char_traitsIcESaIcEEbRKNSt7__cxx1112basic_stringIT_T0_T1_EEPKS5_
	.def	_ZSteqIcSt11char_traitsIcESaIcEEbRKNSt7__cxx1112basic_stringIT_T0_T1_EEPKS5_;	.scl	2;	.type	32;	.endef
	.seh_proc	_ZSteqIcSt11char_traitsIcESaIcEEbRKNSt7__cxx1112basic_stringIT_T0_T1_EEPKS5_
_ZSteqIcSt11char_traitsIcESaIcEEbRKNSt7__cxx1112basic_stringIT_T0_T1_EEPKS5_:
.LFB6004:
	pushq	%rbp
	.seh_pushreg	%rbp
	pushq	%rbx
	.seh_pushreg	%rbx
	subq	$40, %rsp
	.seh_stackalloc	40
	leaq	32(%rsp), %rbp
	.seh_setframe	%rbp, 32
	.seh_endprologue
	movq	%rcx, 32(%rbp)
	movq	%rdx, 40(%rbp)
	movq	32(%rbp), %rax
	movq	%rax, %rcx
	call	_ZNKSt7__cxx1112basic_stringIcSt11char_traitsIcESaIcEE4sizeEv
	movq	%rax, %rbx
	movq	40(%rbp), %rax
	movq	%rax, %rcx
	call	_ZNSt11char_traitsIcE6lengthEPKc
	cmpq	%rax, %rbx
	jne	.L523
	movq	32(%rbp), %rax
	movq	%rax, %rcx
	call	_ZNKSt7__cxx1112basic_stringIcSt11char_traitsIcESaIcEE4sizeEv
	movq	%rax, %rbx
	movq	32(%rbp), %rax
	movq	%rax, %rcx
	call	_ZNKSt7__cxx1112basic_stringIcSt11char_traitsIcESaIcEE4dataEv
	movq	%rax, %rcx
	movq	40(%rbp), %rax
	movq	%rbx, %r8
	movq	%rax, %rdx
	call	_ZNSt11char_traitsIcE7compareEPKcS2_y
	testl	%eax, %eax
	jne	.L523
	movl	$1, %eax
	jmp	.L524
.L523:
	movl	$0, %eax
.L524:
	addq	$40, %rsp
	popq	%rbx
	popq	%rbp
	ret
	.seh_endproc
	.section	.text$_ZStplIcSt11char_traitsIcESaIcEENSt7__cxx1112basic_stringIT_T0_T1_EERKS8_PKS5_,"x"
	.linkonce discard
	.globl	_ZStplIcSt11char_traitsIcESaIcEENSt7__cxx1112basic_stringIT_T0_T1_EERKS8_PKS5_
	.def	_ZStplIcSt11char_traitsIcESaIcEENSt7__cxx1112basic_stringIT_T0_T1_EERKS8_PKS5_;	.scl	2;	.type	32;	.endef
	.seh_proc	_ZStplIcSt11char_traitsIcESaIcEENSt7__cxx1112basic_stringIT_T0_T1_EERKS8_PKS5_
_ZStplIcSt11char_traitsIcESaIcEENSt7__cxx1112basic_stringIT_T0_T1_EERKS8_PKS5_:
.LFB6005:
	pushq	%rbp
	.seh_pushreg	%rbp
	pushq	%rsi
	.seh_pushreg	%rsi
	pushq	%rbx
	.seh_pushreg	%rbx
	subq	$64, %rsp
	.seh_stackalloc	64
	leaq	64(%rsp), %rbp
	.seh_setframe	%rbp, 64
	.seh_endprologue
	movq	%rcx, 32(%rbp)
	movq	%rdx, 40(%rbp)
	movq	%r8, 48(%rbp)
	leaq	-1(%rbp), %rax
	movq	40(%rbp), %rdx
	movq	%rax, %rcx
	call	_ZNKSt7__cxx1112basic_stringIcSt11char_traitsIcESaIcEE13get_allocatorEv
	movq	48(%rbp), %rax
	movq	%rax, %rcx
.LEHB147:
	call	_ZNSt11char_traitsIcE6lengthEPKc
	movq	%rax, %rbx
	movq	40(%rbp), %rax
	movq	%rax, %rcx
	call	_ZNKSt7__cxx1112basic_stringIcSt11char_traitsIcESaIcEE4sizeEv
	movq	%rax, %rsi
	movq	40(%rbp), %rax
	movq	%rax, %rcx
	call	_ZNKSt7__cxx1112basic_stringIcSt11char_traitsIcESaIcEE5c_strEv
	movq	%rax, %rcx
	movq	32(%rbp), %rax
	movq	48(%rbp), %r8
	leaq	-1(%rbp), %rdx
	movq	%rdx, 40(%rsp)
	movq	%rbx, 32(%rsp)
	movq	%r8, %r9
	movq	%rsi, %r8
	movq	%rcx, %rdx
	movq	%rax, %rcx
	call	_ZSt12__str_concatINSt7__cxx1112basic_stringIcSt11char_traitsIcESaIcEEEET_PKNS6_10value_typeENS6_9size_typeES9_SA_RKNS6_14allocator_typeE
.LEHE147:
	nop
	leaq	-1(%rbp), %rax
	movq	%rax, %rcx
	call	_ZNSt15__new_allocatorIcED2Ev
	nop
	jmp	.L530
.L529:
	movq	%rax, %rbx
	leaq	-1(%rbp), %rax
	movq	%rax, %rcx
	call	_ZNSt15__new_allocatorIcED2Ev
	nop
	movq	%rbx, %rax
	movq	%rax, %rcx
.LEHB148:
	call	_Unwind_Resume
.LEHE148:
.L530:
	movq	32(%rbp), %rax
	addq	$64, %rsp
	popq	%rbx
	popq	%rsi
	popq	%rbp
	ret
	.seh_handler	__gxx_personality_seh0, @unwind, @except
	.seh_handlerdata
.LLSDA6005:
	.byte	0xff
	.byte	0xff
	.byte	0x1
	.uleb128 .LLSDACSE6005-.LLSDACSB6005
.LLSDACSB6005:
	.uleb128 .LEHB147-.LFB6005
	.uleb128 .LEHE147-.LEHB147
	.uleb128 .L529-.LFB6005
	.uleb128 0
	.uleb128 .LEHB148-.LFB6005
	.uleb128 .LEHE148-.LEHB148
	.uleb128 0
	.uleb128 0
.LLSDACSE6005:
	.section	.text$_ZStplIcSt11char_traitsIcESaIcEENSt7__cxx1112basic_stringIT_T0_T1_EERKS8_PKS5_,"x"
	.linkonce discard
	.seh_endproc
	.section	.text$_ZStplIcSt11char_traitsIcESaIcEENSt7__cxx1112basic_stringIT_T0_T1_EEOS8_RKS8_,"x"
	.linkonce discard
	.globl	_ZStplIcSt11char_traitsIcESaIcEENSt7__cxx1112basic_stringIT_T0_T1_EEOS8_RKS8_
	.def	_ZStplIcSt11char_traitsIcESaIcEENSt7__cxx1112basic_stringIT_T0_T1_EEOS8_RKS8_;	.scl	2;	.type	32;	.endef
	.seh_proc	_ZStplIcSt11char_traitsIcESaIcEENSt7__cxx1112basic_stringIT_T0_T1_EEOS8_RKS8_
_ZStplIcSt11char_traitsIcESaIcEENSt7__cxx1112basic_stringIT_T0_T1_EEOS8_RKS8_:
.LFB6006:
	pushq	%rbp
	.seh_pushreg	%rbp
	movq	%rsp, %rbp
	.seh_setframe	%rbp, 0
	subq	$32, %rsp
	.seh_stackalloc	32
	.seh_endprologue
	movq	%rcx, 16(%rbp)
	movq	%rdx, 24(%rbp)
	movq	%r8, 32(%rbp)
	movq	32(%rbp), %rdx
	movq	24(%rbp), %rax
	movq	%rax, %rcx
	call	_ZNSt7__cxx1112basic_stringIcSt11char_traitsIcESaIcEE6appendERKS4_
	movq	%rax, %rcx
	call	_ZSt4moveIRNSt7__cxx1112basic_stringIcSt11char_traitsIcESaIcEEEEONSt16remove_referenceIT_E4typeEOS8_
	movq	%rax, %rdx
	movq	16(%rbp), %rax
	movq	%rax, %rcx
	call	_ZNSt7__cxx1112basic_stringIcSt11char_traitsIcESaIcEEC1EOS4_
	movq	16(%rbp), %rax
	addq	$32, %rsp
	popq	%rbp
	ret
	.seh_endproc
	.section	.text$_ZStplIcSt11char_traitsIcESaIcEENSt7__cxx1112basic_stringIT_T0_T1_EEOS8_PKS5_,"x"
	.linkonce discard
	.globl	_ZStplIcSt11char_traitsIcESaIcEENSt7__cxx1112basic_stringIT_T0_T1_EEOS8_PKS5_
	.def	_ZStplIcSt11char_traitsIcESaIcEENSt7__cxx1112basic_stringIT_T0_T1_EEOS8_PKS5_;	.scl	2;	.type	32;	.endef
	.seh_proc	_ZStplIcSt11char_traitsIcESaIcEENSt7__cxx1112basic_stringIT_T0_T1_EEOS8_PKS5_
_ZStplIcSt11char_traitsIcESaIcEENSt7__cxx1112basic_stringIT_T0_T1_EEOS8_PKS5_:
.LFB6007:
	pushq	%rbp
	.seh_pushreg	%rbp
	movq	%rsp, %rbp
	.seh_setframe	%rbp, 0
	subq	$32, %rsp
	.seh_stackalloc	32
	.seh_endprologue
	movq	%rcx, 16(%rbp)
	movq	%rdx, 24(%rbp)
	movq	%r8, 32(%rbp)
	movq	32(%rbp), %rdx
	movq	24(%rbp), %rax
	movq	%rax, %rcx
	call	_ZNSt7__cxx1112basic_stringIcSt11char_traitsIcESaIcEE6appendEPKc
	movq	%rax, %rcx
	call	_ZSt4moveIRNSt7__cxx1112basic_stringIcSt11char_traitsIcESaIcEEEEONSt16remove_referenceIT_E4typeEOS8_
	movq	%rax, %rdx
	movq	16(%rbp), %rax
	movq	%rax, %rcx
	call	_ZNSt7__cxx1112basic_stringIcSt11char_traitsIcESaIcEEC1EOS4_
	movq	16(%rbp), %rax
	addq	$32, %rsp
	popq	%rbp
	ret
	.seh_endproc
	.section	.text$_ZStplIcSt11char_traitsIcESaIcEENSt7__cxx1112basic_stringIT_T0_T1_EEPKS5_RKS8_,"x"
	.linkonce discard
	.globl	_ZStplIcSt11char_traitsIcESaIcEENSt7__cxx1112basic_stringIT_T0_T1_EEPKS5_RKS8_
	.def	_ZStplIcSt11char_traitsIcESaIcEENSt7__cxx1112basic_stringIT_T0_T1_EEPKS5_RKS8_;	.scl	2;	.type	32;	.endef
	.seh_proc	_ZStplIcSt11char_traitsIcESaIcEENSt7__cxx1112basic_stringIT_T0_T1_EEPKS5_RKS8_
_ZStplIcSt11char_traitsIcESaIcEENSt7__cxx1112basic_stringIT_T0_T1_EEPKS5_RKS8_:
.LFB6009:
	pushq	%rbp
	.seh_pushreg	%rbp
	pushq	%rsi
	.seh_pushreg	%rsi
	pushq	%rbx
	.seh_pushreg	%rbx
	subq	$64, %rsp
	.seh_stackalloc	64
	leaq	64(%rsp), %rbp
	.seh_setframe	%rbp, 64
	.seh_endprologue
	movq	%rcx, 32(%rbp)
	movq	%rdx, 40(%rbp)
	movq	%r8, 48(%rbp)
	leaq	-1(%rbp), %rax
	movq	48(%rbp), %rdx
	movq	%rax, %rcx
	call	_ZNKSt7__cxx1112basic_stringIcSt11char_traitsIcESaIcEE13get_allocatorEv
	movq	48(%rbp), %rax
	movq	%rax, %rcx
	call	_ZNKSt7__cxx1112basic_stringIcSt11char_traitsIcESaIcEE4sizeEv
	movq	%rax, %rbx
	movq	48(%rbp), %rax
	movq	%rax, %rcx
	call	_ZNKSt7__cxx1112basic_stringIcSt11char_traitsIcESaIcEE5c_strEv
	movq	%rax, %rsi
	movq	40(%rbp), %rax
	movq	%rax, %rcx
.LEHB149:
	call	_ZNSt11char_traitsIcE6lengthEPKc
	movq	%rax, %r8
	movq	32(%rbp), %rax
	movq	40(%rbp), %rdx
	leaq	-1(%rbp), %rcx
	movq	%rcx, 40(%rsp)
	movq	%rbx, 32(%rsp)
	movq	%rsi, %r9
	movq	%rax, %rcx
	call	_ZSt12__str_concatINSt7__cxx1112basic_stringIcSt11char_traitsIcESaIcEEEET_PKNS6_10value_typeENS6_9size_typeES9_SA_RKNS6_14allocator_typeE
.LEHE149:
	nop
	leaq	-1(%rbp), %rax
	movq	%rax, %rcx
	call	_ZNSt15__new_allocatorIcED2Ev
	nop
	jmp	.L539
.L538:
	movq	%rax, %rbx
	leaq	-1(%rbp), %rax
	movq	%rax, %rcx
	call	_ZNSt15__new_allocatorIcED2Ev
	nop
	movq	%rbx, %rax
	movq	%rax, %rcx
.LEHB150:
	call	_Unwind_Resume
.LEHE150:
.L539:
	movq	32(%rbp), %rax
	addq	$64, %rsp
	popq	%rbx
	popq	%rsi
	popq	%rbp
	ret
	.seh_handler	__gxx_personality_seh0, @unwind, @except
	.seh_handlerdata
.LLSDA6009:
	.byte	0xff
	.byte	0xff
	.byte	0x1
	.uleb128 .LLSDACSE6009-.LLSDACSB6009
.LLSDACSB6009:
	.uleb128 .LEHB149-.LFB6009
	.uleb128 .LEHE149-.LEHB149
	.uleb128 .L538-.LFB6009
	.uleb128 0
	.uleb128 .LEHB150-.LFB6009
	.uleb128 .LEHE150-.LEHB150
	.uleb128 0
	.uleb128 0
.LLSDACSE6009:
	.section	.text$_ZStplIcSt11char_traitsIcESaIcEENSt7__cxx1112basic_stringIT_T0_T1_EEPKS5_RKS8_,"x"
	.linkonce discard
	.seh_endproc
	.section	.text$_ZSt11__addressofINSt7__cxx1112basic_stringIcSt11char_traitsIcESaIcEEEEPT_RS6_,"x"
	.linkonce discard
	.globl	_ZSt11__addressofINSt7__cxx1112basic_stringIcSt11char_traitsIcESaIcEEEEPT_RS6_
	.def	_ZSt11__addressofINSt7__cxx1112basic_stringIcSt11char_traitsIcESaIcEEEEPT_RS6_;	.scl	2;	.type	32;	.endef
	.seh_proc	_ZSt11__addressofINSt7__cxx1112basic_stringIcSt11char_traitsIcESaIcEEEEPT_RS6_
_ZSt11__addressofINSt7__cxx1112basic_stringIcSt11char_traitsIcESaIcEEEEPT_RS6_:
.LFB6011:
	pushq	%rbp
	.seh_pushreg	%rbp
	movq	%rsp, %rbp
	.seh_setframe	%rbp, 0
	.seh_endprologue
	movq	%rcx, 16(%rbp)
	movq	16(%rbp), %rax
	popq	%rbp
	ret
	.seh_endproc
	.section	.text$_ZNKSt3setINSt7__cxx1112basic_stringIcSt11char_traitsIcESaIcEEESt4lessIS5_ESaIS5_EE5countERKS5_,"x"
	.linkonce discard
	.align 2
	.globl	_ZNKSt3setINSt7__cxx1112basic_stringIcSt11char_traitsIcESaIcEEESt4lessIS5_ESaIS5_EE5countERKS5_
	.def	_ZNKSt3setINSt7__cxx1112basic_stringIcSt11char_traitsIcESaIcEEESt4lessIS5_ESaIS5_EE5countERKS5_;	.scl	2;	.type	32;	.endef
	.seh_proc	_ZNKSt3setINSt7__cxx1112basic_stringIcSt11char_traitsIcESaIcEEESt4lessIS5_ESaIS5_EE5countERKS5_
_ZNKSt3setINSt7__cxx1112basic_stringIcSt11char_traitsIcESaIcEEESt4lessIS5_ESaIS5_EE5countERKS5_:
.LFB6016:
	pushq	%rbp
	.seh_pushreg	%rbp
	movq	%rsp, %rbp
	.seh_setframe	%rbp, 0
	subq	$48, %rsp
	.seh_stackalloc	48
	.seh_endprologue
	movq	%rcx, 16(%rbp)
	movq	%rdx, 24(%rbp)
	movq	16(%rbp), %rax
	movq	%rax, %rcx
	call	_ZNKSt8_Rb_treeINSt7__cxx1112basic_stringIcSt11char_traitsIcESaIcEEES5_St9_IdentityIS5_ESt4lessIS5_ESaIS5_EE3endEv
	movq	%rax, -16(%rbp)
	movq	16(%rbp), %rax
	movq	24(%rbp), %rdx
	movq	%rax, %rcx
	call	_ZNKSt8_Rb_treeINSt7__cxx1112basic_stringIcSt11char_traitsIcESaIcEEES5_St9_IdentityIS5_ESt4lessIS5_ESaIS5_EE4findERKS5_
	movq	%rax, -8(%rbp)
	leaq	-16(%rbp), %rdx
	leaq	-8(%rbp), %rax
	movq	%rax, %rcx
	call	_ZSteqRKSt23_Rb_tree_const_iteratorINSt7__cxx1112basic_stringIcSt11char_traitsIcESaIcEEEES8_
	testb	%al, %al
	je	.L543
	movl	$0, %eax
	jmp	.L545
.L543:
	movl	$1, %eax
.L545:
	addq	$48, %rsp
	popq	%rbp
	ret
	.seh_endproc
	.section	.text$_ZSt4moveIRSt6vectorISt10unique_ptrI7ASTNodeSt14default_deleteIS2_EESaIS5_EEEONSt16remove_referenceIT_E4typeEOSA_,"x"
	.linkonce discard
	.globl	_ZSt4moveIRSt6vectorISt10unique_ptrI7ASTNodeSt14default_deleteIS2_EESaIS5_EEEONSt16remove_referenceIT_E4typeEOSA_
	.def	_ZSt4moveIRSt6vectorISt10unique_ptrI7ASTNodeSt14default_deleteIS2_EESaIS5_EEEONSt16remove_referenceIT_E4typeEOSA_;	.scl	2;	.type	32;	.endef
	.seh_proc	_ZSt4moveIRSt6vectorISt10unique_ptrI7ASTNodeSt14default_deleteIS2_EESaIS5_EEEONSt16remove_referenceIT_E4typeEOSA_
_ZSt4moveIRSt6vectorISt10unique_ptrI7ASTNodeSt14default_deleteIS2_EESaIS5_EEEONSt16remove_referenceIT_E4typeEOSA_:
.LFB6017:
	pushq	%rbp
	.seh_pushreg	%rbp
	movq	%rsp, %rbp
	.seh_setframe	%rbp, 0
	.seh_endprologue
	movq	%rcx, 16(%rbp)
	movq	16(%rbp), %rax
	popq	%rbp
	ret
	.seh_endproc
	.section	.text$_ZNSt12_Vector_baseISt10unique_ptrI7ASTNodeSt14default_deleteIS1_EESaIS4_EE12_Vector_implC1EOS7_,"x"
	.linkonce discard
	.align 2
	.globl	_ZNSt12_Vector_baseISt10unique_ptrI7ASTNodeSt14default_deleteIS1_EESaIS4_EE12_Vector_implC1EOS7_
	.def	_ZNSt12_Vector_baseISt10unique_ptrI7ASTNodeSt14default_deleteIS1_EESaIS4_EE12_Vector_implC1EOS7_;	.scl	2;	.type	32;	.endef
	.seh_proc	_ZNSt12_Vector_baseISt10unique_ptrI7ASTNodeSt14default_deleteIS1_EESaIS4_EE12_Vector_implC1EOS7_
_ZNSt12_Vector_baseISt10unique_ptrI7ASTNodeSt14default_deleteIS1_EESaIS4_EE12_Vector_implC1EOS7_:
.LFB6020:
	pushq	%rbp
	.seh_pushreg	%rbp
	pushq	%rbx
	.seh_pushreg	%rbx
	subq	$72, %rsp
	.seh_stackalloc	72
	leaq	64(%rsp), %rbp
	.seh_setframe	%rbp, 64
	.seh_endprologue
	movq	%rcx, 32(%rbp)
	movq	%rdx, 40(%rbp)
	movq	40(%rbp), %rax
	movq	%rax, %rcx
	call	_ZSt4moveIRNSt12_Vector_baseISt10unique_ptrI7ASTNodeSt14default_deleteIS2_EESaIS5_EE12_Vector_implEEONSt16remove_referenceIT_E4typeEOSB_
	movq	32(%rbp), %rdx
	movq	%rdx, -8(%rbp)
	movq	%rax, -16(%rbp)
	movq	-8(%rbp), %rax
	movq	%rax, -24(%rbp)
	movq	-16(%rbp), %rax
	movq	%rax, -32(%rbp)
	nop
	nop
	movq	32(%rbp), %rbx
	movq	40(%rbp), %rax
	movq	%rax, %rcx
	call	_ZSt4moveIRNSt12_Vector_baseISt10unique_ptrI7ASTNodeSt14default_deleteIS2_EESaIS5_EE12_Vector_implEEONSt16remove_referenceIT_E4typeEOSB_
	movq	%rax, %rdx
	movq	%rbx, %rcx
	call	_ZNSt12_Vector_baseISt10unique_ptrI7ASTNodeSt14default_deleteIS1_EESaIS4_EE17_Vector_impl_dataC2EOS7_
	nop
	addq	$72, %rsp
	popq	%rbx
	popq	%rbp
	ret
	.seh_endproc
	.section	.text$_ZNSt12_Vector_baseISt10unique_ptrI7ASTNodeSt14default_deleteIS1_EESaIS4_EED2Ev,"x"
	.linkonce discard
	.align 2
	.globl	_ZNSt12_Vector_baseISt10unique_ptrI7ASTNodeSt14default_deleteIS1_EESaIS4_EED2Ev
	.def	_ZNSt12_Vector_baseISt10unique_ptrI7ASTNodeSt14default_deleteIS1_EESaIS4_EED2Ev;	.scl	2;	.type	32;	.endef
	.seh_proc	_ZNSt12_Vector_baseISt10unique_ptrI7ASTNodeSt14default_deleteIS1_EESaIS4_EED2Ev
_ZNSt12_Vector_baseISt10unique_ptrI7ASTNodeSt14default_deleteIS1_EESaIS4_EED2Ev:
.LFB6025:
	pushq	%rbp
	.seh_pushreg	%rbp
	movq	%rsp, %rbp
	.seh_setframe	%rbp, 0
	subq	$32, %rsp
	.seh_stackalloc	32
	.seh_endprologue
	movq	%rcx, 16(%rbp)
	movq	16(%rbp), %rax
	movq	16(%rax), %rdx
	movq	16(%rbp), %rax
	movq	(%rax), %rax
	subq	%rax, %rdx
	movq	%rdx, %rax
	sarq	$3, %rax
	movq	%rax, %rcx
	movq	16(%rbp), %rax
	movq	(%rax), %rdx
	movq	16(%rbp), %rax
	movq	%rcx, %r8
	movq	%rax, %rcx
	call	_ZNSt12_Vector_baseISt10unique_ptrI7ASTNodeSt14default_deleteIS1_EESaIS4_EE13_M_deallocateEPS4_y
	movq	16(%rbp), %rax
	movq	%rax, %rcx
	call	_ZNSt12_Vector_baseISt10unique_ptrI7ASTNodeSt14default_deleteIS1_EESaIS4_EE12_Vector_implD1Ev
	nop
	addq	$32, %rsp
	popq	%rbp
	ret
	.seh_handler	__gxx_personality_seh0, @unwind, @except
	.seh_handlerdata
.LLSDA6025:
	.byte	0xff
	.byte	0xff
	.byte	0x1
	.uleb128 .LLSDACSE6025-.LLSDACSB6025
.LLSDACSB6025:
.LLSDACSE6025:
	.section	.text$_ZNSt12_Vector_baseISt10unique_ptrI7ASTNodeSt14default_deleteIS1_EESaIS4_EED2Ev,"x"
	.linkonce discard
	.seh_endproc
	.section	.text$_ZNSt6vectorISt10unique_ptrI7ASTNodeSt14default_deleteIS1_EESaIS4_EED1Ev,"x"
	.linkonce discard
	.align 2
	.globl	_ZNSt6vectorISt10unique_ptrI7ASTNodeSt14default_deleteIS1_EESaIS4_EED1Ev
	.def	_ZNSt6vectorISt10unique_ptrI7ASTNodeSt14default_deleteIS1_EESaIS4_EED1Ev;	.scl	2;	.type	32;	.endef
	.seh_proc	_ZNSt6vectorISt10unique_ptrI7ASTNodeSt14default_deleteIS1_EESaIS4_EED1Ev
_ZNSt6vectorISt10unique_ptrI7ASTNodeSt14default_deleteIS1_EESaIS4_EED1Ev:
.LFB6029:
	pushq	%rbp
	.seh_pushreg	%rbp
	movq	%rsp, %rbp
	.seh_setframe	%rbp, 0
	subq	$64, %rsp
	.seh_stackalloc	64
	.seh_endprologue
	movq	%rcx, 16(%rbp)
	movq	16(%rbp), %rax
	movq	%rax, %rcx
	call	_ZNSt12_Vector_baseISt10unique_ptrI7ASTNodeSt14default_deleteIS1_EESaIS4_EE19_M_get_Tp_allocatorEv
	movq	16(%rbp), %rdx
	movq	8(%rdx), %rdx
	movq	16(%rbp), %rcx
	movq	(%rcx), %rcx
	movq	%rcx, -8(%rbp)
	movq	%rdx, -16(%rbp)
	movq	%rax, -24(%rbp)
	movq	-16(%rbp), %rdx
	movq	-8(%rbp), %rax
	movq	%rax, %rcx
	call	_ZSt8_DestroyIPSt10unique_ptrI7ASTNodeSt14default_deleteIS1_EEEvT_S6_
	nop
	movq	16(%rbp), %rax
	movq	%rax, %rcx
	call	_ZNSt12_Vector_baseISt10unique_ptrI7ASTNodeSt14default_deleteIS1_EESaIS4_EED2Ev
	nop
	addq	$64, %rsp
	popq	%rbp
	ret
	.seh_handler	__gxx_personality_seh0, @unwind, @except
	.seh_handlerdata
.LLSDA6029:
	.byte	0xff
	.byte	0xff
	.byte	0x1
	.uleb128 .LLSDACSE6029-.LLSDACSB6029
.LLSDACSB6029:
.LLSDACSE6029:
	.section	.text$_ZNSt6vectorISt10unique_ptrI7ASTNodeSt14default_deleteIS1_EESaIS4_EED1Ev,"x"
	.linkonce discard
	.seh_endproc
	.section	.text$_ZNKSt3setINSt7__cxx1112basic_stringIcSt11char_traitsIcESaIcEEESt4lessIS5_ESaIS5_EE5beginEv,"x"
	.linkonce discard
	.align 2
	.globl	_ZNKSt3setINSt7__cxx1112basic_stringIcSt11char_traitsIcESaIcEEESt4lessIS5_ESaIS5_EE5beginEv
	.def	_ZNKSt3setINSt7__cxx1112basic_stringIcSt11char_traitsIcESaIcEEESt4lessIS5_ESaIS5_EE5beginEv;	.scl	2;	.type	32;	.endef
	.seh_proc	_ZNKSt3setINSt7__cxx1112basic_stringIcSt11char_traitsIcESaIcEEESt4lessIS5_ESaIS5_EE5beginEv
_ZNKSt3setINSt7__cxx1112basic_stringIcSt11char_traitsIcESaIcEEESt4lessIS5_ESaIS5_EE5beginEv:
.LFB6030:
	pushq	%rbp
	.seh_pushreg	%rbp
	movq	%rsp, %rbp
	.seh_setframe	%rbp, 0
	subq	$32, %rsp
	.seh_stackalloc	32
	.seh_endprologue
	movq	%rcx, 16(%rbp)
	movq	16(%rbp), %rax
	movq	%rax, %rcx
	call	_ZNKSt8_Rb_treeINSt7__cxx1112basic_stringIcSt11char_traitsIcESaIcEEES5_St9_IdentityIS5_ESt4lessIS5_ESaIS5_EE5beginEv
	addq	$32, %rsp
	popq	%rbp
	ret
	.seh_endproc
	.section	.text$_ZNKSt3setINSt7__cxx1112basic_stringIcSt11char_traitsIcESaIcEEESt4lessIS5_ESaIS5_EE3endEv,"x"
	.linkonce discard
	.align 2
	.globl	_ZNKSt3setINSt7__cxx1112basic_stringIcSt11char_traitsIcESaIcEEESt4lessIS5_ESaIS5_EE3endEv
	.def	_ZNKSt3setINSt7__cxx1112basic_stringIcSt11char_traitsIcESaIcEEESt4lessIS5_ESaIS5_EE3endEv;	.scl	2;	.type	32;	.endef
	.seh_proc	_ZNKSt3setINSt7__cxx1112basic_stringIcSt11char_traitsIcESaIcEEESt4lessIS5_ESaIS5_EE3endEv
_ZNKSt3setINSt7__cxx1112basic_stringIcSt11char_traitsIcESaIcEEESt4lessIS5_ESaIS5_EE3endEv:
.LFB6031:
	pushq	%rbp
	.seh_pushreg	%rbp
	movq	%rsp, %rbp
	.seh_setframe	%rbp, 0
	subq	$32, %rsp
	.seh_stackalloc	32
	.seh_endprologue
	movq	%rcx, 16(%rbp)
	movq	16(%rbp), %rax
	movq	%rax, %rcx
	call	_ZNKSt8_Rb_treeINSt7__cxx1112basic_stringIcSt11char_traitsIcESaIcEEES5_St9_IdentityIS5_ESt4lessIS5_ESaIS5_EE3endEv
	addq	$32, %rsp
	popq	%rbp
	ret
	.seh_endproc
	.section	.text$_ZStneRKSt23_Rb_tree_const_iteratorINSt7__cxx1112basic_stringIcSt11char_traitsIcESaIcEEEES8_,"x"
	.linkonce discard
	.globl	_ZStneRKSt23_Rb_tree_const_iteratorINSt7__cxx1112basic_stringIcSt11char_traitsIcESaIcEEEES8_
	.def	_ZStneRKSt23_Rb_tree_const_iteratorINSt7__cxx1112basic_stringIcSt11char_traitsIcESaIcEEEES8_;	.scl	2;	.type	32;	.endef
	.seh_proc	_ZStneRKSt23_Rb_tree_const_iteratorINSt7__cxx1112basic_stringIcSt11char_traitsIcESaIcEEEES8_
_ZStneRKSt23_Rb_tree_const_iteratorINSt7__cxx1112basic_stringIcSt11char_traitsIcESaIcEEEES8_:
.LFB6032:
	pushq	%rbp
	.seh_pushreg	%rbp
	movq	%rsp, %rbp
	.seh_setframe	%rbp, 0
	.seh_endprologue
	movq	%rcx, 16(%rbp)
	movq	%rdx, 24(%rbp)
	movq	16(%rbp), %rax
	movq	(%rax), %rdx
	movq	24(%rbp), %rax
	movq	(%rax), %rax
	cmpq	%rax, %rdx
	setne	%al
	popq	%rbp
	ret
	.seh_endproc
	.section	.text$_ZNSt23_Rb_tree_const_iteratorINSt7__cxx1112basic_stringIcSt11char_traitsIcESaIcEEEEppEv,"x"
	.linkonce discard
	.align 2
	.globl	_ZNSt23_Rb_tree_const_iteratorINSt7__cxx1112basic_stringIcSt11char_traitsIcESaIcEEEEppEv
	.def	_ZNSt23_Rb_tree_const_iteratorINSt7__cxx1112basic_stringIcSt11char_traitsIcESaIcEEEEppEv;	.scl	2;	.type	32;	.endef
	.seh_proc	_ZNSt23_Rb_tree_const_iteratorINSt7__cxx1112basic_stringIcSt11char_traitsIcESaIcEEEEppEv
_ZNSt23_Rb_tree_const_iteratorINSt7__cxx1112basic_stringIcSt11char_traitsIcESaIcEEEEppEv:
.LFB6033:
	pushq	%rbp
	.seh_pushreg	%rbp
	movq	%rsp, %rbp
	.seh_setframe	%rbp, 0
	subq	$32, %rsp
	.seh_stackalloc	32
	.seh_endprologue
	movq	%rcx, 16(%rbp)
	movq	16(%rbp), %rax
	movq	(%rax), %rax
	movq	%rax, %rcx
	call	_ZSt18_Rb_tree_incrementPKSt18_Rb_tree_node_base
	movq	16(%rbp), %rdx
	movq	%rax, (%rdx)
	movq	16(%rbp), %rax
	addq	$32, %rsp
	popq	%rbp
	ret
	.seh_endproc
	.section	.text$_ZNKSt23_Rb_tree_const_iteratorINSt7__cxx1112basic_stringIcSt11char_traitsIcESaIcEEEEdeEv,"x"
	.linkonce discard
	.align 2
	.globl	_ZNKSt23_Rb_tree_const_iteratorINSt7__cxx1112basic_stringIcSt11char_traitsIcESaIcEEEEdeEv
	.def	_ZNKSt23_Rb_tree_const_iteratorINSt7__cxx1112basic_stringIcSt11char_traitsIcESaIcEEEEdeEv;	.scl	2;	.type	32;	.endef
	.seh_proc	_ZNKSt23_Rb_tree_const_iteratorINSt7__cxx1112basic_stringIcSt11char_traitsIcESaIcEEEEdeEv
_ZNKSt23_Rb_tree_const_iteratorINSt7__cxx1112basic_stringIcSt11char_traitsIcESaIcEEEEdeEv:
.LFB6034:
	pushq	%rbp
	.seh_pushreg	%rbp
	movq	%rsp, %rbp
	.seh_setframe	%rbp, 0
	subq	$32, %rsp
	.seh_stackalloc	32
	.seh_endprologue
	movq	%rcx, 16(%rbp)
	movq	16(%rbp), %rax
	movq	(%rax), %rax
	movq	%rax, %rcx
	call	_ZNKSt13_Rb_tree_nodeINSt7__cxx1112basic_stringIcSt11char_traitsIcESaIcEEEE9_M_valptrEv
	addq	$32, %rsp
	popq	%rbp
	ret
	.seh_endproc
	.section	.text$_ZNKSt3setINSt7__cxx1112basic_stringIcSt11char_traitsIcESaIcEEESt4lessIS5_ESaIS5_EE5emptyEv,"x"
	.linkonce discard
	.align 2
	.globl	_ZNKSt3setINSt7__cxx1112basic_stringIcSt11char_traitsIcESaIcEEESt4lessIS5_ESaIS5_EE5emptyEv
	.def	_ZNKSt3setINSt7__cxx1112basic_stringIcSt11char_traitsIcESaIcEEESt4lessIS5_ESaIS5_EE5emptyEv;	.scl	2;	.type	32;	.endef
	.seh_proc	_ZNKSt3setINSt7__cxx1112basic_stringIcSt11char_traitsIcESaIcEEESt4lessIS5_ESaIS5_EE5emptyEv
_ZNKSt3setINSt7__cxx1112basic_stringIcSt11char_traitsIcESaIcEEESt4lessIS5_ESaIS5_EE5emptyEv:
.LFB6036:
	pushq	%rbp
	.seh_pushreg	%rbp
	movq	%rsp, %rbp
	.seh_setframe	%rbp, 0
	subq	$32, %rsp
	.seh_stackalloc	32
	.seh_endprologue
	movq	%rcx, 16(%rbp)
	movq	16(%rbp), %rax
	movq	%rax, %rcx
	call	_ZNKSt8_Rb_treeINSt7__cxx1112basic_stringIcSt11char_traitsIcESaIcEEES5_St9_IdentityIS5_ESt4lessIS5_ESaIS5_EE5emptyEv
	addq	$32, %rsp
	popq	%rbp
	ret
	.seh_endproc
	.section	.text$_ZNSt6vectorISt10unique_ptrI7ASTNodeSt14default_deleteIS1_EESaIS4_EE5beginEv,"x"
	.linkonce discard
	.align 2
	.globl	_ZNSt6vectorISt10unique_ptrI7ASTNodeSt14default_deleteIS1_EESaIS4_EE5beginEv
	.def	_ZNSt6vectorISt10unique_ptrI7ASTNodeSt14default_deleteIS1_EESaIS4_EE5beginEv;	.scl	2;	.type	32;	.endef
	.seh_proc	_ZNSt6vectorISt10unique_ptrI7ASTNodeSt14default_deleteIS1_EESaIS4_EE5beginEv
_ZNSt6vectorISt10unique_ptrI7ASTNodeSt14default_deleteIS1_EESaIS4_EE5beginEv:
.LFB6038:
	pushq	%rbp
	.seh_pushreg	%rbp
	movq	%rsp, %rbp
	.seh_setframe	%rbp, 0
	subq	$48, %rsp
	.seh_stackalloc	48
	.seh_endprologue
	movq	%rcx, 16(%rbp)
	movq	16(%rbp), %rdx
	leaq	-8(%rbp), %rax
	movq	%rax, %rcx
	call	_ZN9__gnu_cxx17__normal_iteratorIPSt10unique_ptrI7ASTNodeSt14default_deleteIS2_EESt6vectorIS5_SaIS5_EEEC1ERKS6_
	movq	-8(%rbp), %rax
	addq	$48, %rsp
	popq	%rbp
	ret
	.seh_endproc
	.section	.text$_ZNSt6vectorISt10unique_ptrI7ASTNodeSt14default_deleteIS1_EESaIS4_EE3endEv,"x"
	.linkonce discard
	.align 2
	.globl	_ZNSt6vectorISt10unique_ptrI7ASTNodeSt14default_deleteIS1_EESaIS4_EE3endEv
	.def	_ZNSt6vectorISt10unique_ptrI7ASTNodeSt14default_deleteIS1_EESaIS4_EE3endEv;	.scl	2;	.type	32;	.endef
	.seh_proc	_ZNSt6vectorISt10unique_ptrI7ASTNodeSt14default_deleteIS1_EESaIS4_EE3endEv
_ZNSt6vectorISt10unique_ptrI7ASTNodeSt14default_deleteIS1_EESaIS4_EE3endEv:
.LFB6039:
	pushq	%rbp
	.seh_pushreg	%rbp
	movq	%rsp, %rbp
	.seh_setframe	%rbp, 0
	subq	$48, %rsp
	.seh_stackalloc	48
	.seh_endprologue
	movq	%rcx, 16(%rbp)
	movq	16(%rbp), %rax
	leaq	8(%rax), %rdx
	leaq	-8(%rbp), %rax
	movq	%rax, %rcx
	call	_ZN9__gnu_cxx17__normal_iteratorIPSt10unique_ptrI7ASTNodeSt14default_deleteIS2_EESt6vectorIS5_SaIS5_EEEC1ERKS6_
	movq	-8(%rbp), %rax
	addq	$48, %rsp
	popq	%rbp
	ret
	.seh_endproc
	.section	.text$_ZN9__gnu_cxxneIPSt10unique_ptrI7ASTNodeSt14default_deleteIS2_EESt6vectorIS5_SaIS5_EEEEbRKNS_17__normal_iteratorIT_T0_EESF_,"x"
	.linkonce discard
	.globl	_ZN9__gnu_cxxneIPSt10unique_ptrI7ASTNodeSt14default_deleteIS2_EESt6vectorIS5_SaIS5_EEEEbRKNS_17__normal_iteratorIT_T0_EESF_
	.def	_ZN9__gnu_cxxneIPSt10unique_ptrI7ASTNodeSt14default_deleteIS2_EESt6vectorIS5_SaIS5_EEEEbRKNS_17__normal_iteratorIT_T0_EESF_;	.scl	2;	.type	32;	.endef
	.seh_proc	_ZN9__gnu_cxxneIPSt10unique_ptrI7ASTNodeSt14default_deleteIS2_EESt6vectorIS5_SaIS5_EEEEbRKNS_17__normal_iteratorIT_T0_EESF_
_ZN9__gnu_cxxneIPSt10unique_ptrI7ASTNodeSt14default_deleteIS2_EESt6vectorIS5_SaIS5_EEEEbRKNS_17__normal_iteratorIT_T0_EESF_:
.LFB6040:
	pushq	%rbp
	.seh_pushreg	%rbp
	pushq	%rbx
	.seh_pushreg	%rbx
	subq	$40, %rsp
	.seh_stackalloc	40
	leaq	32(%rsp), %rbp
	.seh_setframe	%rbp, 32
	.seh_endprologue
	movq	%rcx, 32(%rbp)
	movq	%rdx, 40(%rbp)
	movq	32(%rbp), %rax
	movq	%rax, %rcx
	call	_ZNK9__gnu_cxx17__normal_iteratorIPSt10unique_ptrI7ASTNodeSt14default_deleteIS2_EESt6vectorIS5_SaIS5_EEE4baseEv
	movq	(%rax), %rbx
	movq	40(%rbp), %rax
	movq	%rax, %rcx
	call	_ZNK9__gnu_cxx17__normal_iteratorIPSt10unique_ptrI7ASTNodeSt14default_deleteIS2_EESt6vectorIS5_SaIS5_EEE4baseEv
	movq	(%rax), %rax
	cmpq	%rax, %rbx
	setne	%al
	addq	$40, %rsp
	popq	%rbx
	popq	%rbp
	ret
	.seh_endproc
	.section	.text$_ZN9__gnu_cxx17__normal_iteratorIPSt10unique_ptrI7ASTNodeSt14default_deleteIS2_EESt6vectorIS5_SaIS5_EEEppEv,"x"
	.linkonce discard
	.align 2
	.globl	_ZN9__gnu_cxx17__normal_iteratorIPSt10unique_ptrI7ASTNodeSt14default_deleteIS2_EESt6vectorIS5_SaIS5_EEEppEv
	.def	_ZN9__gnu_cxx17__normal_iteratorIPSt10unique_ptrI7ASTNodeSt14default_deleteIS2_EESt6vectorIS5_SaIS5_EEEppEv;	.scl	2;	.type	32;	.endef
	.seh_proc	_ZN9__gnu_cxx17__normal_iteratorIPSt10unique_ptrI7ASTNodeSt14default_deleteIS2_EESt6vectorIS5_SaIS5_EEEppEv
_ZN9__gnu_cxx17__normal_iteratorIPSt10unique_ptrI7ASTNodeSt14default_deleteIS2_EESt6vectorIS5_SaIS5_EEEppEv:
.LFB6041:
	pushq	%rbp
	.seh_pushreg	%rbp
	movq	%rsp, %rbp
	.seh_setframe	%rbp, 0
	.seh_endprologue
	movq	%rcx, 16(%rbp)
	movq	16(%rbp), %rax
	movq	(%rax), %rax
	leaq	8(%rax), %rdx
	movq	16(%rbp), %rax
	movq	%rdx, (%rax)
	movq	16(%rbp), %rax
	popq	%rbp
	ret
	.seh_endproc
	.section	.text$_ZNK9__gnu_cxx17__normal_iteratorIPSt10unique_ptrI7ASTNodeSt14default_deleteIS2_EESt6vectorIS5_SaIS5_EEEdeEv,"x"
	.linkonce discard
	.align 2
	.globl	_ZNK9__gnu_cxx17__normal_iteratorIPSt10unique_ptrI7ASTNodeSt14default_deleteIS2_EESt6vectorIS5_SaIS5_EEEdeEv
	.def	_ZNK9__gnu_cxx17__normal_iteratorIPSt10unique_ptrI7ASTNodeSt14default_deleteIS2_EESt6vectorIS5_SaIS5_EEEdeEv;	.scl	2;	.type	32;	.endef
	.seh_proc	_ZNK9__gnu_cxx17__normal_iteratorIPSt10unique_ptrI7ASTNodeSt14default_deleteIS2_EESt6vectorIS5_SaIS5_EEEdeEv
_ZNK9__gnu_cxx17__normal_iteratorIPSt10unique_ptrI7ASTNodeSt14default_deleteIS2_EESt6vectorIS5_SaIS5_EEEdeEv:
.LFB6042:
	pushq	%rbp
	.seh_pushreg	%rbp
	movq	%rsp, %rbp
	.seh_setframe	%rbp, 0
	.seh_endprologue
	movq	%rcx, 16(%rbp)
	movq	16(%rbp), %rax
	movq	(%rax), %rax
	popq	%rbp
	ret
	.seh_endproc
	.section	.text$_ZNKSt10unique_ptrI7ASTNodeSt14default_deleteIS0_EEptEv,"x"
	.linkonce discard
	.align 2
	.globl	_ZNKSt10unique_ptrI7ASTNodeSt14default_deleteIS0_EEptEv
	.def	_ZNKSt10unique_ptrI7ASTNodeSt14default_deleteIS0_EEptEv;	.scl	2;	.type	32;	.endef
	.seh_proc	_ZNKSt10unique_ptrI7ASTNodeSt14default_deleteIS0_EEptEv
_ZNKSt10unique_ptrI7ASTNodeSt14default_deleteIS0_EEptEv:
.LFB6043:
	pushq	%rbp
	.seh_pushreg	%rbp
	movq	%rsp, %rbp
	.seh_setframe	%rbp, 0
	subq	$32, %rsp
	.seh_stackalloc	32
	.seh_endprologue
	movq	%rcx, 16(%rbp)
	movq	16(%rbp), %rax
	movq	%rax, %rcx
	call	_ZNKSt10unique_ptrI7ASTNodeSt14default_deleteIS0_EE3getEv
	addq	$32, %rsp
	popq	%rbp
	ret
	.seh_endproc
	.section	.text$_ZStplIcSt11char_traitsIcESaIcEENSt7__cxx1112basic_stringIT_T0_T1_EEPKS5_OS8_,"x"
	.linkonce discard
	.globl	_ZStplIcSt11char_traitsIcESaIcEENSt7__cxx1112basic_stringIT_T0_T1_EEPKS5_OS8_
	.def	_ZStplIcSt11char_traitsIcESaIcEENSt7__cxx1112basic_stringIT_T0_T1_EEPKS5_OS8_;	.scl	2;	.type	32;	.endef
	.seh_proc	_ZStplIcSt11char_traitsIcESaIcEENSt7__cxx1112basic_stringIT_T0_T1_EEPKS5_OS8_
_ZStplIcSt11char_traitsIcESaIcEENSt7__cxx1112basic_stringIT_T0_T1_EEPKS5_OS8_:
.LFB6044:
	pushq	%rbp
	.seh_pushreg	%rbp
	movq	%rsp, %rbp
	.seh_setframe	%rbp, 0
	subq	$32, %rsp
	.seh_stackalloc	32
	.seh_endprologue
	movq	%rcx, 16(%rbp)
	movq	%rdx, 24(%rbp)
	movq	%r8, 32(%rbp)
	movq	24(%rbp), %rdx
	movq	32(%rbp), %rax
	movq	%rdx, %r8
	movl	$0, %edx
	movq	%rax, %rcx
	call	_ZNSt7__cxx1112basic_stringIcSt11char_traitsIcESaIcEE6insertEyPKc
	movq	%rax, %rcx
	call	_ZSt4moveIRNSt7__cxx1112basic_stringIcSt11char_traitsIcESaIcEEEEONSt16remove_referenceIT_E4typeEOS8_
	movq	%rax, %rdx
	movq	16(%rbp), %rax
	movq	%rax, %rcx
	call	_ZNSt7__cxx1112basic_stringIcSt11char_traitsIcESaIcEEC1EOS4_
	movq	16(%rbp), %rax
	addq	$32, %rsp
	popq	%rbp
	ret
	.seh_endproc
	.section	.text$_ZNKSt6vectorISt10unique_ptrI7ASTNodeSt14default_deleteIS1_EESaIS4_EE5emptyEv,"x"
	.linkonce discard
	.align 2
	.globl	_ZNKSt6vectorISt10unique_ptrI7ASTNodeSt14default_deleteIS1_EESaIS4_EE5emptyEv
	.def	_ZNKSt6vectorISt10unique_ptrI7ASTNodeSt14default_deleteIS1_EESaIS4_EE5emptyEv;	.scl	2;	.type	32;	.endef
	.seh_proc	_ZNKSt6vectorISt10unique_ptrI7ASTNodeSt14default_deleteIS1_EESaIS4_EE5emptyEv
_ZNKSt6vectorISt10unique_ptrI7ASTNodeSt14default_deleteIS1_EESaIS4_EE5emptyEv:
.LFB6045:
	pushq	%rbp
	.seh_pushreg	%rbp
	movq	%rsp, %rbp
	.seh_setframe	%rbp, 0
	subq	$48, %rsp
	.seh_stackalloc	48
	.seh_endprologue
	movq	%rcx, 16(%rbp)
	movq	16(%rbp), %rax
	movq	%rax, %rcx
	call	_ZNKSt6vectorISt10unique_ptrI7ASTNodeSt14default_deleteIS1_EESaIS4_EE3endEv
	movq	%rax, -16(%rbp)
	movq	16(%rbp), %rax
	movq	%rax, %rcx
	call	_ZNKSt6vectorISt10unique_ptrI7ASTNodeSt14default_deleteIS1_EESaIS4_EE5beginEv
	movq	%rax, -8(%rbp)
	leaq	-16(%rbp), %rdx
	leaq	-8(%rbp), %rax
	movq	%rax, %rcx
	call	_ZN9__gnu_cxxeqIPKSt10unique_ptrI7ASTNodeSt14default_deleteIS2_EESt6vectorIS5_SaIS5_EEEEbRKNS_17__normal_iteratorIT_T0_EESG_
	addq	$48, %rsp
	popq	%rbp
	ret
	.seh_endproc
	.section	.text$_ZNSt6vectorISt10unique_ptrI7ASTNodeSt14default_deleteIS1_EESaIS4_EEixEy,"x"
	.linkonce discard
	.align 2
	.globl	_ZNSt6vectorISt10unique_ptrI7ASTNodeSt14default_deleteIS1_EESaIS4_EEixEy
	.def	_ZNSt6vectorISt10unique_ptrI7ASTNodeSt14default_deleteIS1_EESaIS4_EEixEy;	.scl	2;	.type	32;	.endef
	.seh_proc	_ZNSt6vectorISt10unique_ptrI7ASTNodeSt14default_deleteIS1_EESaIS4_EEixEy
_ZNSt6vectorISt10unique_ptrI7ASTNodeSt14default_deleteIS1_EESaIS4_EEixEy:
.LFB6046:
	pushq	%rbp
	.seh_pushreg	%rbp
	movq	%rsp, %rbp
	.seh_setframe	%rbp, 0
	.seh_endprologue
	movq	%rcx, 16(%rbp)
	movq	%rdx, 24(%rbp)
	movq	16(%rbp), %rax
	movq	(%rax), %rax
	movq	24(%rbp), %rdx
	salq	$3, %rdx
	addq	%rdx, %rax
	popq	%rbp
	ret
	.seh_endproc
	.section	.text$_ZNSt6vectorINSt7__cxx1112basic_stringIcSt11char_traitsIcESaIcEEESaIS5_EE5beginEv,"x"
	.linkonce discard
	.align 2
	.globl	_ZNSt6vectorINSt7__cxx1112basic_stringIcSt11char_traitsIcESaIcEEESaIS5_EE5beginEv
	.def	_ZNSt6vectorINSt7__cxx1112basic_stringIcSt11char_traitsIcESaIcEEESaIS5_EE5beginEv;	.scl	2;	.type	32;	.endef
	.seh_proc	_ZNSt6vectorINSt7__cxx1112basic_stringIcSt11char_traitsIcESaIcEEESaIS5_EE5beginEv
_ZNSt6vectorINSt7__cxx1112basic_stringIcSt11char_traitsIcESaIcEEESaIS5_EE5beginEv:
.LFB6047:
	pushq	%rbp
	.seh_pushreg	%rbp
	movq	%rsp, %rbp
	.seh_setframe	%rbp, 0
	subq	$48, %rsp
	.seh_stackalloc	48
	.seh_endprologue
	movq	%rcx, 16(%rbp)
	movq	16(%rbp), %rdx
	leaq	-8(%rbp), %rax
	movq	%rax, %rcx
	call	_ZN9__gnu_cxx17__normal_iteratorIPNSt7__cxx1112basic_stringIcSt11char_traitsIcESaIcEEESt6vectorIS6_SaIS6_EEEC1ERKS7_
	movq	-8(%rbp), %rax
	addq	$48, %rsp
	popq	%rbp
	ret
	.seh_endproc
	.section	.text$_ZNSt6vectorINSt7__cxx1112basic_stringIcSt11char_traitsIcESaIcEEESaIS5_EE3endEv,"x"
	.linkonce discard
	.align 2
	.globl	_ZNSt6vectorINSt7__cxx1112basic_stringIcSt11char_traitsIcESaIcEEESaIS5_EE3endEv
	.def	_ZNSt6vectorINSt7__cxx1112basic_stringIcSt11char_traitsIcESaIcEEESaIS5_EE3endEv;	.scl	2;	.type	32;	.endef
	.seh_proc	_ZNSt6vectorINSt7__cxx1112basic_stringIcSt11char_traitsIcESaIcEEESaIS5_EE3endEv
_ZNSt6vectorINSt7__cxx1112basic_stringIcSt11char_traitsIcESaIcEEESaIS5_EE3endEv:
.LFB6048:
	pushq	%rbp
	.seh_pushreg	%rbp
	movq	%rsp, %rbp
	.seh_setframe	%rbp, 0
	subq	$48, %rsp
	.seh_stackalloc	48
	.seh_endprologue
	movq	%rcx, 16(%rbp)
	movq	16(%rbp), %rax
	leaq	8(%rax), %rdx
	leaq	-8(%rbp), %rax
	movq	%rax, %rcx
	call	_ZN9__gnu_cxx17__normal_iteratorIPNSt7__cxx1112basic_stringIcSt11char_traitsIcESaIcEEESt6vectorIS6_SaIS6_EEEC1ERKS7_
	movq	-8(%rbp), %rax
	addq	$48, %rsp
	popq	%rbp
	ret
	.seh_endproc
	.section	.text$_ZSt4findIN9__gnu_cxx17__normal_iteratorIPNSt7__cxx1112basic_stringIcSt11char_traitsIcESaIcEEESt6vectorIS7_SaIS7_EEEES7_ET_SD_SD_RKT0_,"x"
	.linkonce discard
	.globl	_ZSt4findIN9__gnu_cxx17__normal_iteratorIPNSt7__cxx1112basic_stringIcSt11char_traitsIcESaIcEEESt6vectorIS7_SaIS7_EEEES7_ET_SD_SD_RKT0_
	.def	_ZSt4findIN9__gnu_cxx17__normal_iteratorIPNSt7__cxx1112basic_stringIcSt11char_traitsIcESaIcEEESt6vectorIS7_SaIS7_EEEES7_ET_SD_SD_RKT0_;	.scl	2;	.type	32;	.endef
	.seh_proc	_ZSt4findIN9__gnu_cxx17__normal_iteratorIPNSt7__cxx1112basic_stringIcSt11char_traitsIcESaIcEEESt6vectorIS7_SaIS7_EEEES7_ET_SD_SD_RKT0_
_ZSt4findIN9__gnu_cxx17__normal_iteratorIPNSt7__cxx1112basic_stringIcSt11char_traitsIcESaIcEEESt6vectorIS7_SaIS7_EEEES7_ET_SD_SD_RKT0_:
.LFB6049:
	pushq	%rbp
	.seh_pushreg	%rbp
	movq	%rsp, %rbp
	.seh_setframe	%rbp, 0
	subq	$32, %rsp
	.seh_stackalloc	32
	.seh_endprologue
	movq	%rcx, 16(%rbp)
	movq	%rdx, 24(%rbp)
	movq	%r8, 32(%rbp)
	movq	32(%rbp), %rax
	movq	%rax, %rcx
	call	_ZN9__gnu_cxx5__ops17__iter_equals_valIKNSt7__cxx1112basic_stringIcSt11char_traitsIcESaIcEEEEENS0_16_Iter_equals_valIT_EERSA_
	movq	%rax, %rcx
	movq	24(%rbp), %rdx
	movq	16(%rbp), %rax
	movq	%rcx, %r8
	movq	%rax, %rcx
	call	_ZSt9__find_ifIN9__gnu_cxx17__normal_iteratorIPNSt7__cxx1112basic_stringIcSt11char_traitsIcESaIcEEESt6vectorIS7_SaIS7_EEEENS0_5__ops16_Iter_equals_valIKS7_EEET_SH_SH_T0_
	addq	$32, %rsp
	popq	%rbp
	ret
	.seh_endproc
	.section	.text$_ZN9__gnu_cxxneIPNSt7__cxx1112basic_stringIcSt11char_traitsIcESaIcEEESt6vectorIS6_SaIS6_EEEEbRKNS_17__normal_iteratorIT_T0_EESG_,"x"
	.linkonce discard
	.globl	_ZN9__gnu_cxxneIPNSt7__cxx1112basic_stringIcSt11char_traitsIcESaIcEEESt6vectorIS6_SaIS6_EEEEbRKNS_17__normal_iteratorIT_T0_EESG_
	.def	_ZN9__gnu_cxxneIPNSt7__cxx1112basic_stringIcSt11char_traitsIcESaIcEEESt6vectorIS6_SaIS6_EEEEbRKNS_17__normal_iteratorIT_T0_EESG_;	.scl	2;	.type	32;	.endef
	.seh_proc	_ZN9__gnu_cxxneIPNSt7__cxx1112basic_stringIcSt11char_traitsIcESaIcEEESt6vectorIS6_SaIS6_EEEEbRKNS_17__normal_iteratorIT_T0_EESG_
_ZN9__gnu_cxxneIPNSt7__cxx1112basic_stringIcSt11char_traitsIcESaIcEEESt6vectorIS6_SaIS6_EEEEbRKNS_17__normal_iteratorIT_T0_EESG_:
.LFB6050:
	pushq	%rbp
	.seh_pushreg	%rbp
	pushq	%rbx
	.seh_pushreg	%rbx
	subq	$40, %rsp
	.seh_stackalloc	40
	leaq	32(%rsp), %rbp
	.seh_setframe	%rbp, 32
	.seh_endprologue
	movq	%rcx, 32(%rbp)
	movq	%rdx, 40(%rbp)
	movq	32(%rbp), %rax
	movq	%rax, %rcx
	call	_ZNK9__gnu_cxx17__normal_iteratorIPNSt7__cxx1112basic_stringIcSt11char_traitsIcESaIcEEESt6vectorIS6_SaIS6_EEE4baseEv
	movq	(%rax), %rbx
	movq	40(%rbp), %rax
	movq	%rax, %rcx
	call	_ZNK9__gnu_cxx17__normal_iteratorIPNSt7__cxx1112basic_stringIcSt11char_traitsIcESaIcEEESt6vectorIS6_SaIS6_EEE4baseEv
	movq	(%rax), %rax
	cmpq	%rax, %rbx
	setne	%al
	addq	$40, %rsp
	popq	%rbx
	popq	%rbp
	ret
	.seh_endproc
	.section	.text$_ZNSt3mapINSt7__cxx1112basic_stringIcSt11char_traitsIcESaIcEEESt6vectorIbSaIbEESt4lessIS5_ESaISt4pairIKS5_S8_EEEixERSC_,"x"
	.linkonce discard
	.align 2
	.globl	_ZNSt3mapINSt7__cxx1112basic_stringIcSt11char_traitsIcESaIcEEESt6vectorIbSaIbEESt4lessIS5_ESaISt4pairIKS5_S8_EEEixERSC_
	.def	_ZNSt3mapINSt7__cxx1112basic_stringIcSt11char_traitsIcESaIcEEESt6vectorIbSaIbEESt4lessIS5_ESaISt4pairIKS5_S8_EEEixERSC_;	.scl	2;	.type	32;	.endef
	.seh_proc	_ZNSt3mapINSt7__cxx1112basic_stringIcSt11char_traitsIcESaIcEEESt6vectorIbSaIbEESt4lessIS5_ESaISt4pairIKS5_S8_EEEixERSC_
_ZNSt3mapINSt7__cxx1112basic_stringIcSt11char_traitsIcESaIcEEESt6vectorIbSaIbEESt4lessIS5_ESaISt4pairIKS5_S8_EEEixERSC_:
.LFB6052:
	pushq	%rbp
	.seh_pushreg	%rbp
	pushq	%rbx
	.seh_pushreg	%rbx
	subq	$104, %rsp
	.seh_stackalloc	104
	leaq	96(%rsp), %rbp
	.seh_setframe	%rbp, 96
	.seh_endprologue
	movq	%rcx, 32(%rbp)
	movq	%rdx, 40(%rbp)
	movq	40(%rbp), %rdx
	movq	32(%rbp), %rax
	movq	%rax, %rcx
	call	_ZNSt3mapINSt7__cxx1112basic_stringIcSt11char_traitsIcESaIcEEESt6vectorIbSaIbEESt4lessIS5_ESaISt4pairIKS5_S8_EEE11lower_boundERSC_
	movq	%rax, -40(%rbp)
	movq	32(%rbp), %rax
	movq	%rax, %rcx
	call	_ZNSt3mapINSt7__cxx1112basic_stringIcSt11char_traitsIcESaIcEEESt6vectorIbSaIbEESt4lessIS5_ESaISt4pairIKS5_S8_EEE3endEv
	movq	%rax, -32(%rbp)
	leaq	-32(%rbp), %rdx
	leaq	-40(%rbp), %rax
	movq	%rax, %rcx
	call	_ZSteqRKSt17_Rb_tree_iteratorISt4pairIKNSt7__cxx1112basic_stringIcSt11char_traitsIcESaIcEEESt6vectorIbSaIbEEEESE_
	testb	%al, %al
	jne	.L590
	movq	32(%rbp), %rax
	movq	%rax, %rcx
	call	_ZNKSt3mapINSt7__cxx1112basic_stringIcSt11char_traitsIcESaIcEEESt6vectorIbSaIbEESt4lessIS5_ESaISt4pairIKS5_S8_EEE8key_compEv
	leaq	-40(%rbp), %rax
	movq	%rax, %rcx
	call	_ZNKSt17_Rb_tree_iteratorISt4pairIKNSt7__cxx1112basic_stringIcSt11char_traitsIcESaIcEEESt6vectorIbSaIbEEEEdeEv
	movq	%rax, %rcx
	movq	40(%rbp), %rdx
	leaq	-18(%rbp), %rax
	movq	%rcx, %r8
	movq	%rax, %rcx
	call	_ZNKSt4lessINSt7__cxx1112basic_stringIcSt11char_traitsIcESaIcEEEEclERKS5_S8_
	testb	%al, %al
	je	.L591
.L590:
	movl	$1, %eax
	jmp	.L592
.L591:
	movl	$0, %eax
.L592:
	testb	%al, %al
	je	.L593
	movq	32(%rbp), %rbx
	movq	40(%rbp), %rdx
	leaq	-16(%rbp), %rax
	movq	%rax, %rcx
	call	_ZNSt5tupleIJRKNSt7__cxx1112basic_stringIcSt11char_traitsIcESaIcEEEEEC1ILb1ELb1EEES7_
	leaq	-40(%rbp), %rdx
	leaq	-8(%rbp), %rax
	movq	%rax, %rcx
	call	_ZNSt23_Rb_tree_const_iteratorISt4pairIKNSt7__cxx1112basic_stringIcSt11char_traitsIcESaIcEEESt6vectorIbSaIbEEEEC1ERKSt17_Rb_tree_iteratorISB_E
	leaq	-16(%rbp), %rcx
	movq	-8(%rbp), %rax
	leaq	-17(%rbp), %rdx
	movq	%rdx, 32(%rsp)
	movq	%rcx, %r9
	leaq	_ZSt19piecewise_construct(%rip), %r8
	movq	%rax, %rdx
	movq	%rbx, %rcx
	call	_ZNSt8_Rb_treeINSt7__cxx1112basic_stringIcSt11char_traitsIcESaIcEEESt4pairIKS5_St6vectorIbSaIbEEESt10_Select1stISB_ESt4lessIS5_ESaISB_EE22_M_emplace_hint_uniqueIJRKSt21piecewise_construct_tSt5tupleIJRS7_EESM_IJEEEEESt17_Rb_tree_iteratorISB_ESt23_Rb_tree_const_iteratorISB_EDpOT_
	movq	%rax, -40(%rbp)
.L593:
	leaq	-40(%rbp), %rax
	movq	%rax, %rcx
	call	_ZNKSt17_Rb_tree_iteratorISt4pairIKNSt7__cxx1112basic_stringIcSt11char_traitsIcESaIcEEESt6vectorIbSaIbEEEEdeEv
	addq	$32, %rax
	addq	$104, %rsp
	popq	%rbx
	popq	%rbp
	ret
	.seh_endproc
	.section	.text$_ZNSt6vectorIbSaIbEEixEy,"x"
	.linkonce discard
	.align 2
	.globl	_ZNSt6vectorIbSaIbEEixEy
	.def	_ZNSt6vectorIbSaIbEEixEy;	.scl	2;	.type	32;	.endef
	.seh_proc	_ZNSt6vectorIbSaIbEEixEy
_ZNSt6vectorIbSaIbEEixEy:
.LFB6060:
	pushq	%rbp
	.seh_pushreg	%rbp
	movq	%rsp, %rbp
	.seh_setframe	%rbp, 0
	subq	$48, %rsp
	.seh_stackalloc	48
	.seh_endprologue
	movq	%rcx, 16(%rbp)
	movq	%rdx, 24(%rbp)
	movq	%r8, 32(%rbp)
	leaq	-16(%rbp), %rax
	movq	24(%rbp), %rdx
	movq	%rax, %rcx
	call	_ZNSt6vectorIbSaIbEE5beginEv
	movq	32(%rbp), %rcx
	movq	16(%rbp), %rax
	leaq	-16(%rbp), %rdx
	movq	%rcx, %r8
	movq	%rax, %rcx
	call	_ZNKSt13_Bit_iteratorixEx
	nop
	movq	16(%rbp), %rax
	addq	$48, %rsp
	popq	%rbp
	ret
	.seh_endproc
	.section	.text$_ZNKSt6vectorISt10unique_ptrI7ASTNodeSt14default_deleteIS1_EESaIS4_EE4sizeEv,"x"
	.linkonce discard
	.align 2
	.globl	_ZNKSt6vectorISt10unique_ptrI7ASTNodeSt14default_deleteIS1_EESaIS4_EE4sizeEv
	.def	_ZNKSt6vectorISt10unique_ptrI7ASTNodeSt14default_deleteIS1_EESaIS4_EE4sizeEv;	.scl	2;	.type	32;	.endef
	.seh_proc	_ZNKSt6vectorISt10unique_ptrI7ASTNodeSt14default_deleteIS1_EESaIS4_EE4sizeEv
_ZNKSt6vectorISt10unique_ptrI7ASTNodeSt14default_deleteIS1_EESaIS4_EE4sizeEv:
.LFB6061:
	pushq	%rbp
	.seh_pushreg	%rbp
	movq	%rsp, %rbp
	.seh_setframe	%rbp, 0
	.seh_endprologue
	movq	%rcx, 16(%rbp)
	movq	16(%rbp), %rax
	movq	8(%rax), %rdx
	movq	16(%rbp), %rax
	movq	(%rax), %rax
	subq	%rax, %rdx
	movq	%rdx, %rax
	sarq	$3, %rax
	popq	%rbp
	ret
	.seh_endproc
	.section	.text$_ZNKSt3mapINSt7__cxx1112basic_stringIcSt11char_traitsIcESaIcEEESt6vectorIbSaIbEESt4lessIS5_ESaISt4pairIKS5_S8_EEE5countERSC_,"x"
	.linkonce discard
	.align 2
	.globl	_ZNKSt3mapINSt7__cxx1112basic_stringIcSt11char_traitsIcESaIcEEESt6vectorIbSaIbEESt4lessIS5_ESaISt4pairIKS5_S8_EEE5countERSC_
	.def	_ZNKSt3mapINSt7__cxx1112basic_stringIcSt11char_traitsIcESaIcEEESt6vectorIbSaIbEESt4lessIS5_ESaISt4pairIKS5_S8_EEE5countERSC_;	.scl	2;	.type	32;	.endef
	.seh_proc	_ZNKSt3mapINSt7__cxx1112basic_stringIcSt11char_traitsIcESaIcEEESt6vectorIbSaIbEESt4lessIS5_ESaISt4pairIKS5_S8_EEE5countERSC_
_ZNKSt3mapINSt7__cxx1112basic_stringIcSt11char_traitsIcESaIcEEESt6vectorIbSaIbEESt4lessIS5_ESaISt4pairIKS5_S8_EEE5countERSC_:
.LFB6062:
	pushq	%rbp
	.seh_pushreg	%rbp
	movq	%rsp, %rbp
	.seh_setframe	%rbp, 0
	subq	$48, %rsp
	.seh_stackalloc	48
	.seh_endprologue
	movq	%rcx, 16(%rbp)
	movq	%rdx, 24(%rbp)
	movq	16(%rbp), %rax
	movq	%rax, %rcx
	call	_ZNKSt8_Rb_treeINSt7__cxx1112basic_stringIcSt11char_traitsIcESaIcEEESt4pairIKS5_St6vectorIbSaIbEEESt10_Select1stISB_ESt4lessIS5_ESaISB_EE3endEv
	movq	%rax, -16(%rbp)
	movq	16(%rbp), %rax
	movq	24(%rbp), %rdx
	movq	%rax, %rcx
	call	_ZNKSt8_Rb_treeINSt7__cxx1112basic_stringIcSt11char_traitsIcESaIcEEESt4pairIKS5_St6vectorIbSaIbEEESt10_Select1stISB_ESt4lessIS5_ESaISB_EE4findERS7_
	movq	%rax, -8(%rbp)
	leaq	-16(%rbp), %rdx
	leaq	-8(%rbp), %rax
	movq	%rax, %rcx
	call	_ZSteqRKSt23_Rb_tree_const_iteratorISt4pairIKNSt7__cxx1112basic_stringIcSt11char_traitsIcESaIcEEESt6vectorIbSaIbEEEESE_
	testb	%al, %al
	je	.L600
	movl	$0, %eax
	jmp	.L602
.L600:
	movl	$1, %eax
.L602:
	addq	$48, %rsp
	popq	%rbp
	ret
	.seh_endproc
	.section	.text$_ZNKSt6vectorIbSaIbEE4sizeEv,"x"
	.linkonce discard
	.align 2
	.globl	_ZNKSt6vectorIbSaIbEE4sizeEv
	.def	_ZNKSt6vectorIbSaIbEE4sizeEv;	.scl	2;	.type	32;	.endef
	.seh_proc	_ZNKSt6vectorIbSaIbEE4sizeEv
_ZNKSt6vectorIbSaIbEE4sizeEv:
.LFB6063:
	pushq	%rbp
	.seh_pushreg	%rbp
	movq	%rsp, %rbp
	.seh_setframe	%rbp, 0
	subq	$64, %rsp
	.seh_stackalloc	64
	.seh_endprologue
	movq	%rcx, 16(%rbp)
	leaq	-32(%rbp), %rax
	movq	16(%rbp), %rdx
	movq	%rax, %rcx
	call	_ZNKSt6vectorIbSaIbEE5beginEv
	leaq	-16(%rbp), %rax
	movq	16(%rbp), %rdx
	movq	%rax, %rcx
	call	_ZNKSt6vectorIbSaIbEE3endEv
	leaq	-32(%rbp), %rdx
	leaq	-16(%rbp), %rax
	movq	%rax, %rcx
	call	_ZStmiRKSt18_Bit_iterator_baseS1_
	addq	$64, %rsp
	popq	%rbp
	ret
	.seh_endproc
	.section	.text$_ZNSt3setINSt7__cxx1112basic_stringIcSt11char_traitsIcESaIcEEESt4lessIS5_ESaIS5_EE6insertEOS5_,"x"
	.linkonce discard
	.align 2
	.globl	_ZNSt3setINSt7__cxx1112basic_stringIcSt11char_traitsIcESaIcEEESt4lessIS5_ESaIS5_EE6insertEOS5_
	.def	_ZNSt3setINSt7__cxx1112basic_stringIcSt11char_traitsIcESaIcEEESt4lessIS5_ESaIS5_EE6insertEOS5_;	.scl	2;	.type	32;	.endef
	.seh_proc	_ZNSt3setINSt7__cxx1112basic_stringIcSt11char_traitsIcESaIcEEESt4lessIS5_ESaIS5_EE6insertEOS5_
_ZNSt3setINSt7__cxx1112basic_stringIcSt11char_traitsIcESaIcEEESt4lessIS5_ESaIS5_EE6insertEOS5_:
.LFB6064:
	pushq	%rbp
	.seh_pushreg	%rbp
	pushq	%rbx
	.seh_pushreg	%rbx
	subq	$56, %rsp
	.seh_stackalloc	56
	leaq	48(%rsp), %rbp
	.seh_setframe	%rbp, 48
	.seh_endprologue
	movq	%rcx, 32(%rbp)
	movq	%rdx, 40(%rbp)
	movq	%r8, 48(%rbp)
	movq	40(%rbp), %rbx
	movq	48(%rbp), %rax
	movq	%rax, %rcx
	call	_ZSt4moveIRNSt7__cxx1112basic_stringIcSt11char_traitsIcESaIcEEEEONSt16remove_referenceIT_E4typeEOS8_
	movq	%rax, %rdx
	leaq	-16(%rbp), %rax
	movq	%rdx, %r8
	movq	%rbx, %rdx
	movq	%rax, %rcx
	call	_ZNSt8_Rb_treeINSt7__cxx1112basic_stringIcSt11char_traitsIcESaIcEEES5_St9_IdentityIS5_ESt4lessIS5_ESaIS5_EE16_M_insert_uniqueIS5_EESt4pairISt17_Rb_tree_iteratorIS5_EbEOT_
	leaq	-16(%rbp), %rax
	leaq	8(%rax), %rcx
	leaq	-16(%rbp), %rdx
	movq	32(%rbp), %rax
	movq	%rcx, %r8
	movq	%rax, %rcx
	call	_ZNSt4pairISt23_Rb_tree_const_iteratorINSt7__cxx1112basic_stringIcSt11char_traitsIcESaIcEEEEbEC1IRSt17_Rb_tree_iteratorIS6_ERbLb1EEEOT_OT0_
	movq	32(%rbp), %rax
	addq	$56, %rsp
	popq	%rbx
	popq	%rbp
	ret
	.seh_endproc
	.section	.text$_ZNSt6vectorINSt7__cxx1112basic_stringIcSt11char_traitsIcESaIcEEESaIS5_EED1Ev,"x"
	.linkonce discard
	.align 2
	.globl	_ZNSt6vectorINSt7__cxx1112basic_stringIcSt11char_traitsIcESaIcEEESaIS5_EED1Ev
	.def	_ZNSt6vectorINSt7__cxx1112basic_stringIcSt11char_traitsIcESaIcEEESaIS5_EED1Ev;	.scl	2;	.type	32;	.endef
	.seh_proc	_ZNSt6vectorINSt7__cxx1112basic_stringIcSt11char_traitsIcESaIcEEESaIS5_EED1Ev
_ZNSt6vectorINSt7__cxx1112basic_stringIcSt11char_traitsIcESaIcEEESaIS5_EED1Ev:
.LFB6067:
	pushq	%rbp
	.seh_pushreg	%rbp
	movq	%rsp, %rbp
	.seh_setframe	%rbp, 0
	subq	$64, %rsp
	.seh_stackalloc	64
	.seh_endprologue
	movq	%rcx, 16(%rbp)
	movq	16(%rbp), %rax
	movq	%rax, %rcx
	call	_ZNSt12_Vector_baseINSt7__cxx1112basic_stringIcSt11char_traitsIcESaIcEEESaIS5_EE19_M_get_Tp_allocatorEv
	movq	16(%rbp), %rdx
	movq	8(%rdx), %rdx
	movq	16(%rbp), %rcx
	movq	(%rcx), %rcx
	movq	%rcx, -8(%rbp)
	movq	%rdx, -16(%rbp)
	movq	%rax, -24(%rbp)
	movq	-16(%rbp), %rdx
	movq	-8(%rbp), %rax
	movq	%rax, %rcx
	call	_ZSt8_DestroyIPNSt7__cxx1112basic_stringIcSt11char_traitsIcESaIcEEEEvT_S7_
	nop
	movq	16(%rbp), %rax
	movq	%rax, %rcx
	call	_ZNSt12_Vector_baseINSt7__cxx1112basic_stringIcSt11char_traitsIcESaIcEEESaIS5_EED2Ev
	nop
	addq	$64, %rsp
	popq	%rbp
	ret
	.seh_handler	__gxx_personality_seh0, @unwind, @except
	.seh_handlerdata
.LLSDA6067:
	.byte	0xff
	.byte	0xff
	.byte	0x1
	.uleb128 .LLSDACSE6067-.LLSDACSB6067
.LLSDACSB6067:
.LLSDACSE6067:
	.section	.text$_ZNSt6vectorINSt7__cxx1112basic_stringIcSt11char_traitsIcESaIcEEESaIS5_EED1Ev,"x"
	.linkonce discard
	.seh_endproc
	.section	.text$_ZNSt6vectorINSt7__cxx1112basic_stringIcSt11char_traitsIcESaIcEEESaIS5_EE9push_backEOS5_,"x"
	.linkonce discard
	.align 2
	.globl	_ZNSt6vectorINSt7__cxx1112basic_stringIcSt11char_traitsIcESaIcEEESaIS5_EE9push_backEOS5_
	.def	_ZNSt6vectorINSt7__cxx1112basic_stringIcSt11char_traitsIcESaIcEEESaIS5_EE9push_backEOS5_;	.scl	2;	.type	32;	.endef
	.seh_proc	_ZNSt6vectorINSt7__cxx1112basic_stringIcSt11char_traitsIcESaIcEEESaIS5_EE9push_backEOS5_
_ZNSt6vectorINSt7__cxx1112basic_stringIcSt11char_traitsIcESaIcEEESaIS5_EE9push_backEOS5_:
.LFB6068:
	pushq	%rbp
	.seh_pushreg	%rbp
	movq	%rsp, %rbp
	.seh_setframe	%rbp, 0
	subq	$32, %rsp
	.seh_stackalloc	32
	.seh_endprologue
	movq	%rcx, 16(%rbp)
	movq	%rdx, 24(%rbp)
	movq	24(%rbp), %rax
	movq	%rax, %rcx
	call	_ZSt4moveIRNSt7__cxx1112basic_stringIcSt11char_traitsIcESaIcEEEEONSt16remove_referenceIT_E4typeEOS8_
	movq	%rax, %rdx
	movq	16(%rbp), %rax
	movq	%rax, %rcx
	call	_ZNSt6vectorINSt7__cxx1112basic_stringIcSt11char_traitsIcESaIcEEESaIS5_EE12emplace_backIJS5_EEERS5_DpOT_
	nop
	addq	$32, %rsp
	popq	%rbp
	ret
	.seh_endproc
	.section	.text$_ZNKSt6vectorINSt7__cxx1112basic_stringIcSt11char_traitsIcESaIcEEESaIS5_EE4sizeEv,"x"
	.linkonce discard
	.align 2
	.globl	_ZNKSt6vectorINSt7__cxx1112basic_stringIcSt11char_traitsIcESaIcEEESaIS5_EE4sizeEv
	.def	_ZNKSt6vectorINSt7__cxx1112basic_stringIcSt11char_traitsIcESaIcEEESaIS5_EE4sizeEv;	.scl	2;	.type	32;	.endef
	.seh_proc	_ZNKSt6vectorINSt7__cxx1112basic_stringIcSt11char_traitsIcESaIcEEESaIS5_EE4sizeEv
_ZNKSt6vectorINSt7__cxx1112basic_stringIcSt11char_traitsIcESaIcEEESaIS5_EE4sizeEv:
.LFB6069:
	pushq	%rbp
	.seh_pushreg	%rbp
	movq	%rsp, %rbp
	.seh_setframe	%rbp, 0
	.seh_endprologue
	movq	%rcx, 16(%rbp)
	movq	16(%rbp), %rax
	movq	8(%rax), %rdx
	movq	16(%rbp), %rax
	movq	(%rax), %rax
	subq	%rax, %rdx
	movq	%rdx, %rax
	sarq	$5, %rax
	popq	%rbp
	ret
	.seh_endproc
	.section	.text$_ZNSt6vectorINSt7__cxx1112basic_stringIcSt11char_traitsIcESaIcEEESaIS5_EEixEy,"x"
	.linkonce discard
	.align 2
	.globl	_ZNSt6vectorINSt7__cxx1112basic_stringIcSt11char_traitsIcESaIcEEESaIS5_EEixEy
	.def	_ZNSt6vectorINSt7__cxx1112basic_stringIcSt11char_traitsIcESaIcEEESaIS5_EEixEy;	.scl	2;	.type	32;	.endef
	.seh_proc	_ZNSt6vectorINSt7__cxx1112basic_stringIcSt11char_traitsIcESaIcEEESaIS5_EEixEy
_ZNSt6vectorINSt7__cxx1112basic_stringIcSt11char_traitsIcESaIcEEESaIS5_EEixEy:
.LFB6070:
	pushq	%rbp
	.seh_pushreg	%rbp
	movq	%rsp, %rbp
	.seh_setframe	%rbp, 0
	.seh_endprologue
	movq	%rcx, 16(%rbp)
	movq	%rdx, 24(%rbp)
	movq	16(%rbp), %rax
	movq	(%rax), %rax
	movq	24(%rbp), %rdx
	salq	$5, %rdx
	addq	%rdx, %rax
	popq	%rbp
	ret
	.seh_endproc
	.section	.text$_ZSt4moveIRSt10unique_ptrI7ASTNodeSt14default_deleteIS1_EEEONSt16remove_referenceIT_E4typeEOS7_,"x"
	.linkonce discard
	.globl	_ZSt4moveIRSt10unique_ptrI7ASTNodeSt14default_deleteIS1_EEEONSt16remove_referenceIT_E4typeEOS7_
	.def	_ZSt4moveIRSt10unique_ptrI7ASTNodeSt14default_deleteIS1_EEEONSt16remove_referenceIT_E4typeEOS7_;	.scl	2;	.type	32;	.endef
	.seh_proc	_ZSt4moveIRSt10unique_ptrI7ASTNodeSt14default_deleteIS1_EEEONSt16remove_referenceIT_E4typeEOS7_
_ZSt4moveIRSt10unique_ptrI7ASTNodeSt14default_deleteIS1_EEEONSt16remove_referenceIT_E4typeEOS7_:
.LFB6071:
	pushq	%rbp
	.seh_pushreg	%rbp
	movq	%rsp, %rbp
	.seh_setframe	%rbp, 0
	.seh_endprologue
	movq	%rcx, 16(%rbp)
	movq	16(%rbp), %rax
	popq	%rbp
	ret
	.seh_endproc
	.section	.text$_ZNSt11_Tuple_implILy0EJP7ASTNodeSt14default_deleteIS0_EEEC2EOS4_,"x"
	.linkonce discard
	.align 2
	.globl	_ZNSt11_Tuple_implILy0EJP7ASTNodeSt14default_deleteIS0_EEEC2EOS4_
	.def	_ZNSt11_Tuple_implILy0EJP7ASTNodeSt14default_deleteIS0_EEEC2EOS4_;	.scl	2;	.type	32;	.endef
	.seh_proc	_ZNSt11_Tuple_implILy0EJP7ASTNodeSt14default_deleteIS0_EEEC2EOS4_
_ZNSt11_Tuple_implILy0EJP7ASTNodeSt14default_deleteIS0_EEEC2EOS4_:
.LFB6075:
	pushq	%rbp
	.seh_pushreg	%rbp
	movq	%rsp, %rbp
	.seh_setframe	%rbp, 0
	subq	$32, %rsp
	.seh_stackalloc	32
	.seh_endprologue
	movq	%rcx, 16(%rbp)
	movq	%rdx, 24(%rbp)
	movq	24(%rbp), %rdx
	movq	16(%rbp), %rax
	movq	%rax, %rcx
	call	_ZNSt11_Tuple_implILy1EJSt14default_deleteI7ASTNodeEEEC2EOS3_
	movq	16(%rbp), %rax
	movq	24(%rbp), %rdx
	movq	(%rdx), %rdx
	movq	%rdx, (%rax)
	nop
	addq	$32, %rsp
	popq	%rbp
	ret
	.seh_endproc
	.section	.text$_ZNSt5tupleIJP7ASTNodeSt14default_deleteIS0_EEEC1EOS4_,"x"
	.linkonce discard
	.align 2
	.globl	_ZNSt5tupleIJP7ASTNodeSt14default_deleteIS0_EEEC1EOS4_
	.def	_ZNSt5tupleIJP7ASTNodeSt14default_deleteIS0_EEEC1EOS4_;	.scl	2;	.type	32;	.endef
	.seh_proc	_ZNSt5tupleIJP7ASTNodeSt14default_deleteIS0_EEEC1EOS4_
_ZNSt5tupleIJP7ASTNodeSt14default_deleteIS0_EEEC1EOS4_:
.LFB6078:
	pushq	%rbp
	.seh_pushreg	%rbp
	movq	%rsp, %rbp
	.seh_setframe	%rbp, 0
	subq	$32, %rsp
	.seh_stackalloc	32
	.seh_endprologue
	movq	%rcx, 16(%rbp)
	movq	%rdx, 24(%rbp)
	movq	16(%rbp), %rax
	movq	24(%rbp), %rdx
	movq	%rax, %rcx
	call	_ZNSt11_Tuple_implILy0EJP7ASTNodeSt14default_deleteIS0_EEEC2EOS4_
	nop
	addq	$32, %rsp
	popq	%rbp
	ret
	.seh_endproc
	.section	.text$_ZNSt15__uniq_ptr_implI7ASTNodeSt14default_deleteIS0_EEC2EOS3_,"x"
	.linkonce discard
	.align 2
	.globl	_ZNSt15__uniq_ptr_implI7ASTNodeSt14default_deleteIS0_EEC2EOS3_
	.def	_ZNSt15__uniq_ptr_implI7ASTNodeSt14default_deleteIS0_EEC2EOS3_;	.scl	2;	.type	32;	.endef
	.seh_proc	_ZNSt15__uniq_ptr_implI7ASTNodeSt14default_deleteIS0_EEC2EOS3_
_ZNSt15__uniq_ptr_implI7ASTNodeSt14default_deleteIS0_EEC2EOS3_:
.LFB6079:
	pushq	%rbp
	.seh_pushreg	%rbp
	pushq	%rbx
	.seh_pushreg	%rbx
	subq	$40, %rsp
	.seh_stackalloc	40
	leaq	32(%rsp), %rbp
	.seh_setframe	%rbp, 32
	.seh_endprologue
	movq	%rcx, 32(%rbp)
	movq	%rdx, 40(%rbp)
	movq	32(%rbp), %rbx
	movq	40(%rbp), %rax
	movq	%rax, %rcx
	call	_ZSt4moveIRSt5tupleIJP7ASTNodeSt14default_deleteIS1_EEEEONSt16remove_referenceIT_E4typeEOS8_
	movq	%rax, %rdx
	movq	%rbx, %rcx
	call	_ZNSt5tupleIJP7ASTNodeSt14default_deleteIS0_EEEC1EOS4_
	movq	40(%rbp), %rax
	movq	%rax, %rcx
	call	_ZNSt15__uniq_ptr_implI7ASTNodeSt14default_deleteIS0_EE6_M_ptrEv
	movq	$0, (%rax)
	nop
	addq	$40, %rsp
	popq	%rbx
	popq	%rbp
	ret
	.seh_endproc
	.section	.text$_ZNSt10unique_ptrI7ASTNodeSt14default_deleteIS0_EED1Ev,"x"
	.linkonce discard
	.align 2
	.globl	_ZNSt10unique_ptrI7ASTNodeSt14default_deleteIS0_EED1Ev
	.def	_ZNSt10unique_ptrI7ASTNodeSt14default_deleteIS0_EED1Ev;	.scl	2;	.type	32;	.endef
	.seh_proc	_ZNSt10unique_ptrI7ASTNodeSt14default_deleteIS0_EED1Ev
_ZNSt10unique_ptrI7ASTNodeSt14default_deleteIS0_EED1Ev:
.LFB6083:
	pushq	%rbp
	.seh_pushreg	%rbp
	pushq	%rbx
	.seh_pushreg	%rbx
	subq	$56, %rsp
	.seh_stackalloc	56
	leaq	48(%rsp), %rbp
	.seh_setframe	%rbp, 48
	.seh_endprologue
	movq	%rcx, 32(%rbp)
	movq	32(%rbp), %rax
	movq	%rax, %rcx
	call	_ZNSt15__uniq_ptr_implI7ASTNodeSt14default_deleteIS0_EE6_M_ptrEv
	movq	%rax, -8(%rbp)
	movq	-8(%rbp), %rax
	movq	(%rax), %rax
	testq	%rax, %rax
	je	.L619
	movq	32(%rbp), %rax
	movq	%rax, %rcx
	call	_ZNSt10unique_ptrI7ASTNodeSt14default_deleteIS0_EE11get_deleterEv
	movq	%rax, %rbx
	movq	-8(%rbp), %rax
	movq	%rax, %rcx
	call	_ZSt4moveIRP7ASTNodeEONSt16remove_referenceIT_E4typeEOS4_
	movq	(%rax), %rax
	movq	%rax, %rdx
	movq	%rbx, %rcx
	call	_ZNKSt14default_deleteI7ASTNodeEclEPS0_
.L619:
	movq	-8(%rbp), %rax
	movq	$0, (%rax)
	nop
	addq	$56, %rsp
	popq	%rbx
	popq	%rbp
	ret
	.seh_endproc
	.section	.text$_ZNSt12_Vector_baseISt10unique_ptrI7ASTNodeSt14default_deleteIS1_EESaIS4_EE12_Vector_implC1Ev,"x"
	.linkonce discard
	.align 2
	.globl	_ZNSt12_Vector_baseISt10unique_ptrI7ASTNodeSt14default_deleteIS1_EESaIS4_EE12_Vector_implC1Ev
	.def	_ZNSt12_Vector_baseISt10unique_ptrI7ASTNodeSt14default_deleteIS1_EESaIS4_EE12_Vector_implC1Ev;	.scl	2;	.type	32;	.endef
	.seh_proc	_ZNSt12_Vector_baseISt10unique_ptrI7ASTNodeSt14default_deleteIS1_EESaIS4_EE12_Vector_implC1Ev
_ZNSt12_Vector_baseISt10unique_ptrI7ASTNodeSt14default_deleteIS1_EESaIS4_EE12_Vector_implC1Ev:
.LFB6087:
	pushq	%rbp
	.seh_pushreg	%rbp
	movq	%rsp, %rbp
	.seh_setframe	%rbp, 0
	subq	$48, %rsp
	.seh_stackalloc	48
	.seh_endprologue
	movq	%rcx, 16(%rbp)
	movq	16(%rbp), %rax
	movq	%rax, -8(%rbp)
	movq	-8(%rbp), %rax
	movq	%rax, -16(%rbp)
	nop
	nop
	movq	16(%rbp), %rax
	movq	%rax, %rcx
	call	_ZNSt12_Vector_baseISt10unique_ptrI7ASTNodeSt14default_deleteIS1_EESaIS4_EE17_Vector_impl_dataC2Ev
	nop
	addq	$48, %rsp
	popq	%rbp
	ret
	.seh_endproc
	.section	.text$_ZNKSt10unique_ptrI7ASTNodeSt14default_deleteIS0_EE3getEv,"x"
	.linkonce discard
	.align 2
	.globl	_ZNKSt10unique_ptrI7ASTNodeSt14default_deleteIS0_EE3getEv
	.def	_ZNKSt10unique_ptrI7ASTNodeSt14default_deleteIS0_EE3getEv;	.scl	2;	.type	32;	.endef
	.seh_proc	_ZNKSt10unique_ptrI7ASTNodeSt14default_deleteIS0_EE3getEv
_ZNKSt10unique_ptrI7ASTNodeSt14default_deleteIS0_EE3getEv:
.LFB6089:
	pushq	%rbp
	.seh_pushreg	%rbp
	movq	%rsp, %rbp
	.seh_setframe	%rbp, 0
	subq	$32, %rsp
	.seh_stackalloc	32
	.seh_endprologue
	movq	%rcx, 16(%rbp)
	movq	16(%rbp), %rax
	movq	%rax, %rcx
	call	_ZNKSt15__uniq_ptr_implI7ASTNodeSt14default_deleteIS0_EE6_M_ptrEv
	addq	$32, %rsp
	popq	%rbp
	ret
	.seh_endproc
	.section	.text$_ZNSt10unique_ptrINSt10filesystem7__cxx114path5_List5_ImplENS3_13_Impl_deleterEED1Ev,"x"
	.linkonce discard
	.align 2
	.globl	_ZNSt10unique_ptrINSt10filesystem7__cxx114path5_List5_ImplENS3_13_Impl_deleterEED1Ev
	.def	_ZNSt10unique_ptrINSt10filesystem7__cxx114path5_List5_ImplENS3_13_Impl_deleterEED1Ev;	.scl	2;	.type	32;	.endef
	.seh_proc	_ZNSt10unique_ptrINSt10filesystem7__cxx114path5_List5_ImplENS3_13_Impl_deleterEED1Ev
_ZNSt10unique_ptrINSt10filesystem7__cxx114path5_List5_ImplENS3_13_Impl_deleterEED1Ev:
.LFB6146:
	pushq	%rbp
	.seh_pushreg	%rbp
	pushq	%rbx
	.seh_pushreg	%rbx
	subq	$56, %rsp
	.seh_stackalloc	56
	leaq	48(%rsp), %rbp
	.seh_setframe	%rbp, 48
	.seh_endprologue
	movq	%rcx, 32(%rbp)
	movq	32(%rbp), %rax
	movq	%rax, %rcx
	call	_ZNSt15__uniq_ptr_implINSt10filesystem7__cxx114path5_List5_ImplENS3_13_Impl_deleterEE6_M_ptrEv
	movq	%rax, -8(%rbp)
	movq	-8(%rbp), %rax
	movq	(%rax), %rax
	testq	%rax, %rax
	je	.L624
	movq	32(%rbp), %rax
	movq	%rax, %rcx
	call	_ZNSt10unique_ptrINSt10filesystem7__cxx114path5_List5_ImplENS3_13_Impl_deleterEE11get_deleterEv
	movq	%rax, %rbx
	movq	-8(%rbp), %rax
	movq	%rax, %rcx
	call	_ZSt4moveIRPNSt10filesystem7__cxx114path5_List5_ImplEEONSt16remove_referenceIT_E4typeEOS8_
	movq	(%rax), %rax
	movq	%rax, %rdx
	movq	%rbx, %rcx
	call	_ZNKSt10filesystem7__cxx114path5_List13_Impl_deleterclEPNS2_5_ImplE
.L624:
	movq	-8(%rbp), %rax
	movq	$0, (%rax)
	nop
	addq	$56, %rsp
	popq	%rbx
	popq	%rbp
	ret
	.seh_endproc
	.section	.text$_ZNSt18codecvt_utf8_utf16IwLm1114111ELSt12codecvt_mode0EEC2Ey,"x"
	.linkonce discard
	.align 2
	.globl	_ZNSt18codecvt_utf8_utf16IwLm1114111ELSt12codecvt_mode0EEC2Ey
