	.file	"parser.cpp"
	.text
	.section	.text$_ZNSt11char_traitsIcE2ltERKcS2_,"x"
	.linkonce discard
	.globl	_ZNSt11char_traitsIcE2ltERKcS2_
	.def	_ZNSt11char_traitsIcE2ltERKcS2_;	.scl	2;	.type	32;	.endef
	.seh_proc	_ZNSt11char_traitsIcE2ltERKcS2_
_ZNSt11char_traitsIcE2ltERKcS2_:
.LFB172:
	pushq	%rbp
	.seh_pushreg	%rbp
	movq	%rsp, %rbp
	.seh_setframe	%rbp, 0
	.seh_endprologue
	movq	%rcx, 16(%rbp)
	movq	%rdx, 24(%rbp)
	movq	16(%rbp), %rax
	movzbl	(%rax), %eax
	movl	%eax, %edx
	movq	24(%rbp), %rax
	movzbl	(%rax), %eax
	cmpb	%al, %dl
	setb	%al
	popq	%rbp
	ret
	.seh_endproc
	.section	.text$_ZNSt11char_traitsIcE7compareEPKcS2_y,"x"
	.linkonce discard
	.globl	_ZNSt11char_traitsIcE7compareEPKcS2_y
	.def	_ZNSt11char_traitsIcE7compareEPKcS2_y;	.scl	2;	.type	32;	.endef
	.seh_proc	_ZNSt11char_traitsIcE7compareEPKcS2_y
_ZNSt11char_traitsIcE7compareEPKcS2_y:
.LFB173:
	pushq	%rbp
	.seh_pushreg	%rbp
	movq	%rsp, %rbp
	.seh_setframe	%rbp, 0
	subq	$48, %rsp
	.seh_stackalloc	48
	.seh_endprologue
	movq	%rcx, 16(%rbp)
	movq	%rdx, 24(%rbp)
	movq	%r8, 32(%rbp)
	cmpq	$0, 32(%rbp)
	jne	.L4
	movl	$0, %eax
	jmp	.L5
.L4:
	movl	$0, %eax
	testb	%al, %al
	je	.L7
	movq	$0, -8(%rbp)
	jmp	.L8
.L11:
	movq	24(%rbp), %rdx
	movq	-8(%rbp), %rax
	addq	%rax, %rdx
	movq	16(%rbp), %rcx
	movq	-8(%rbp), %rax
	addq	%rcx, %rax
	movq	%rax, %rcx
	call	_ZNSt11char_traitsIcE2ltERKcS2_
	testb	%al, %al
	je	.L9
	movl	$-1, %eax
	jmp	.L5
.L9:
	movq	16(%rbp), %rdx
	movq	-8(%rbp), %rax
	addq	%rax, %rdx
	movq	24(%rbp), %rcx
	movq	-8(%rbp), %rax
	addq	%rcx, %rax
	movq	%rax, %rcx
	call	_ZNSt11char_traitsIcE2ltERKcS2_
	testb	%al, %al
	je	.L10
	movl	$1, %eax
	jmp	.L5
.L10:
	addq	$1, -8(%rbp)
.L8:
	movq	-8(%rbp), %rax
	cmpq	32(%rbp), %rax
	jb	.L11
	movl	$0, %eax
	jmp	.L5
.L7:
	movq	32(%rbp), %rcx
	movq	24(%rbp), %rdx
	movq	16(%rbp), %rax
	movq	%rcx, %r8
	movq	%rax, %rcx
	call	memcmp
	nop
.L5:
	addq	$48, %rsp
	popq	%rbp
	ret
	.seh_endproc
	.section	.text$_ZNSt11char_traitsIcE6lengthEPKc,"x"
	.linkonce discard
	.globl	_ZNSt11char_traitsIcE6lengthEPKc
	.def	_ZNSt11char_traitsIcE6lengthEPKc;	.scl	2;	.type	32;	.endef
	.seh_proc	_ZNSt11char_traitsIcE6lengthEPKc
_ZNSt11char_traitsIcE6lengthEPKc:
.LFB174:
	pushq	%rbp
	.seh_pushreg	%rbp
	movq	%rsp, %rbp
	.seh_setframe	%rbp, 0
	subq	$32, %rsp
	.seh_stackalloc	32
	.seh_endprologue
	movq	%rcx, 16(%rbp)
	movl	$0, %eax
	testb	%al, %al
	je	.L14
	movq	16(%rbp), %rax
	movq	%rax, %rcx
	call	_ZN9__gnu_cxx11char_traitsIcE6lengthEPKc
	jmp	.L15
.L14:
	movq	16(%rbp), %rax
	movq	%rax, %rcx
	call	strlen
	nop
.L15:
	addq	$32, %rsp
	popq	%rbp
	ret
	.seh_endproc
	.section	.text$_ZnwyPv,"x"
	.linkonce discard
	.globl	_ZnwyPv
	.def	_ZnwyPv;	.scl	2;	.type	32;	.endef
	.seh_proc	_ZnwyPv
_ZnwyPv:
.LFB235:
	pushq	%rbp
	.seh_pushreg	%rbp
	movq	%rsp, %rbp
	.seh_setframe	%rbp, 0
	.seh_endprologue
	movq	%rcx, 16(%rbp)
	movq	%rdx, 24(%rbp)
	movq	24(%rbp), %rax
	popq	%rbp
	ret
	.seh_endproc
	.section	.text$_ZdlPvS_,"x"
	.linkonce discard
	.globl	_ZdlPvS_
	.def	_ZdlPvS_;	.scl	2;	.type	32;	.endef
	.seh_proc	_ZdlPvS_
_ZdlPvS_:
.LFB237:
	pushq	%rbp
	.seh_pushreg	%rbp
	movq	%rsp, %rbp
	.seh_setframe	%rbp, 0
	.seh_endprologue
	movq	%rcx, 16(%rbp)
	movq	%rdx, 24(%rbp)
	nop
	popq	%rbp
	ret
	.seh_endproc
	.globl	_ZSt19piecewise_construct
	.section	.rdata$_ZSt19piecewise_construct,"dr"
	.linkonce same_size
_ZSt19piecewise_construct:
	.space 1
	.section	.text$_ZNSt10_Hash_impl4hashEPKvyy,"x"
	.linkonce discard
	.globl	_ZNSt10_Hash_impl4hashEPKvyy
	.def	_ZNSt10_Hash_impl4hashEPKvyy;	.scl	2;	.type	32;	.endef
	.seh_proc	_ZNSt10_Hash_impl4hashEPKvyy
_ZNSt10_Hash_impl4hashEPKvyy:
.LFB972:
	pushq	%rbp
	.seh_pushreg	%rbp
	movq	%rsp, %rbp
	.seh_setframe	%rbp, 0
	subq	$32, %rsp
	.seh_stackalloc	32
	.seh_endprologue
	movq	%rcx, 16(%rbp)
	movq	%rdx, 24(%rbp)
	movq	%r8, 32(%rbp)
	movq	32(%rbp), %rcx
	movq	24(%rbp), %rdx
	movq	16(%rbp), %rax
	movq	%rcx, %r8
	movq	%rax, %rcx
	call	_ZSt11_Hash_bytesPKvyy
	addq	$32, %rsp
	popq	%rbp
	ret
	.seh_endproc
	.section .rdata,"dr"
.LC0:
	.ascii "stoull\0"
	.section	.text$_ZNSt7__cxx116stoullERKNS_12basic_stringIcSt11char_traitsIcESaIcEEEPyi,"x"
	.linkonce discard
	.globl	_ZNSt7__cxx116stoullERKNS_12basic_stringIcSt11char_traitsIcESaIcEEEPyi
	.def	_ZNSt7__cxx116stoullERKNS_12basic_stringIcSt11char_traitsIcESaIcEEEPyi;	.scl	2;	.type	32;	.endef
	.seh_proc	_ZNSt7__cxx116stoullERKNS_12basic_stringIcSt11char_traitsIcESaIcEEEPyi
_ZNSt7__cxx116stoullERKNS_12basic_stringIcSt11char_traitsIcESaIcEEEPyi:
.LFB1321:
	pushq	%rbp
	.seh_pushreg	%rbp
	movq	%rsp, %rbp
	.seh_setframe	%rbp, 0
	subq	$48, %rsp
	.seh_stackalloc	48
	.seh_endprologue
	movq	%rcx, 16(%rbp)
	movq	%rdx, 24(%rbp)
	movl	%r8d, 32(%rbp)
	movq	16(%rbp), %rax
	movq	%rax, %rcx
	call	_ZNKSt7__cxx1112basic_stringIcSt11char_traitsIcESaIcEE5c_strEv
	movq	%rax, %rdx
	movq	24(%rbp), %rcx
	movl	32(%rbp), %eax
	movl	%eax, 32(%rsp)
	movq	%rcx, %r9
	movq	%rdx, %r8
	leaq	.LC0(%rip), %rax
	movq	%rax, %rdx
	movq	.refptr.strtoull(%rip), %rax
	movq	%rax, %rcx
	call	_ZN9__gnu_cxx6__stoaIyycJiEEET0_PFT_PKT1_PPS3_DpT2_EPKcS5_PyS9_
	addq	$48, %rsp
	popq	%rbp
	ret
	.seh_endproc
	.section	.text$_ZZNSt7__cxx119to_stringEiENKUlPcyE_clES0_y,"x"
	.linkonce discard
	.align 2
	.globl	_ZZNSt7__cxx119to_stringEiENKUlPcyE_clES0_y
	.def	_ZZNSt7__cxx119to_stringEiENKUlPcyE_clES0_y;	.scl	2;	.type	32;	.endef
	.seh_proc	_ZZNSt7__cxx119to_stringEiENKUlPcyE_clES0_y
_ZZNSt7__cxx119to_stringEiENKUlPcyE_clES0_y:
.LFB1328:
	pushq	%rbp
	.seh_pushreg	%rbp
	movq	%rsp, %rbp
	.seh_setframe	%rbp, 0
	subq	$32, %rsp
	.seh_stackalloc	32
	.seh_endprologue
	movq	%rcx, 16(%rbp)
	movq	%rdx, 24(%rbp)
	movq	%r8, 32(%rbp)
	movq	24(%rbp), %rax
	movb	$45, (%rax)
	movq	16(%rbp), %rax
	movl	8(%rax), %r8d
	movq	16(%rbp), %rax
	movl	4(%rax), %eax
	movq	16(%rbp), %rdx
	movzbl	(%rdx), %edx
	movzbl	%dl, %ecx
	movq	24(%rbp), %rdx
	addq	%rdx, %rcx
	movl	%eax, %edx
	call	_ZNSt8__detail18__to_chars_10_implIjEEvPcjT_
	movq	32(%rbp), %rax
	addq	$32, %rsp
	popq	%rbp
	ret
	.seh_endproc
	.section	.text$_ZNSt7__cxx119to_stringEi,"x"
	.linkonce discard
	.globl	_ZNSt7__cxx119to_stringEi
	.def	_ZNSt7__cxx119to_stringEi;	.scl	2;	.type	32;	.endef
	.seh_proc	_ZNSt7__cxx119to_stringEi
_ZNSt7__cxx119to_stringEi:
.LFB1325:
	pushq	%rbp
	.seh_pushreg	%rbp
	movq	%rsp, %rbp
	.seh_setframe	%rbp, 0
	subq	$80, %rsp
	.seh_stackalloc	80
	.seh_endprologue
	movq	%rcx, 16(%rbp)
	movl	%edx, 24(%rbp)
	movl	24(%rbp), %eax
	shrl	$31, %eax
	movb	%al, -1(%rbp)
	cmpb	$0, -1(%rbp)
	je	.L26
	movl	24(%rbp), %eax
	negl	%eax
	jmp	.L27
.L26:
	movl	24(%rbp), %eax
.L27:
	movl	%eax, -8(%rbp)
	movl	-8(%rbp), %eax
	movl	$10, %edx
	movl	%eax, %ecx
	call	_ZNSt8__detail14__to_chars_lenIjEEjT_i
	movl	%eax, -12(%rbp)
	movq	16(%rbp), %rax
	movq	%rax, %rcx
	call	_ZNSt7__cxx1112basic_stringIcSt11char_traitsIcESaIcEEC1Ev
	movzbl	-1(%rbp), %eax
	movb	%al, -24(%rbp)
	movl	-12(%rbp), %eax
	movl	%eax, -20(%rbp)
	movl	-8(%rbp), %eax
	movl	%eax, -16(%rbp)
	movzbl	-1(%rbp), %edx
	movl	-12(%rbp), %eax
	addl	%edx, %eax
	movl	%eax, %ecx
	movq	-24(%rbp), %rax
	movq	%rax, -48(%rbp)
	movl	-16(%rbp), %eax
	movl	%eax, -40(%rbp)
	leaq	-48(%rbp), %rdx
	movq	16(%rbp), %rax
	movq	%rdx, %r8
	movq	%rcx, %rdx
	movq	%rax, %rcx
	call	_ZNSt7__cxx1112basic_stringIcSt11char_traitsIcESaIcEE22__resize_and_overwriteIZNS_9to_stringEiEUlPcyE_EEvyT_
	movq	16(%rbp), %rax
	addq	$80, %rsp
	popq	%rbp
	ret
	.seh_handler	__gxx_personality_seh0, @unwind, @except
	.seh_handlerdata
.LLSDA1325:
	.byte	0xff
	.byte	0xff
	.byte	0x1
	.uleb128 .LLSDACSE1325-.LLSDACSB1325
.LLSDACSB1325:
.LLSDACSE1325:
	.section	.text$_ZNSt7__cxx119to_stringEi,"x"
	.linkonce discard
	.seh_endproc
	.section	.text$_ZNSt8__detail14__to_chars_lenIjEEjT_i,"x"
	.linkonce discard
	.globl	_ZNSt8__detail14__to_chars_lenIjEEjT_i
	.def	_ZNSt8__detail14__to_chars_lenIjEEjT_i;	.scl	2;	.type	32;	.endef
	.seh_proc	_ZNSt8__detail14__to_chars_lenIjEEjT_i
_ZNSt8__detail14__to_chars_lenIjEEjT_i:
.LFB1330:
	pushq	%rbp
	.seh_pushreg	%rbp
	movq	%rsp, %rbp
	.seh_setframe	%rbp, 0
	subq	$16, %rsp
	.seh_stackalloc	16
	.seh_endprologue
	movl	%ecx, 16(%rbp)
	movl	%edx, 24(%rbp)
	movl	$1, -4(%rbp)
	movl	24(%rbp), %eax
	imull	%eax, %eax
	movl	%eax, -8(%rbp)
	movl	24(%rbp), %eax
	movl	-8(%rbp), %edx
	imull	%edx, %eax
	movl	%eax, -12(%rbp)
	movl	24(%rbp), %eax
	movl	-12(%rbp), %edx
	imull	%edx, %eax
	movl	%eax, -16(%rbp)
.L35:
	movl	24(%rbp), %eax
	cmpl	%eax, 16(%rbp)
	jnb	.L30
	movl	-4(%rbp), %eax
	jmp	.L31
.L30:
	movl	16(%rbp), %eax
	cmpl	-8(%rbp), %eax
	jnb	.L32
	movl	-4(%rbp), %eax
	addl	$1, %eax
	jmp	.L31
.L32:
	movl	16(%rbp), %eax
	cmpl	-12(%rbp), %eax
	jnb	.L33
	movl	-4(%rbp), %eax
	addl	$2, %eax
	jmp	.L31
.L33:
	movl	16(%rbp), %eax
	cmpl	-16(%rbp), %eax
	jnb	.L34
	movl	-4(%rbp), %eax
	addl	$3, %eax
	jmp	.L31
.L34:
	movl	16(%rbp), %eax
	movl	$0, %edx
	divl	-16(%rbp)
	movl	%eax, 16(%rbp)
	addl	$4, -4(%rbp)
	jmp	.L35
.L31:
	addq	$16, %rsp
	popq	%rbp
	ret
	.seh_endproc
	.section .rdata,"dr"
.LC1:
	.ascii "\0"
	.section	.text$_ZN5TokenC1Ev,"x"
	.linkonce discard
	.align 2
	.globl	_ZN5TokenC1Ev
	.def	_ZN5TokenC1Ev;	.scl	2;	.type	32;	.endef
	.seh_proc	_ZN5TokenC1Ev
_ZN5TokenC1Ev:
.LFB1637:
	pushq	%rbp
	.seh_pushreg	%rbp
	pushq	%rbx
	.seh_pushreg	%rbx
	subq	$56, %rsp
	.seh_stackalloc	56
	leaq	48(%rsp), %rbp
	.seh_setframe	%rbp, 48
	.seh_endprologue
	movq	%rcx, 32(%rbp)
	movq	32(%rbp), %rax
	movl	$18, (%rax)
	movq	32(%rbp), %rax
	addq	$8, %rax
	leaq	-9(%rbp), %rdx
	movq	%rdx, -8(%rbp)
	nop
	nop
	leaq	-9(%rbp), %rdx
	movq	%rdx, %r8
	leaq	.LC1(%rip), %rdx
	movq	%rax, %rcx
.LEHB0:
	call	_ZNSt7__cxx1112basic_stringIcSt11char_traitsIcESaIcEEC1IS3_EEPKcRKS3_
.LEHE0:
	leaq	-9(%rbp), %rax
	movq	%rax, %rcx
	call	_ZNSt15__new_allocatorIcED2Ev
	nop
	jmp	.L39
.L38:
	movq	%rax, %rbx
	leaq	-9(%rbp), %rax
	movq	%rax, %rcx
	call	_ZNSt15__new_allocatorIcED2Ev
	nop
	movq	%rbx, %rax
	movq	%rax, %rcx
.LEHB1:
	call	_Unwind_Resume
	nop
.LEHE1:
.L39:
	addq	$56, %rsp
	popq	%rbx
	popq	%rbp
	ret
	.seh_handler	__gxx_personality_seh0, @unwind, @except
	.seh_handlerdata
.LLSDA1637:
	.byte	0xff
	.byte	0xff
	.byte	0x1
	.uleb128 .LLSDACSE1637-.LLSDACSB1637
.LLSDACSB1637:
	.uleb128 .LEHB0-.LFB1637
	.uleb128 .LEHE0-.LEHB0
	.uleb128 .L38-.LFB1637
	.uleb128 0
	.uleb128 .LEHB1-.LFB1637
	.uleb128 .LEHE1-.LEHB1
	.uleb128 0
	.uleb128 0
.LLSDACSE1637:
	.section	.text$_ZN5TokenC1Ev,"x"
	.linkonce discard
	.seh_endproc
	.section	.text$_ZN5TokenC1E9TokenTypeRKNSt7__cxx1112basic_stringIcSt11char_traitsIcESaIcEEE,"x"
	.linkonce discard
	.align 2
	.globl	_ZN5TokenC1E9TokenTypeRKNSt7__cxx1112basic_stringIcSt11char_traitsIcESaIcEEE
	.def	_ZN5TokenC1E9TokenTypeRKNSt7__cxx1112basic_stringIcSt11char_traitsIcESaIcEEE;	.scl	2;	.type	32;	.endef
	.seh_proc	_ZN5TokenC1E9TokenTypeRKNSt7__cxx1112basic_stringIcSt11char_traitsIcESaIcEEE
_ZN5TokenC1E9TokenTypeRKNSt7__cxx1112basic_stringIcSt11char_traitsIcESaIcEEE:
.LFB1640:
	pushq	%rbp
	.seh_pushreg	%rbp
	movq	%rsp, %rbp
	.seh_setframe	%rbp, 0
	subq	$32, %rsp
	.seh_stackalloc	32
	.seh_endprologue
	movq	%rcx, 16(%rbp)
	movl	%edx, 24(%rbp)
	movq	%r8, 32(%rbp)
	movq	16(%rbp), %rax
	movl	24(%rbp), %edx
	movl	%edx, (%rax)
	movq	16(%rbp), %rax
	leaq	8(%rax), %rcx
	movq	32(%rbp), %rax
	movq	%rax, %rdx
	call	_ZNSt7__cxx1112basic_stringIcSt11char_traitsIcESaIcEEC1ERKS4_
	nop
	addq	$32, %rsp
	popq	%rbp
	ret
	.seh_endproc
	.section	.text$_ZNSt8__detail15_Hash_node_baseC2Ev,"x"
	.linkonce discard
	.align 2
	.globl	_ZNSt8__detail15_Hash_node_baseC2Ev
	.def	_ZNSt8__detail15_Hash_node_baseC2Ev;	.scl	2;	.type	32;	.endef
	.seh_proc	_ZNSt8__detail15_Hash_node_baseC2Ev
_ZNSt8__detail15_Hash_node_baseC2Ev:
.LFB1671:
	pushq	%rbp
	.seh_pushreg	%rbp
	movq	%rsp, %rbp
	.seh_setframe	%rbp, 0
	.seh_endprologue
	movq	%rcx, 16(%rbp)
	movq	16(%rbp), %rax
	movq	$0, (%rax)
	nop
	popq	%rbp
	ret
	.seh_endproc
	.section	.text$_ZNSt8__detail15_Hash_node_baseC1Ev,"x"
	.linkonce discard
	.align 2
	.globl	_ZNSt8__detail15_Hash_node_baseC1Ev
	.def	_ZNSt8__detail15_Hash_node_baseC1Ev;	.scl	2;	.type	32;	.endef
	.seh_proc	_ZNSt8__detail15_Hash_node_baseC1Ev
_ZNSt8__detail15_Hash_node_baseC1Ev:
.LFB1672:
	pushq	%rbp
	.seh_pushreg	%rbp
	movq	%rsp, %rbp
	.seh_setframe	%rbp, 0
	.seh_endprologue
	movq	%rcx, 16(%rbp)
	movq	16(%rbp), %rax
	movq	$0, (%rax)
	nop
	popq	%rbp
	ret
	.seh_endproc
	.section	.text$_ZNKSt8__detail18_Mod_range_hashingclEyy,"x"
	.linkonce discard
	.align 2
	.globl	_ZNKSt8__detail18_Mod_range_hashingclEyy
	.def	_ZNKSt8__detail18_Mod_range_hashingclEyy;	.scl	2;	.type	32;	.endef
	.seh_proc	_ZNKSt8__detail18_Mod_range_hashingclEyy
_ZNKSt8__detail18_Mod_range_hashingclEyy:
.LFB1697:
	pushq	%rbp
	.seh_pushreg	%rbp
	movq	%rsp, %rbp
	.seh_setframe	%rbp, 0
	.seh_endprologue
	movq	%rcx, 16(%rbp)
	movq	%rdx, 24(%rbp)
	movq	%r8, 32(%rbp)
	movq	24(%rbp), %rax
	movl	$0, %edx
	divq	32(%rbp)
	movq	%rdx, %rax
	popq	%rbp
	ret
	.seh_endproc
	.section	.text$_ZNSt8__detail20_Prime_rehash_policyC1Ef,"x"
	.linkonce discard
	.align 2
	.globl	_ZNSt8__detail20_Prime_rehash_policyC1Ef
	.def	_ZNSt8__detail20_Prime_rehash_policyC1Ef;	.scl	2;	.type	32;	.endef
	.seh_proc	_ZNSt8__detail20_Prime_rehash_policyC1Ef
_ZNSt8__detail20_Prime_rehash_policyC1Ef:
.LFB1700:
	pushq	%rbp
	.seh_pushreg	%rbp
	movq	%rsp, %rbp
	.seh_setframe	%rbp, 0
	.seh_endprologue
	movq	%rcx, 16(%rbp)
	movss	%xmm1, 24(%rbp)
	movq	16(%rbp), %rax
	movss	24(%rbp), %xmm0
	movss	%xmm0, (%rax)
	movq	16(%rbp), %rax
	movq	$0, 8(%rax)
	nop
	popq	%rbp
	ret
	.seh_endproc
	.section	.text$_ZNKSt8__detail20_Prime_rehash_policy8_M_stateEv,"x"
	.linkonce discard
	.align 2
	.globl	_ZNKSt8__detail20_Prime_rehash_policy8_M_stateEv
	.def	_ZNKSt8__detail20_Prime_rehash_policy8_M_stateEv;	.scl	2;	.type	32;	.endef
	.seh_proc	_ZNKSt8__detail20_Prime_rehash_policy8_M_stateEv
_ZNKSt8__detail20_Prime_rehash_policy8_M_stateEv:
.LFB1703:
	pushq	%rbp
	.seh_pushreg	%rbp
	movq	%rsp, %rbp
	.seh_setframe	%rbp, 0
	.seh_endprologue
	movq	%rcx, 16(%rbp)
	movq	16(%rbp), %rax
	movq	8(%rax), %rax
	popq	%rbp
	ret
	.seh_endproc
	.section	.text$_ZNSt8__detail20_Prime_rehash_policy8_M_resetEy,"x"
	.linkonce discard
	.align 2
	.globl	_ZNSt8__detail20_Prime_rehash_policy8_M_resetEy
	.def	_ZNSt8__detail20_Prime_rehash_policy8_M_resetEy;	.scl	2;	.type	32;	.endef
	.seh_proc	_ZNSt8__detail20_Prime_rehash_policy8_M_resetEy
_ZNSt8__detail20_Prime_rehash_policy8_M_resetEy:
.LFB1705:
	pushq	%rbp
	.seh_pushreg	%rbp
	movq	%rsp, %rbp
	.seh_setframe	%rbp, 0
	.seh_endprologue
	movq	%rcx, 16(%rbp)
	movq	%rdx, 24(%rbp)
	movq	16(%rbp), %rax
	movq	24(%rbp), %rdx
	movq	%rdx, 8(%rax)
	nop
	popq	%rbp
	ret
	.seh_endproc
	.section	.text$_ZSt3minIyERKT_S2_S2_,"x"
	.linkonce discard
	.globl	_ZSt3minIyERKT_S2_S2_
	.def	_ZSt3minIyERKT_S2_S2_;	.scl	2;	.type	32;	.endef
	.seh_proc	_ZSt3minIyERKT_S2_S2_
_ZSt3minIyERKT_S2_S2_:
.LFB1713:
	pushq	%rbp
	.seh_pushreg	%rbp
	movq	%rsp, %rbp
	.seh_setframe	%rbp, 0
	.seh_endprologue
	movq	%rcx, 16(%rbp)
	movq	%rdx, 24(%rbp)
	movq	24(%rbp), %rax
	movq	(%rax), %rdx
	movq	16(%rbp), %rax
	movq	(%rax), %rax
	cmpq	%rax, %rdx
	jnb	.L50
	movq	24(%rbp), %rax
	jmp	.L51
.L50:
	movq	16(%rbp), %rax
.L51:
	popq	%rbp
	ret
	.seh_endproc
	.section	.text$_ZNSt14_Bit_referenceC1EPmm,"x"
	.linkonce discard
	.align 2
	.globl	_ZNSt14_Bit_referenceC1EPmm
	.def	_ZNSt14_Bit_referenceC1EPmm;	.scl	2;	.type	32;	.endef
	.seh_proc	_ZNSt14_Bit_referenceC1EPmm
_ZNSt14_Bit_referenceC1EPmm:
.LFB2295:
	pushq	%rbp
	.seh_pushreg	%rbp
	movq	%rsp, %rbp
	.seh_setframe	%rbp, 0
	.seh_endprologue
	movq	%rcx, 16(%rbp)
	movq	%rdx, 24(%rbp)
	movl	%r8d, 32(%rbp)
	movq	16(%rbp), %rax
	movq	24(%rbp), %rdx
	movq	%rdx, (%rax)
	movq	16(%rbp), %rax
	movl	32(%rbp), %edx
	movl	%edx, 8(%rax)
	nop
	popq	%rbp
	ret
	.seh_endproc
	.section	.text$_ZNKSt14_Bit_referencecvbEv,"x"
	.linkonce discard
	.align 2
	.globl	_ZNKSt14_Bit_referencecvbEv
	.def	_ZNKSt14_Bit_referencecvbEv;	.scl	2;	.type	32;	.endef
	.seh_proc	_ZNKSt14_Bit_referencecvbEv
_ZNKSt14_Bit_referencecvbEv:
.LFB2299:
	pushq	%rbp
	.seh_pushreg	%rbp
	movq	%rsp, %rbp
	.seh_setframe	%rbp, 0
	.seh_endprologue
	movq	%rcx, 16(%rbp)
	movq	16(%rbp), %rax
	movq	(%rax), %rax
	movl	(%rax), %edx
	movq	16(%rbp), %rax
	movl	8(%rax), %eax
	andl	%edx, %eax
	testl	%eax, %eax
	setne	%al
	popq	%rbp
	ret
	.seh_endproc
	.section	.text$_ZNSt14_Bit_referenceaSEb,"x"
	.linkonce discard
	.align 2
	.globl	_ZNSt14_Bit_referenceaSEb
	.def	_ZNSt14_Bit_referenceaSEb;	.scl	2;	.type	32;	.endef
	.seh_proc	_ZNSt14_Bit_referenceaSEb
_ZNSt14_Bit_referenceaSEb:
.LFB2300:
	pushq	%rbp
	.seh_pushreg	%rbp
	movq	%rsp, %rbp
	.seh_setframe	%rbp, 0
	.seh_endprologue
	movq	%rcx, 16(%rbp)
	movl	%edx, %eax
	movb	%al, 24(%rbp)
	cmpb	$0, 24(%rbp)
	je	.L56
	movq	16(%rbp), %rax
	movq	(%rax), %rax
	movl	(%rax), %ecx
	movq	16(%rbp), %rax
	movl	8(%rax), %edx
	movq	16(%rbp), %rax
	movq	(%rax), %rax
	orl	%ecx, %edx
	movl	%edx, (%rax)
	jmp	.L57
.L56:
	movq	16(%rbp), %rax
	movq	(%rax), %rax
	movl	(%rax), %edx
	movq	16(%rbp), %rax
	movl	8(%rax), %eax
	notl	%eax
	movl	%eax, %ecx
	movq	16(%rbp), %rax
	movq	(%rax), %rax
	andl	%ecx, %edx
	movl	%edx, (%rax)
.L57:
	movq	16(%rbp), %rax
	popq	%rbp
	ret
	.seh_endproc
	.section	.text$_ZNSt18_Bit_iterator_baseC2EPmj,"x"
	.linkonce discard
	.align 2
	.globl	_ZNSt18_Bit_iterator_baseC2EPmj
	.def	_ZNSt18_Bit_iterator_baseC2EPmj;	.scl	2;	.type	32;	.endef
	.seh_proc	_ZNSt18_Bit_iterator_baseC2EPmj
_ZNSt18_Bit_iterator_baseC2EPmj:
.LFB2310:
	pushq	%rbp
	.seh_pushreg	%rbp
	movq	%rsp, %rbp
	.seh_setframe	%rbp, 0
	.seh_endprologue
	movq	%rcx, 16(%rbp)
	movq	%rdx, 24(%rbp)
	movl	%r8d, 32(%rbp)
	movq	16(%rbp), %rax
	movq	24(%rbp), %rdx
	movq	%rdx, (%rax)
	movq	16(%rbp), %rax
	movl	32(%rbp), %edx
	movl	%edx, 8(%rax)
	nop
	popq	%rbp
	ret
	.seh_endproc
	.section	.text$_ZNSt18_Bit_iterator_base10_M_bump_upEv,"x"
	.linkonce discard
	.align 2
	.globl	_ZNSt18_Bit_iterator_base10_M_bump_upEv
	.def	_ZNSt18_Bit_iterator_base10_M_bump_upEv;	.scl	2;	.type	32;	.endef
	.seh_proc	_ZNSt18_Bit_iterator_base10_M_bump_upEv
_ZNSt18_Bit_iterator_base10_M_bump_upEv:
.LFB2312:
	pushq	%rbp
	.seh_pushreg	%rbp
	movq	%rsp, %rbp
	.seh_setframe	%rbp, 0
	subq	$16, %rsp
	.seh_stackalloc	16
	.seh_endprologue
	movq	%rcx, 16(%rbp)
	movq	16(%rbp), %rax
	movq	%rax, -8(%rbp)
	movq	-8(%rbp), %rax
	movl	8(%rax), %eax
	movl	%eax, -12(%rbp)
	cmpl	$31, -12(%rbp)
	nop
	movq	16(%rbp), %rax
	movl	8(%rax), %eax
	leal	1(%rax), %ecx
	movq	16(%rbp), %rdx
	movl	%ecx, 8(%rdx)
	cmpl	$31, %eax
	sete	%al
	testb	%al, %al
	je	.L64
	movq	16(%rbp), %rax
	movl	$0, 8(%rax)
	movq	16(%rbp), %rax
	movq	(%rax), %rax
	leaq	4(%rax), %rdx
	movq	16(%rbp), %rax
	movq	%rdx, (%rax)
.L64:
	nop
	addq	$16, %rsp
	popq	%rbp
	ret
	.seh_endproc
	.section	.text$_ZNSt18_Bit_iterator_base7_M_incrEx,"x"
	.linkonce discard
	.align 2
	.globl	_ZNSt18_Bit_iterator_base7_M_incrEx
	.def	_ZNSt18_Bit_iterator_base7_M_incrEx;	.scl	2;	.type	32;	.endef
	.seh_proc	_ZNSt18_Bit_iterator_base7_M_incrEx
_ZNSt18_Bit_iterator_base7_M_incrEx:
.LFB2314:
	pushq	%rbp
	.seh_pushreg	%rbp
	movq	%rsp, %rbp
	.seh_setframe	%rbp, 0
	subq	$32, %rsp
	.seh_stackalloc	32
	.seh_endprologue
	movq	%rcx, 16(%rbp)
	movq	%rdx, 24(%rbp)
	movq	16(%rbp), %rax
	movq	%rax, -16(%rbp)
	movq	-16(%rbp), %rax
	movl	8(%rax), %eax
	movl	%eax, -20(%rbp)
	cmpl	$31, -20(%rbp)
	nop
	movq	16(%rbp), %rax
	movl	8(%rax), %eax
	movl	%eax, %edx
	movq	24(%rbp), %rax
	addq	%rdx, %rax
	movq	%rax, -8(%rbp)
	movq	16(%rbp), %rax
	movq	(%rax), %rdx
	movq	-8(%rbp), %rax
	leaq	31(%rax), %rcx
	testq	%rax, %rax
	cmovs	%rcx, %rax
	sarq	$5, %rax
	salq	$2, %rax
	addq	%rax, %rdx
	movq	16(%rbp), %rax
	movq	%rdx, (%rax)
	movq	-8(%rbp), %rdx
	movq	%rdx, %rax
	sarq	$63, %rax
	shrq	$59, %rax
	addq	%rax, %rdx
	andl	$31, %edx
	subq	%rax, %rdx
	movq	%rdx, -8(%rbp)
	cmpq	$0, -8(%rbp)
	jns	.L67
	addq	$32, -8(%rbp)
	movq	16(%rbp), %rax
	movq	(%rax), %rax
	leaq	-4(%rax), %rdx
	movq	16(%rbp), %rax
	movq	%rdx, (%rax)
.L67:
	movq	-8(%rbp), %rax
	movl	%eax, %edx
	movq	16(%rbp), %rax
	movl	%edx, 8(%rax)
	nop
	addq	$32, %rsp
	popq	%rbp
	ret
	.seh_endproc
	.section	.text$_ZStmiRKSt18_Bit_iterator_baseS1_,"x"
	.linkonce discard
	.globl	_ZStmiRKSt18_Bit_iterator_baseS1_
	.def	_ZStmiRKSt18_Bit_iterator_baseS1_;	.scl	2;	.type	32;	.endef
	.seh_proc	_ZStmiRKSt18_Bit_iterator_baseS1_
_ZStmiRKSt18_Bit_iterator_baseS1_:
.LFB2321:
	pushq	%rbp
	.seh_pushreg	%rbp
	movq	%rsp, %rbp
	.seh_setframe	%rbp, 0
	subq	$32, %rsp
	.seh_stackalloc	32
	.seh_endprologue
	movq	%rcx, 16(%rbp)
	movq	%rdx, 24(%rbp)
	movq	16(%rbp), %rax
	movq	%rax, -24(%rbp)
	movq	-24(%rbp), %rax
	movl	8(%rax), %eax
	movl	%eax, -28(%rbp)
	cmpl	$31, -28(%rbp)
	nop
	movq	24(%rbp), %rax
	movq	%rax, -8(%rbp)
	movq	-8(%rbp), %rax
	movl	8(%rax), %eax
	movl	%eax, -12(%rbp)
	cmpl	$31, -12(%rbp)
	nop
	movq	16(%rbp), %rax
	movq	(%rax), %rdx
	movq	24(%rbp), %rax
	movq	(%rax), %rax
	subq	%rax, %rdx
	salq	$3, %rdx
	movq	16(%rbp), %rax
	movl	8(%rax), %eax
	movl	%eax, %eax
	addq	%rax, %rdx
	movq	24(%rbp), %rax
	movl	8(%rax), %eax
	movl	%eax, %ecx
	movq	%rdx, %rax
	subq	%rcx, %rax
	addq	$32, %rsp
	popq	%rbp
	ret
	.seh_endproc
	.section	.text$_ZNSt13_Bit_iteratorC1Ev,"x"
	.linkonce discard
	.align 2
	.globl	_ZNSt13_Bit_iteratorC1Ev
	.def	_ZNSt13_Bit_iteratorC1Ev;	.scl	2;	.type	32;	.endef
	.seh_proc	_ZNSt13_Bit_iteratorC1Ev
_ZNSt13_Bit_iteratorC1Ev:
.LFB2324:
	pushq	%rbp
	.seh_pushreg	%rbp
	movq	%rsp, %rbp
	.seh_setframe	%rbp, 0
	subq	$32, %rsp
	.seh_stackalloc	32
	.seh_endprologue
	movq	%rcx, 16(%rbp)
	movq	16(%rbp), %rax
	movl	$0, %r8d
	movl	$0, %edx
	movq	%rax, %rcx
	call	_ZNSt18_Bit_iterator_baseC2EPmj
	nop
	addq	$32, %rsp
	popq	%rbp
	ret
	.seh_endproc
	.section	.text$_ZNSt13_Bit_iteratorC1EPmj,"x"
	.linkonce discard
	.align 2
	.globl	_ZNSt13_Bit_iteratorC1EPmj
	.def	_ZNSt13_Bit_iteratorC1EPmj;	.scl	2;	.type	32;	.endef
	.seh_proc	_ZNSt13_Bit_iteratorC1EPmj
_ZNSt13_Bit_iteratorC1EPmj:
.LFB2327:
	pushq	%rbp
	.seh_pushreg	%rbp
	movq	%rsp, %rbp
	.seh_setframe	%rbp, 0
	subq	$32, %rsp
	.seh_stackalloc	32
	.seh_endprologue
	movq	%rcx, 16(%rbp)
	movq	%rdx, 24(%rbp)
	movl	%r8d, 32(%rbp)
	movq	16(%rbp), %rax
	movl	32(%rbp), %ecx
	movq	24(%rbp), %rdx
	movl	%ecx, %r8d
	movq	%rax, %rcx
	call	_ZNSt18_Bit_iterator_baseC2EPmj
	nop
	addq	$32, %rsp
	popq	%rbp
	ret
	.seh_endproc
	.section	.text$_ZNKSt13_Bit_iteratordeEv,"x"
	.linkonce discard
	.align 2
	.globl	_ZNKSt13_Bit_iteratordeEv
	.def	_ZNKSt13_Bit_iteratordeEv;	.scl	2;	.type	32;	.endef
	.seh_proc	_ZNKSt13_Bit_iteratordeEv
_ZNKSt13_Bit_iteratordeEv:
.LFB2329:
	pushq	%rbp
	.seh_pushreg	%rbp
	movq	%rsp, %rbp
	.seh_setframe	%rbp, 0
	subq	$48, %rsp
	.seh_stackalloc	48
	.seh_endprologue
	movq	%rcx, 16(%rbp)
	movq	%rdx, 24(%rbp)
	movq	24(%rbp), %rax
	movq	%rax, -8(%rbp)
	movq	-8(%rbp), %rax
	movl	8(%rax), %eax
	movl	%eax, -12(%rbp)
	cmpl	$31, -12(%rbp)
	nop
	movq	24(%rbp), %rax
	movl	8(%rax), %eax
	movl	$1, %edx
	movl	%eax, %ecx
	sall	%cl, %edx
	movl	%edx, %ecx
	movq	24(%rbp), %rax
	movq	(%rax), %rdx
	movq	16(%rbp), %rax
	movl	%ecx, %r8d
	movq	%rax, %rcx
	call	_ZNSt14_Bit_referenceC1EPmm
	movq	16(%rbp), %rax
	addq	$48, %rsp
	popq	%rbp
	ret
	.seh_endproc
	.section	.text$_ZNSt13_Bit_iteratorppEv,"x"
	.linkonce discard
	.align 2
	.globl	_ZNSt13_Bit_iteratorppEv
	.def	_ZNSt13_Bit_iteratorppEv;	.scl	2;	.type	32;	.endef
	.seh_proc	_ZNSt13_Bit_iteratorppEv
_ZNSt13_Bit_iteratorppEv:
.LFB2330:
	pushq	%rbp
	.seh_pushreg	%rbp
	movq	%rsp, %rbp
	.seh_setframe	%rbp, 0
	subq	$32, %rsp
	.seh_stackalloc	32
	.seh_endprologue
	movq	%rcx, 16(%rbp)
	movq	16(%rbp), %rax
	movq	%rax, %rcx
	call	_ZNSt18_Bit_iterator_base10_M_bump_upEv
	movq	16(%rbp), %rax
	addq	$32, %rsp
	popq	%rbp
	ret
	.seh_endproc
	.section	.text$_ZNSt13_Bit_iteratorpLEx,"x"
	.linkonce discard
	.align 2
	.globl	_ZNSt13_Bit_iteratorpLEx
	.def	_ZNSt13_Bit_iteratorpLEx;	.scl	2;	.type	32;	.endef
	.seh_proc	_ZNSt13_Bit_iteratorpLEx
_ZNSt13_Bit_iteratorpLEx:
.LFB2334:
	pushq	%rbp
	.seh_pushreg	%rbp
	movq	%rsp, %rbp
	.seh_setframe	%rbp, 0
	subq	$32, %rsp
	.seh_stackalloc	32
	.seh_endprologue
	movq	%rcx, 16(%rbp)
	movq	%rdx, 24(%rbp)
	movq	16(%rbp), %rax
	movq	24(%rbp), %rdx
	movq	%rax, %rcx
	call	_ZNSt18_Bit_iterator_base7_M_incrEx
	movq	16(%rbp), %rax
	addq	$32, %rsp
	popq	%rbp
	ret
	.seh_endproc
	.section	.text$_ZNKSt13_Bit_iteratorixEx,"x"
	.linkonce discard
	.align 2
	.globl	_ZNKSt13_Bit_iteratorixEx
	.def	_ZNKSt13_Bit_iteratorixEx;	.scl	2;	.type	32;	.endef
	.seh_proc	_ZNKSt13_Bit_iteratorixEx
_ZNKSt13_Bit_iteratorixEx:
.LFB2336:
	pushq	%rbp
	.seh_pushreg	%rbp
	movq	%rsp, %rbp
	.seh_setframe	%rbp, 0
	subq	$48, %rsp
	.seh_stackalloc	48
	.seh_endprologue
	movq	%rcx, 16(%rbp)
	movq	%rdx, 24(%rbp)
	movq	%r8, 32(%rbp)
	leaq	-16(%rbp), %rax
	movq	32(%rbp), %rcx
	movq	24(%rbp), %rdx
	movq	%rcx, %r8
	movq	%rax, %rcx
	call	_ZStplRKSt13_Bit_iteratorx
	movq	16(%rbp), %rax
	leaq	-16(%rbp), %rdx
	movq	%rax, %rcx
	call	_ZNKSt13_Bit_iteratordeEv
	movq	16(%rbp), %rax
	addq	$48, %rsp
	popq	%rbp
	ret
	.seh_endproc
	.section	.text$_ZStplRKSt13_Bit_iteratorx,"x"
	.linkonce discard
	.globl	_ZStplRKSt13_Bit_iteratorx
	.def	_ZStplRKSt13_Bit_iteratorx;	.scl	2;	.type	32;	.endef
	.seh_proc	_ZStplRKSt13_Bit_iteratorx
_ZStplRKSt13_Bit_iteratorx:
.LFB2337:
	pushq	%rbp
	.seh_pushreg	%rbp
	movq	%rsp, %rbp
	.seh_setframe	%rbp, 0
	subq	$32, %rsp
	.seh_stackalloc	32
	.seh_endprologue
	movq	%rcx, 16(%rbp)
	movq	%rdx, 24(%rbp)
	movq	%r8, 32(%rbp)
	movq	16(%rbp), %rcx
	movq	24(%rbp), %rax
	movq	8(%rax), %rdx
	movq	(%rax), %rax
	movq	%rax, (%rcx)
	movq	%rdx, 8(%rcx)
	movq	32(%rbp), %rdx
	movq	16(%rbp), %rax
	movq	%rax, %rcx
	call	_ZNSt13_Bit_iteratorpLEx
	nop
	movq	16(%rbp), %rax
	addq	$32, %rsp
	popq	%rbp
	ret
	.seh_endproc
	.section	.text$_ZNSt19_Bit_const_iteratorC1EPmj,"x"
	.linkonce discard
	.align 2
	.globl	_ZNSt19_Bit_const_iteratorC1EPmj
	.def	_ZNSt19_Bit_const_iteratorC1EPmj;	.scl	2;	.type	32;	.endef
	.seh_proc	_ZNSt19_Bit_const_iteratorC1EPmj
_ZNSt19_Bit_const_iteratorC1EPmj:
.LFB2345:
	pushq	%rbp
	.seh_pushreg	%rbp
	movq	%rsp, %rbp
	.seh_setframe	%rbp, 0
	subq	$32, %rsp
	.seh_stackalloc	32
	.seh_endprologue
	movq	%rcx, 16(%rbp)
	movq	%rdx, 24(%rbp)
	movl	%r8d, 32(%rbp)
	movq	16(%rbp), %rax
	movl	32(%rbp), %ecx
	movq	24(%rbp), %rdx
	movl	%ecx, %r8d
	movq	%rax, %rcx
	call	_ZNSt18_Bit_iterator_baseC2EPmj
	nop
	addq	$32, %rsp
	popq	%rbp
	ret
	.seh_endproc
	.section	.text$_ZNSt19_Bit_const_iteratorC1ERKSt13_Bit_iterator,"x"
	.linkonce discard
	.align 2
	.globl	_ZNSt19_Bit_const_iteratorC1ERKSt13_Bit_iterator
	.def	_ZNSt19_Bit_const_iteratorC1ERKSt13_Bit_iterator;	.scl	2;	.type	32;	.endef
	.seh_proc	_ZNSt19_Bit_const_iteratorC1ERKSt13_Bit_iterator
_ZNSt19_Bit_const_iteratorC1ERKSt13_Bit_iterator:
.LFB2348:
	pushq	%rbp
	.seh_pushreg	%rbp
	movq	%rsp, %rbp
	.seh_setframe	%rbp, 0
	subq	$32, %rsp
	.seh_stackalloc	32
	.seh_endprologue
	movq	%rcx, 16(%rbp)
	movq	%rdx, 24(%rbp)
	movq	16(%rbp), %rax
	movq	24(%rbp), %rdx
	movl	8(%rdx), %ecx
	movq	24(%rbp), %rdx
	movq	(%rdx), %rdx
	movl	%ecx, %r8d
	movq	%rax, %rcx
	call	_ZNSt18_Bit_iterator_baseC2EPmj
	nop
	addq	$32, %rsp
	popq	%rbp
	ret
	.seh_endproc
	.section	.text$_ZNKSt19_Bit_const_iteratordeEv,"x"
	.linkonce discard
	.align 2
	.globl	_ZNKSt19_Bit_const_iteratordeEv
	.def	_ZNKSt19_Bit_const_iteratordeEv;	.scl	2;	.type	32;	.endef
	.seh_proc	_ZNKSt19_Bit_const_iteratordeEv
_ZNKSt19_Bit_const_iteratordeEv:
.LFB2350:
	pushq	%rbp
	.seh_pushreg	%rbp
	movq	%rsp, %rbp
	.seh_setframe	%rbp, 0
	subq	$64, %rsp
	.seh_stackalloc	64
	.seh_endprologue
	movq	%rcx, 16(%rbp)
	movq	16(%rbp), %rax
	movq	%rax, -8(%rbp)
	movq	-8(%rbp), %rax
	movl	8(%rax), %eax
	movl	%eax, -12(%rbp)
	cmpl	$31, -12(%rbp)
	nop
	movq	16(%rbp), %rax
	movl	8(%rax), %eax
	movl	$1, %edx
	movl	%eax, %ecx
	sall	%cl, %edx
	movl	%edx, %ecx
	movq	16(%rbp), %rax
	movq	(%rax), %rdx
	leaq	-32(%rbp), %rax
	movl	%ecx, %r8d
	movq	%rax, %rcx
	call	_ZNSt14_Bit_referenceC1EPmm
	leaq	-32(%rbp), %rax
	movq	%rax, %rcx
	call	_ZNKSt14_Bit_referencecvbEv
	addq	$64, %rsp
	popq	%rbp
	ret
	.seh_endproc
	.section	.text$_ZNSt19_Bit_const_iteratorppEv,"x"
	.linkonce discard
	.align 2
	.globl	_ZNSt19_Bit_const_iteratorppEv
	.def	_ZNSt19_Bit_const_iteratorppEv;	.scl	2;	.type	32;	.endef
	.seh_proc	_ZNSt19_Bit_const_iteratorppEv
_ZNSt19_Bit_const_iteratorppEv:
.LFB2351:
	pushq	%rbp
	.seh_pushreg	%rbp
	movq	%rsp, %rbp
	.seh_setframe	%rbp, 0
	subq	$32, %rsp
	.seh_stackalloc	32
	.seh_endprologue
	movq	%rcx, 16(%rbp)
	movq	16(%rbp), %rax
	movq	%rax, %rcx
	call	_ZNSt18_Bit_iterator_base10_M_bump_upEv
	movq	16(%rbp), %rax
	addq	$32, %rsp
	popq	%rbp
	ret
	.seh_endproc
	.section	.text$_ZSt16__fill_bvector_nPmyb,"x"
	.linkonce discard
	.globl	_ZSt16__fill_bvector_nPmyb
	.def	_ZSt16__fill_bvector_nPmyb;	.scl	2;	.type	32;	.endef
	.seh_proc	_ZSt16__fill_bvector_nPmyb
_ZSt16__fill_bvector_nPmyb:
.LFB2454:
	pushq	%rbp
	.seh_pushreg	%rbp
	movq	%rsp, %rbp
	.seh_setframe	%rbp, 0
	subq	$32, %rsp
	.seh_stackalloc	32
	.seh_endprologue
	movq	%rcx, 16(%rbp)
	movq	%rdx, 24(%rbp)
	movl	%r8d, %eax
	movb	%al, 32(%rbp)
	movq	24(%rbp), %rax
	leaq	0(,%rax,4), %rcx
	cmpb	$0, 32(%rbp)
	je	.L98
	movl	$-1, %edx
	jmp	.L99
.L98:
	movl	$0, %edx
.L99:
	movq	16(%rbp), %rax
	movq	%rcx, %r8
	movq	%rax, %rcx
	call	memset
	nop
	addq	$32, %rsp
	popq	%rbp
	ret
	.seh_endproc
	.section	.text$_ZNSt15_Rb_tree_headerC2Ev,"x"
	.linkonce discard
	.align 2
	.globl	_ZNSt15_Rb_tree_headerC2Ev
	.def	_ZNSt15_Rb_tree_headerC2Ev;	.scl	2;	.type	32;	.endef
	.seh_proc	_ZNSt15_Rb_tree_headerC2Ev
_ZNSt15_Rb_tree_headerC2Ev:
.LFB2503:
	pushq	%rbp
	.seh_pushreg	%rbp
	movq	%rsp, %rbp
	.seh_setframe	%rbp, 0
	subq	$32, %rsp
	.seh_stackalloc	32
	.seh_endprologue
	movq	%rcx, 16(%rbp)
	movq	16(%rbp), %rax
	movl	$0, (%rax)
	movq	16(%rbp), %rax
	movq	%rax, %rcx
	call	_ZNSt15_Rb_tree_header8_M_resetEv
	nop
	addq	$32, %rsp
	popq	%rbp
	ret
	.seh_endproc
	.section	.text$_ZNSt15_Rb_tree_header8_M_resetEv,"x"
	.linkonce discard
	.align 2
	.globl	_ZNSt15_Rb_tree_header8_M_resetEv
	.def	_ZNSt15_Rb_tree_header8_M_resetEv;	.scl	2;	.type	32;	.endef
	.seh_proc	_ZNSt15_Rb_tree_header8_M_resetEv
_ZNSt15_Rb_tree_header8_M_resetEv:
.LFB2509:
	pushq	%rbp
	.seh_pushreg	%rbp
	movq	%rsp, %rbp
	.seh_setframe	%rbp, 0
	.seh_endprologue
	movq	%rcx, 16(%rbp)
	movq	16(%rbp), %rax
	movq	$0, 8(%rax)
	movq	16(%rbp), %rdx
	movq	16(%rbp), %rax
	movq	%rdx, 16(%rax)
	movq	16(%rbp), %rdx
	movq	16(%rbp), %rax
	movq	%rdx, 24(%rax)
	movq	16(%rbp), %rax
	movq	$0, 32(%rax)
	nop
	popq	%rbp
	ret
	.seh_endproc
	.globl	_Z12keywordsListB5cxx11
	.section	.data$_Z12keywordsListB5cxx11,"w"
	.linkonce same_size
	.align 32
_Z12keywordsListB5cxx11:
	.space 56
	.globl	_Z9inputPinsB5cxx11
	.section	.data$_Z9inputPinsB5cxx11,"w"
	.linkonce same_size
	.align 32
_Z9inputPinsB5cxx11:
	.space 48
	.section	.text$_ZNSt8_Rb_treeINSt7__cxx1112basic_stringIcSt11char_traitsIcESaIcEEES5_St9_IdentityIS5_ESt4lessIS5_ESaIS5_EE13_Rb_tree_implIS9_Lb1EED1Ev,"x"
	.linkonce discard
	.align 2
	.globl	_ZNSt8_Rb_treeINSt7__cxx1112basic_stringIcSt11char_traitsIcESaIcEEES5_St9_IdentityIS5_ESt4lessIS5_ESaIS5_EE13_Rb_tree_implIS9_Lb1EED1Ev
	.def	_ZNSt8_Rb_treeINSt7__cxx1112basic_stringIcSt11char_traitsIcESaIcEEES5_St9_IdentityIS5_ESt4lessIS5_ESaIS5_EE13_Rb_tree_implIS9_Lb1EED1Ev;	.scl	2;	.type	32;	.endef
	.seh_proc	_ZNSt8_Rb_treeINSt7__cxx1112basic_stringIcSt11char_traitsIcESaIcEEES5_St9_IdentityIS5_ESt4lessIS5_ESaIS5_EE13_Rb_tree_implIS9_Lb1EED1Ev
_ZNSt8_Rb_treeINSt7__cxx1112basic_stringIcSt11char_traitsIcESaIcEEES5_St9_IdentityIS5_ESt4lessIS5_ESaIS5_EE13_Rb_tree_implIS9_Lb1EED1Ev:
.LFB3894:
	pushq	%rbp
	.seh_pushreg	%rbp
	movq	%rsp, %rbp
	.seh_setframe	%rbp, 0
	subq	$48, %rsp
	.seh_stackalloc	48
	.seh_endprologue
	movq	%rcx, 16(%rbp)
	movq	16(%rbp), %rax
	movq	%rax, -8(%rbp)
	movq	-8(%rbp), %rax
	movq	%rax, %rcx
	call	_ZNSt15__new_allocatorISt13_Rb_tree_nodeINSt7__cxx1112basic_stringIcSt11char_traitsIcESaIcEEEEED2Ev
	nop
	nop
	addq	$48, %rsp
	popq	%rbp
	ret
	.seh_endproc
	.section	.text$_ZNSt8_Rb_treeINSt7__cxx1112basic_stringIcSt11char_traitsIcESaIcEEES5_St9_IdentityIS5_ESt4lessIS5_ESaIS5_EEC1Ev,"x"
	.linkonce discard
	.align 2
	.globl	_ZNSt8_Rb_treeINSt7__cxx1112basic_stringIcSt11char_traitsIcESaIcEEES5_St9_IdentityIS5_ESt4lessIS5_ESaIS5_EEC1Ev
	.def	_ZNSt8_Rb_treeINSt7__cxx1112basic_stringIcSt11char_traitsIcESaIcEEES5_St9_IdentityIS5_ESt4lessIS5_ESaIS5_EEC1Ev;	.scl	2;	.type	32;	.endef
	.seh_proc	_ZNSt8_Rb_treeINSt7__cxx1112basic_stringIcSt11char_traitsIcESaIcEEES5_St9_IdentityIS5_ESt4lessIS5_ESaIS5_EEC1Ev
_ZNSt8_Rb_treeINSt7__cxx1112basic_stringIcSt11char_traitsIcESaIcEEES5_St9_IdentityIS5_ESt4lessIS5_ESaIS5_EEC1Ev:
.LFB3896:
	pushq	%rbp
	.seh_pushreg	%rbp
	movq	%rsp, %rbp
	.seh_setframe	%rbp, 0
	subq	$32, %rsp
	.seh_stackalloc	32
	.seh_endprologue
	movq	%rcx, 16(%rbp)
	movq	16(%rbp), %rax
	movq	%rax, %rcx
	call	_ZNSt8_Rb_treeINSt7__cxx1112basic_stringIcSt11char_traitsIcESaIcEEES5_St9_IdentityIS5_ESt4lessIS5_ESaIS5_EE13_Rb_tree_implIS9_Lb1EEC1Ev
	nop
	addq	$32, %rsp
	popq	%rbp
	ret
	.seh_endproc
	.section	.text$_ZNSt3setINSt7__cxx1112basic_stringIcSt11char_traitsIcESaIcEEESt4lessIS5_ESaIS5_EEC1Ev,"x"
	.linkonce discard
	.align 2
	.globl	_ZNSt3setINSt7__cxx1112basic_stringIcSt11char_traitsIcESaIcEEESt4lessIS5_ESaIS5_EEC1Ev
	.def	_ZNSt3setINSt7__cxx1112basic_stringIcSt11char_traitsIcESaIcEEESt4lessIS5_ESaIS5_EEC1Ev;	.scl	2;	.type	32;	.endef
	.seh_proc	_ZNSt3setINSt7__cxx1112basic_stringIcSt11char_traitsIcESaIcEEESt4lessIS5_ESaIS5_EEC1Ev
_ZNSt3setINSt7__cxx1112basic_stringIcSt11char_traitsIcESaIcEEESt4lessIS5_ESaIS5_EEC1Ev:
.LFB3898:
	pushq	%rbp
	.seh_pushreg	%rbp
	movq	%rsp, %rbp
	.seh_setframe	%rbp, 0
	subq	$32, %rsp
	.seh_stackalloc	32
	.seh_endprologue
	movq	%rcx, 16(%rbp)
	movq	16(%rbp), %rax
	movq	%rax, %rcx
	call	_ZNSt8_Rb_treeINSt7__cxx1112basic_stringIcSt11char_traitsIcESaIcEEES5_St9_IdentityIS5_ESt4lessIS5_ESaIS5_EEC1Ev
	nop
	addq	$32, %rsp
	popq	%rbp
	ret
	.seh_endproc
	.globl	_Z10outputPinsB5cxx11
	.section	.data$_Z10outputPinsB5cxx11,"w"
	.linkonce same_size
	.align 32
_Z10outputPinsB5cxx11:
	.space 48
	.globl	_Z10funcParamsB5cxx11
	.section	.data$_Z10funcParamsB5cxx11,"w"
	.linkonce same_size
	.align 32
_Z10funcParamsB5cxx11:
	.space 48
	.globl	_Z15parsedVariablesB5cxx11
	.section	.data$_Z15parsedVariablesB5cxx11,"w"
	.linkonce same_size
	.align 32
_Z15parsedVariablesB5cxx11:
	.space 48
	.globl	_Z17includedLibrariesB5cxx11
	.section	.data$_Z17includedLibrariesB5cxx11,"w"
	.linkonce same_size
	.align 32
_Z17includedLibrariesB5cxx11:
	.space 48
	.globl	_Z17declaredVariablesB5cxx11
	.section	.data$_Z17declaredVariablesB5cxx11,"w"
	.linkonce same_size
	.align 32
_Z17declaredVariablesB5cxx11:
	.space 48
	.globl	_Z19reassignedVariablesB5cxx11
	.section	.data$_Z19reassignedVariablesB5cxx11,"w"
	.linkonce same_size
	.align 32
_Z19reassignedVariablesB5cxx11:
	.space 48
	.globl	_Z20userFuncOutputParamsB5cxx11
	.section	.data$_Z20userFuncOutputParamsB5cxx11,"w"
	.linkonce same_size
	.align 32
_Z20userFuncOutputParamsB5cxx11:
	.space 48
	.section	.text$_ZNSt8_Rb_treeINSt7__cxx1112basic_stringIcSt11char_traitsIcESaIcEEESt4pairIKS5_St6vectorIbSaIbEEESt10_Select1stISB_ESt4lessIS5_ESaISB_EE13_Rb_tree_implISF_Lb1EED1Ev,"x"
	.linkonce discard
	.align 2
	.globl	_ZNSt8_Rb_treeINSt7__cxx1112basic_stringIcSt11char_traitsIcESaIcEEESt4pairIKS5_St6vectorIbSaIbEEESt10_Select1stISB_ESt4lessIS5_ESaISB_EE13_Rb_tree_implISF_Lb1EED1Ev
	.def	_ZNSt8_Rb_treeINSt7__cxx1112basic_stringIcSt11char_traitsIcESaIcEEESt4pairIKS5_St6vectorIbSaIbEEESt10_Select1stISB_ESt4lessIS5_ESaISB_EE13_Rb_tree_implISF_Lb1EED1Ev;	.scl	2;	.type	32;	.endef
	.seh_proc	_ZNSt8_Rb_treeINSt7__cxx1112basic_stringIcSt11char_traitsIcESaIcEEESt4pairIKS5_St6vectorIbSaIbEEESt10_Select1stISB_ESt4lessIS5_ESaISB_EE13_Rb_tree_implISF_Lb1EED1Ev
_ZNSt8_Rb_treeINSt7__cxx1112basic_stringIcSt11char_traitsIcESaIcEEESt4pairIKS5_St6vectorIbSaIbEEESt10_Select1stISB_ESt4lessIS5_ESaISB_EE13_Rb_tree_implISF_Lb1EED1Ev:
.LFB3904:
	pushq	%rbp
	.seh_pushreg	%rbp
	movq	%rsp, %rbp
	.seh_setframe	%rbp, 0
	subq	$48, %rsp
	.seh_stackalloc	48
	.seh_endprologue
	movq	%rcx, 16(%rbp)
	movq	16(%rbp), %rax
	movq	%rax, -8(%rbp)
	movq	-8(%rbp), %rax
	movq	%rax, %rcx
	call	_ZNSt15__new_allocatorISt13_Rb_tree_nodeISt4pairIKNSt7__cxx1112basic_stringIcSt11char_traitsIcESaIcEEESt6vectorIbSaIbEEEEED2Ev
	nop
	nop
	addq	$48, %rsp
	popq	%rbp
	ret
	.seh_endproc
	.section	.text$_ZNSt8_Rb_treeINSt7__cxx1112basic_stringIcSt11char_traitsIcESaIcEEESt4pairIKS5_St6vectorIbSaIbEEESt10_Select1stISB_ESt4lessIS5_ESaISB_EEC1Ev,"x"
	.linkonce discard
	.align 2
	.globl	_ZNSt8_Rb_treeINSt7__cxx1112basic_stringIcSt11char_traitsIcESaIcEEESt4pairIKS5_St6vectorIbSaIbEEESt10_Select1stISB_ESt4lessIS5_ESaISB_EEC1Ev
	.def	_ZNSt8_Rb_treeINSt7__cxx1112basic_stringIcSt11char_traitsIcESaIcEEESt4pairIKS5_St6vectorIbSaIbEEESt10_Select1stISB_ESt4lessIS5_ESaISB_EEC1Ev;	.scl	2;	.type	32;	.endef
	.seh_proc	_ZNSt8_Rb_treeINSt7__cxx1112basic_stringIcSt11char_traitsIcESaIcEEESt4pairIKS5_St6vectorIbSaIbEEESt10_Select1stISB_ESt4lessIS5_ESaISB_EEC1Ev
_ZNSt8_Rb_treeINSt7__cxx1112basic_stringIcSt11char_traitsIcESaIcEEESt4pairIKS5_St6vectorIbSaIbEEESt10_Select1stISB_ESt4lessIS5_ESaISB_EEC1Ev:
.LFB3906:
	pushq	%rbp
	.seh_pushreg	%rbp
	movq	%rsp, %rbp
	.seh_setframe	%rbp, 0
	subq	$32, %rsp
	.seh_stackalloc	32
	.seh_endprologue
	movq	%rcx, 16(%rbp)
	movq	16(%rbp), %rax
	movq	%rax, %rcx
	call	_ZNSt8_Rb_treeINSt7__cxx1112basic_stringIcSt11char_traitsIcESaIcEEESt4pairIKS5_St6vectorIbSaIbEEESt10_Select1stISB_ESt4lessIS5_ESaISB_EE13_Rb_tree_implISF_Lb1EEC1Ev
	nop
	addq	$32, %rsp
	popq	%rbp
	ret
	.seh_endproc
	.section	.text$_ZNSt3mapINSt7__cxx1112basic_stringIcSt11char_traitsIcESaIcEEESt6vectorIbSaIbEESt4lessIS5_ESaISt4pairIKS5_S8_EEEC1Ev,"x"
	.linkonce discard
	.align 2
	.globl	_ZNSt3mapINSt7__cxx1112basic_stringIcSt11char_traitsIcESaIcEEESt6vectorIbSaIbEESt4lessIS5_ESaISt4pairIKS5_S8_EEEC1Ev
	.def	_ZNSt3mapINSt7__cxx1112basic_stringIcSt11char_traitsIcESaIcEEESt6vectorIbSaIbEESt4lessIS5_ESaISt4pairIKS5_S8_EEEC1Ev;	.scl	2;	.type	32;	.endef
	.seh_proc	_ZNSt3mapINSt7__cxx1112basic_stringIcSt11char_traitsIcESaIcEEESt6vectorIbSaIbEESt4lessIS5_ESaISt4pairIKS5_S8_EEEC1Ev
_ZNSt3mapINSt7__cxx1112basic_stringIcSt11char_traitsIcESaIcEEESt6vectorIbSaIbEESt4lessIS5_ESaISt4pairIKS5_S8_EEEC1Ev:
.LFB3908:
	pushq	%rbp
	.seh_pushreg	%rbp
	movq	%rsp, %rbp
	.seh_setframe	%rbp, 0
	subq	$32, %rsp
	.seh_stackalloc	32
	.seh_endprologue
	movq	%rcx, 16(%rbp)
	movq	16(%rbp), %rax
	movq	%rax, %rcx
	call	_ZNSt8_Rb_treeINSt7__cxx1112basic_stringIcSt11char_traitsIcESaIcEEESt4pairIKS5_St6vectorIbSaIbEEESt10_Select1stISB_ESt4lessIS5_ESaISB_EEC1Ev
	nop
	addq	$32, %rsp
	popq	%rbp
	ret
	.seh_endproc
	.globl	_Z19userFuncInputParamsB5cxx11
	.section	.data$_Z19userFuncInputParamsB5cxx11,"w"
	.linkonce same_size
	.align 32
_Z19userFuncInputParamsB5cxx11:
	.space 48
	.globl	_Z22currentParsingUserFuncB5cxx11
	.section	.data$_Z22currentParsingUserFuncB5cxx11,"w"
	.linkonce same_size
	.align 32
_Z22currentParsingUserFuncB5cxx11:
	.space 32
	.globl	_Z21currentFuncParamNamesB5cxx11
	.section	.data$_Z21currentFuncParamNamesB5cxx11,"w"
	.linkonce same_size
	.align 16
_Z21currentFuncParamNamesB5cxx11:
	.space 24
	.section	.text$_ZNSt12_Vector_baseINSt7__cxx1112basic_stringIcSt11char_traitsIcESaIcEEESaIS5_EE12_Vector_implD1Ev,"x"
	.linkonce discard
	.align 2
	.globl	_ZNSt12_Vector_baseINSt7__cxx1112basic_stringIcSt11char_traitsIcESaIcEEESaIS5_EE12_Vector_implD1Ev
	.def	_ZNSt12_Vector_baseINSt7__cxx1112basic_stringIcSt11char_traitsIcESaIcEEESaIS5_EE12_Vector_implD1Ev;	.scl	2;	.type	32;	.endef
	.seh_proc	_ZNSt12_Vector_baseINSt7__cxx1112basic_stringIcSt11char_traitsIcESaIcEEESaIS5_EE12_Vector_implD1Ev
_ZNSt12_Vector_baseINSt7__cxx1112basic_stringIcSt11char_traitsIcESaIcEEESaIS5_EE12_Vector_implD1Ev:
.LFB3913:
	pushq	%rbp
	.seh_pushreg	%rbp
	movq	%rsp, %rbp
	.seh_setframe	%rbp, 0
	subq	$48, %rsp
	.seh_stackalloc	48
	.seh_endprologue
	movq	%rcx, 16(%rbp)
	movq	16(%rbp), %rax
	movq	%rax, -8(%rbp)
	movq	-8(%rbp), %rax
	movq	%rax, %rcx
	call	_ZNSt15__new_allocatorINSt7__cxx1112basic_stringIcSt11char_traitsIcESaIcEEEED2Ev
	nop
	nop
	addq	$48, %rsp
	popq	%rbp
	ret
	.seh_endproc
	.section	.text$_ZNSt12_Vector_baseINSt7__cxx1112basic_stringIcSt11char_traitsIcESaIcEEESaIS5_EEC2Ev,"x"
	.linkonce discard
	.align 2
	.globl	_ZNSt12_Vector_baseINSt7__cxx1112basic_stringIcSt11char_traitsIcESaIcEEESaIS5_EEC2Ev
	.def	_ZNSt12_Vector_baseINSt7__cxx1112basic_stringIcSt11char_traitsIcESaIcEEESaIS5_EEC2Ev;	.scl	2;	.type	32;	.endef
	.seh_proc	_ZNSt12_Vector_baseINSt7__cxx1112basic_stringIcSt11char_traitsIcESaIcEEESaIS5_EEC2Ev
_ZNSt12_Vector_baseINSt7__cxx1112basic_stringIcSt11char_traitsIcESaIcEEESaIS5_EEC2Ev:
.LFB3914:
	pushq	%rbp
	.seh_pushreg	%rbp
	movq	%rsp, %rbp
	.seh_setframe	%rbp, 0
	subq	$32, %rsp
	.seh_stackalloc	32
	.seh_endprologue
	movq	%rcx, 16(%rbp)
	movq	16(%rbp), %rax
	movq	%rax, %rcx
	call	_ZNSt12_Vector_baseINSt7__cxx1112basic_stringIcSt11char_traitsIcESaIcEEESaIS5_EE12_Vector_implC1Ev
	nop
	addq	$32, %rsp
	popq	%rbp
	ret
	.seh_endproc
	.section	.text$_ZNSt6vectorINSt7__cxx1112basic_stringIcSt11char_traitsIcESaIcEEESaIS5_EEC1Ev,"x"
	.linkonce discard
	.align 2
	.globl	_ZNSt6vectorINSt7__cxx1112basic_stringIcSt11char_traitsIcESaIcEEESaIS5_EEC1Ev
	.def	_ZNSt6vectorINSt7__cxx1112basic_stringIcSt11char_traitsIcESaIcEEESaIS5_EEC1Ev;	.scl	2;	.type	32;	.endef
	.seh_proc	_ZNSt6vectorINSt7__cxx1112basic_stringIcSt11char_traitsIcESaIcEEESaIS5_EEC1Ev
_ZNSt6vectorINSt7__cxx1112basic_stringIcSt11char_traitsIcESaIcEEESaIS5_EEC1Ev:
.LFB3917:
	pushq	%rbp
	.seh_pushreg	%rbp
	movq	%rsp, %rbp
	.seh_setframe	%rbp, 0
	subq	$32, %rsp
	.seh_stackalloc	32
	.seh_endprologue
	movq	%rcx, 16(%rbp)
	movq	16(%rbp), %rax
	movq	%rax, %rcx
	call	_ZNSt12_Vector_baseINSt7__cxx1112basic_stringIcSt11char_traitsIcESaIcEEESaIS5_EEC2Ev
	nop
	addq	$32, %rsp
	popq	%rbp
	ret
	.seh_endproc
	.section	.text$_ZN13VarAssignNode9isNumericERKNSt7__cxx1112basic_stringIcSt11char_traitsIcESaIcEEE,"x"
	.linkonce discard
	.align 2
	.globl	_ZN13VarAssignNode9isNumericERKNSt7__cxx1112basic_stringIcSt11char_traitsIcESaIcEEE
	.def	_ZN13VarAssignNode9isNumericERKNSt7__cxx1112basic_stringIcSt11char_traitsIcESaIcEEE;	.scl	2;	.type	32;	.endef
	.seh_proc	_ZN13VarAssignNode9isNumericERKNSt7__cxx1112basic_stringIcSt11char_traitsIcESaIcEEE
_ZN13VarAssignNode9isNumericERKNSt7__cxx1112basic_stringIcSt11char_traitsIcESaIcEEE:
.LFB3918:
	pushq	%rbp
	.seh_pushreg	%rbp
	movq	%rsp, %rbp
	.seh_setframe	%rbp, 0
	subq	$64, %rsp
	.seh_stackalloc	64
	.seh_endprologue
	movq	%rcx, 16(%rbp)
	movq	%rdx, 24(%rbp)
	movq	24(%rbp), %rax
	movq	%rax, %rcx
	call	_ZNKSt7__cxx1112basic_stringIcSt11char_traitsIcESaIcEE5emptyEv
	testb	%al, %al
	je	.L112
	movl	$0, %eax
	jmp	.L113
.L112:
	movq	24(%rbp), %rax
	movq	%rax, -8(%rbp)
	movq	-8(%rbp), %rax
	movq	%rax, %rcx
	call	_ZNKSt7__cxx1112basic_stringIcSt11char_traitsIcESaIcEE5beginEv
	movq	%rax, -24(%rbp)
	movq	-8(%rbp), %rax
	movq	%rax, %rcx
	call	_ZNKSt7__cxx1112basic_stringIcSt11char_traitsIcESaIcEE3endEv
	movq	%rax, -32(%rbp)
	jmp	.L114
.L117:
	leaq	-24(%rbp), %rax
	movq	%rax, %rcx
	call	_ZNK9__gnu_cxx17__normal_iteratorIPKcNSt7__cxx1112basic_stringIcSt11char_traitsIcESaIcEEEEdeEv
	movzbl	(%rax), %eax
	movb	%al, -9(%rbp)
	movsbl	-9(%rbp), %eax
	subl	$48, %eax
	cmpl	$9, %eax
	jbe	.L115
	movl	$0, %eax
	jmp	.L113
.L115:
	leaq	-24(%rbp), %rax
	movq	%rax, %rcx
	call	_ZN9__gnu_cxx17__normal_iteratorIPKcNSt7__cxx1112basic_stringIcSt11char_traitsIcESaIcEEEEppEv
.L114:
	leaq	-32(%rbp), %rdx
	leaq	-24(%rbp), %rax
	movq	%rax, %rcx
	call	_ZN9__gnu_cxxneIPKcNSt7__cxx1112basic_stringIcSt11char_traitsIcESaIcEEEEEbRKNS_17__normal_iteratorIT_T0_EESE_
	testb	%al, %al
	jne	.L117
	movl	$1, %eax
.L113:
	addq	$64, %rsp
	popq	%rbp
	ret
	.seh_endproc
	.section	.text$_ZN7ASTNodeC2Ev,"x"
	.linkonce discard
	.align 2
	.globl	_ZN7ASTNodeC2Ev
	.def	_ZN7ASTNodeC2Ev;	.scl	2;	.type	32;	.endef
	.seh_proc	_ZN7ASTNodeC2Ev
_ZN7ASTNodeC2Ev:
.LFB3921:
	pushq	%rbp
	.seh_pushreg	%rbp
	movq	%rsp, %rbp
	.seh_setframe	%rbp, 0
	.seh_endprologue
	movq	%rcx, 16(%rbp)
	leaq	16+_ZTV7ASTNode(%rip), %rdx
	movq	16(%rbp), %rax
	movq	%rdx, (%rax)
	nop
	popq	%rbp
	ret
	.seh_endproc
	.section	.text$_ZN7ASTNodeD2Ev,"x"
	.linkonce discard
	.align 2
	.globl	_ZN7ASTNodeD2Ev
	.def	_ZN7ASTNodeD2Ev;	.scl	2;	.type	32;	.endef
	.seh_proc	_ZN7ASTNodeD2Ev
_ZN7ASTNodeD2Ev:
.LFB3924:
	pushq	%rbp
	.seh_pushreg	%rbp
	movq	%rsp, %rbp
	.seh_setframe	%rbp, 0
	.seh_endprologue
	movq	%rcx, 16(%rbp)
	leaq	16+_ZTV7ASTNode(%rip), %rdx
	movq	16(%rbp), %rax
	movq	%rdx, (%rax)
	nop
	popq	%rbp
	ret
	.seh_endproc
	.section	.text$_ZN13VarAssignNodeC1ENSt7__cxx1112basic_stringIcSt11char_traitsIcESaIcEEES5_9TokenType,"x"
	.linkonce discard
	.align 2
	.globl	_ZN13VarAssignNodeC1ENSt7__cxx1112basic_stringIcSt11char_traitsIcESaIcEEES5_9TokenType
	.def	_ZN13VarAssignNodeC1ENSt7__cxx1112basic_stringIcSt11char_traitsIcESaIcEEES5_9TokenType;	.scl	2;	.type	32;	.endef
	.seh_proc	_ZN13VarAssignNodeC1ENSt7__cxx1112basic_stringIcSt11char_traitsIcESaIcEEES5_9TokenType
_ZN13VarAssignNodeC1ENSt7__cxx1112basic_stringIcSt11char_traitsIcESaIcEEES5_9TokenType:
.LFB3928:
	pushq	%rbp
	.seh_pushreg	%rbp
	pushq	%rbx
	.seh_pushreg	%rbx
	subq	$40, %rsp
	.seh_stackalloc	40
	leaq	32(%rsp), %rbp
	.seh_setframe	%rbp, 32
	.seh_endprologue
	movq	%rcx, 32(%rbp)
	movq	%rdx, 40(%rbp)
	movq	%r8, 48(%rbp)
	movl	%r9d, 56(%rbp)
	movq	32(%rbp), %rax
	movq	%rax, %rcx
	call	_ZN7ASTNodeC2Ev
	leaq	16+_ZTV13VarAssignNode(%rip), %rdx
	movq	32(%rbp), %rax
	movq	%rdx, (%rax)
	movq	32(%rbp), %rax
	leaq	8(%rax), %rcx
	movq	40(%rbp), %rax
	movq	%rax, %rdx
.LEHB2:
	call	_ZNSt7__cxx1112basic_stringIcSt11char_traitsIcESaIcEEC1ERKS4_
.LEHE2:
	movq	32(%rbp), %rax
	leaq	40(%rax), %rcx
	movq	48(%rbp), %rax
	movq	%rax, %rdx
.LEHB3:
	call	_ZNSt7__cxx1112basic_stringIcSt11char_traitsIcESaIcEEC1ERKS4_
.LEHE3:
	movq	32(%rbp), %rax
	movl	56(%rbp), %edx
	movl	%edx, 72(%rax)
	jmp	.L125
.L124:
	movq	%rax, %rbx
	movq	32(%rbp), %rax
	addq	$8, %rax
	movq	%rax, %rcx
	call	_ZNSt7__cxx1112basic_stringIcSt11char_traitsIcESaIcEED1Ev
	jmp	.L122
.L123:
	movq	%rax, %rbx
.L122:
	movq	32(%rbp), %rax
	movq	%rax, %rcx
	call	_ZN7ASTNodeD2Ev
	movq	%rbx, %rax
	movq	%rax, %rcx
.LEHB4:
	call	_Unwind_Resume
	nop
.LEHE4:
.L125:
	addq	$40, %rsp
	popq	%rbx
	popq	%rbp
	ret
	.seh_handler	__gxx_personality_seh0, @unwind, @except
	.seh_handlerdata
.LLSDA3928:
	.byte	0xff
	.byte	0xff
	.byte	0x1
	.uleb128 .LLSDACSE3928-.LLSDACSB3928
.LLSDACSB3928:
	.uleb128 .LEHB2-.LFB3928
	.uleb128 .LEHE2-.LEHB2
	.uleb128 .L123-.LFB3928
	.uleb128 0
	.uleb128 .LEHB3-.LFB3928
	.uleb128 .LEHE3-.LEHB3
	.uleb128 .L124-.LFB3928
	.uleb128 0
	.uleb128 .LEHB4-.LFB3928
	.uleb128 .LEHE4-.LEHB4
	.uleb128 0
	.uleb128 0
.LLSDACSE3928:
	.section	.text$_ZN13VarAssignNodeC1ENSt7__cxx1112basic_stringIcSt11char_traitsIcESaIcEEES5_9TokenType,"x"
	.linkonce discard
	.seh_endproc
	.section .rdata,"dr"
.LC2:
	.ascii "int\0"
.LC3:
	.ascii "(\0"
.LC4:
	.ascii "()\0"
.LC5:
	.ascii " \0"
.LC6:
	.ascii ";\12\0"
.LC7:
	.ascii "Serial.read()\0"
.LC8:
	.ascii "char\0"
.LC9:
	.ascii "\"\0"
.LC10:
	.ascii "+\0"
.LC11:
	.ascii "String\0"
.LC12:
	.ascii "String(\"\") + \0"
.LC13:
	.ascii "const char*\0"
.LC14:
	.ascii "true\0"
.LC15:
	.ascii "false\0"
.LC16:
	.ascii "bool\0"
.LC17:
	.ascii "float\0"
.LC18:
	.ascii "'\0"
.LC19:
	.ascii "uint8_t\0"
.LC20:
	.ascii "uint16_t\0"
.LC21:
	.ascii "uint32_t\0"
.LC22:
	.ascii "uint64_t\0"
.LC23:
	.ascii " = \0"
.LC24:
	.ascii ";\0"
.LC25:
	.ascii "const\0"
.LC26:
	.ascii "const \0"
	.section	.text$_ZN13VarAssignNode5toCppB5cxx11Ev,"x"
	.linkonce discard
	.align 2
	.globl	_ZN13VarAssignNode5toCppB5cxx11Ev
	.def	_ZN13VarAssignNode5toCppB5cxx11Ev;	.scl	2;	.type	32;	.endef
	.seh_proc	_ZN13VarAssignNode5toCppB5cxx11Ev
_ZN13VarAssignNode5toCppB5cxx11Ev:
.LFB3929:
	pushq	%rbp
	.seh_pushreg	%rbp
	pushq	%rbx
	.seh_pushreg	%rbx
	subq	$872, %rsp
	.seh_stackalloc	872
	leaq	128(%rsp), %rbp
	.seh_setframe	%rbp, 128
	.seh_endprologue
	movq	%rcx, 768(%rbp)
	movq	%rdx, 776(%rbp)
	leaq	47(%rbp), %rax
	movq	%rax, 712(%rbp)
	nop
	nop
	leaq	47(%rbp), %rdx
	movq	%rbp, %rax
	movq	%rdx, %r8
	leaq	.LC2(%rip), %rdx
	movq	%rax, %rcx
.LEHB5:
	call	_ZNSt7__cxx1112basic_stringIcSt11char_traitsIcESaIcEEC1IS3_EEPKcRKS3_
.LEHE5:
	leaq	47(%rbp), %rax
	movq	%rax, %rcx
	call	_ZNSt15__new_allocatorIcED2Ev
	nop
	movq	776(%rbp), %rax
	leaq	40(%rax), %rdx
	leaq	-32(%rbp), %rax
	movq	%rax, %rcx
.LEHB6:
	call	_ZNSt7__cxx1112basic_stringIcSt11char_traitsIcESaIcEEC1ERKS4_
.LEHE6:
	movq	776(%rbp), %rax
	movl	72(%rax), %eax
	cmpl	$1, %eax
	jne	.L127
	leaq	-32(%rbp), %rax
	movl	$0, %r8d
	leaq	.LC3(%rip), %rdx
	movq	%rax, %rcx
	call	_ZNKSt7__cxx1112basic_stringIcSt11char_traitsIcESaIcEE4findEPKcy
	cmpq	$-1, %rax
	je	.L127
	leaq	-32(%rbp), %rax
	movq	%rax, %rcx
	call	_ZNSt7__cxx1112basic_stringIcSt11char_traitsIcESaIcEE4backEv
	movzbl	(%rax), %eax
	cmpb	$41, %al
	jne	.L127
	movl	$1, %eax
	jmp	.L128
.L127:
	movl	$0, %eax
.L128:
	testb	%al, %al
	je	.L129
	leaq	-32(%rbp), %rax
	movl	$0, %r8d
	leaq	.LC3(%rip), %rdx
	movq	%rax, %rcx
	call	_ZNKSt7__cxx1112basic_stringIcSt11char_traitsIcESaIcEE4findEPKcy
	movq	%rax, %rcx
	leaq	-96(%rbp), %rax
	leaq	-32(%rbp), %rdx
	movq	%rcx, %r9
	movl	$0, %r8d
	movq	%rax, %rcx
.LEHB7:
	call	_ZNKSt7__cxx1112basic_stringIcSt11char_traitsIcESaIcEE6substrEyy
.LEHE7:
	leaq	-32(%rbp), %rax
	movl	$0, %r8d
	leaq	.LC3(%rip), %rdx
	movq	%rax, %rcx
	call	_ZNKSt7__cxx1112basic_stringIcSt11char_traitsIcESaIcEE4findEPKcy
	movq	%rax, %rcx
	leaq	-64(%rbp), %rax
	leaq	-32(%rbp), %rdx
	movq	$-1, %r9
	movq	%rcx, %r8
	movq	%rax, %rcx
.LEHB8:
	call	_ZNKSt7__cxx1112basic_stringIcSt11char_traitsIcESaIcEE6substrEyy
.LEHE8:
	movq	776(%rbp), %rax
	leaq	8(%rax), %rdx
	leaq	48(%rbp), %rax
	movq	%rdx, %r8
	leaq	_Z17declaredVariablesB5cxx11(%rip), %rdx
	movq	%rax, %rcx
.LEHB9:
	call	_ZNSt3setINSt7__cxx1112basic_stringIcSt11char_traitsIcESaIcEEESt4lessIS5_ESaIS5_EE6insertERKS5_
	leaq	64(%rbp), %rax
	leaq	-96(%rbp), %rdx
	movq	%rdx, %r8
	leaq	_Z17includedLibrariesB5cxx11(%rip), %rdx
	movq	%rax, %rcx
	call	_ZNSt3setINSt7__cxx1112basic_stringIcSt11char_traitsIcESaIcEEESt4lessIS5_ESaIS5_EE6insertERKS5_
	leaq	-64(%rbp), %rax
	leaq	.LC4(%rip), %rdx
	movq	%rax, %rcx
	call	_ZSteqIcSt11char_traitsIcESaIcEEbRKNSt7__cxx1112basic_stringIT_T0_T1_EEPKS5_
	testb	%al, %al
	je	.L130
	movq	776(%rbp), %rax
	leaq	8(%rax), %rbx
	leaq	112(%rbp), %rax
	leaq	-96(%rbp), %rdx
	leaq	.LC5(%rip), %r8
	movq	%rax, %rcx
	call	_ZStplIcSt11char_traitsIcESaIcEENSt7__cxx1112basic_stringIT_T0_T1_EERKS8_PKS5_
.LEHE9:
	leaq	80(%rbp), %rax
	leaq	112(%rbp), %rdx
	movq	%rbx, %r8
	movq	%rax, %rcx
.LEHB10:
	call	_ZStplIcSt11char_traitsIcESaIcEENSt7__cxx1112basic_stringIT_T0_T1_EEOS8_RKS8_
.LEHE10:
	movq	768(%rbp), %rax
	leaq	80(%rbp), %rdx
	leaq	.LC6(%rip), %r8
	movq	%rax, %rcx
.LEHB11:
	call	_ZStplIcSt11char_traitsIcESaIcEENSt7__cxx1112basic_stringIT_T0_T1_EEOS8_PKS5_
.LEHE11:
	nop
	leaq	80(%rbp), %rax
	movq	%rax, %rcx
	call	_ZNSt7__cxx1112basic_stringIcSt11char_traitsIcESaIcEED1Ev
	leaq	112(%rbp), %rax
	movq	%rax, %rcx
	call	_ZNSt7__cxx1112basic_stringIcSt11char_traitsIcESaIcEED1Ev
	jmp	.L131
.L130:
	movq	776(%rbp), %rax
	leaq	8(%rax), %rbx
	leaq	208(%rbp), %rax
	leaq	-96(%rbp), %rdx
	leaq	.LC5(%rip), %r8
	movq	%rax, %rcx
.LEHB12:
	call	_ZStplIcSt11char_traitsIcESaIcEENSt7__cxx1112basic_stringIT_T0_T1_EERKS8_PKS5_
.LEHE12:
	leaq	176(%rbp), %rax
	leaq	208(%rbp), %rdx
	movq	%rbx, %r8
	movq	%rax, %rcx
.LEHB13:
	call	_ZStplIcSt11char_traitsIcESaIcEENSt7__cxx1112basic_stringIT_T0_T1_EEOS8_RKS8_
.LEHE13:
	leaq	144(%rbp), %rax
	leaq	-64(%rbp), %rcx
	leaq	176(%rbp), %rdx
	movq	%rcx, %r8
	movq	%rax, %rcx
.LEHB14:
	call	_ZStplIcSt11char_traitsIcESaIcEENSt7__cxx1112basic_stringIT_T0_T1_EEOS8_RKS8_
.LEHE14:
	movq	768(%rbp), %rax
	leaq	144(%rbp), %rdx
	leaq	.LC6(%rip), %r8
	movq	%rax, %rcx
.LEHB15:
	call	_ZStplIcSt11char_traitsIcESaIcEENSt7__cxx1112basic_stringIT_T0_T1_EEOS8_PKS5_
.LEHE15:
	nop
	leaq	144(%rbp), %rax
	movq	%rax, %rcx
	call	_ZNSt7__cxx1112basic_stringIcSt11char_traitsIcESaIcEED1Ev
	leaq	176(%rbp), %rax
	movq	%rax, %rcx
	call	_ZNSt7__cxx1112basic_stringIcSt11char_traitsIcESaIcEED1Ev
	leaq	208(%rbp), %rax
	movq	%rax, %rcx
	call	_ZNSt7__cxx1112basic_stringIcSt11char_traitsIcESaIcEED1Ev
.L131:
	leaq	-64(%rbp), %rax
	movq	%rax, %rcx
	call	_ZNSt7__cxx1112basic_stringIcSt11char_traitsIcESaIcEED1Ev
	leaq	-96(%rbp), %rax
	movq	%rax, %rcx
	call	_ZNSt7__cxx1112basic_stringIcSt11char_traitsIcESaIcEED1Ev
	jmp	.L132
.L129:
	movq	776(%rbp), %rax
	addq	$40, %rax
	leaq	.LC7(%rip), %rdx
	movq	%rax, %rcx
.LEHB16:
	call	_ZSteqIcSt11char_traitsIcESaIcEEbRKNSt7__cxx1112basic_stringIT_T0_T1_EEPKS5_
	testb	%al, %al
	je	.L133
	movq	%rbp, %rax
	leaq	.LC8(%rip), %rdx
	movq	%rax, %rcx
	call	_ZNSt7__cxx1112basic_stringIcSt11char_traitsIcESaIcEEaSEPKc
	leaq	-32(%rbp), %rax
	leaq	.LC7(%rip), %rdx
	movq	%rax, %rcx
	call	_ZNSt7__cxx1112basic_stringIcSt11char_traitsIcESaIcEEaSEPKc
	jmp	.L134
.L133:
	movq	776(%rbp), %rax
	movl	72(%rax), %eax
	cmpl	$3, %eax
	je	.L135
	movq	776(%rbp), %rax
	addq	$40, %rax
	movl	$0, %r8d
	leaq	.LC9(%rip), %rdx
	movq	%rax, %rcx
	call	_ZNKSt7__cxx1112basic_stringIcSt11char_traitsIcESaIcEE4findEPKcy
	cmpq	$-1, %rax
	je	.L136
.L135:
	movl	$1, %eax
	jmp	.L137
.L136:
	movl	$0, %eax
.L137:
	testb	%al, %al
	je	.L138
	movq	776(%rbp), %rax
	addq	$40, %rax
	movl	$0, %r8d
	leaq	.LC10(%rip), %rdx
	movq	%rax, %rcx
	call	_ZNKSt7__cxx1112basic_stringIcSt11char_traitsIcESaIcEE4findEPKcy
	cmpq	$-1, %rax
	setne	%al
	testb	%al, %al
	je	.L139
	movq	%rbp, %rax
	leaq	.LC11(%rip), %rdx
	movq	%rax, %rcx
	call	_ZNSt7__cxx1112basic_stringIcSt11char_traitsIcESaIcEEaSEPKc
	movq	776(%rbp), %rax
	leaq	40(%rax), %rdx
	leaq	240(%rbp), %rax
	movq	%rdx, %r8
	leaq	.LC12(%rip), %rdx
	movq	%rax, %rcx
	call	_ZStplIcSt11char_traitsIcESaIcEENSt7__cxx1112basic_stringIT_T0_T1_EEPKS5_RKS8_
	leaq	240(%rbp), %rdx
	leaq	-32(%rbp), %rax
	movq	%rax, %rcx
	call	_ZNSt7__cxx1112basic_stringIcSt11char_traitsIcESaIcEEaSEOS4_
	leaq	240(%rbp), %rax
	movq	%rax, %rcx
	call	_ZNSt7__cxx1112basic_stringIcSt11char_traitsIcESaIcEED1Ev
	jmp	.L152
.L139:
	movq	%rbp, %rax
	leaq	.LC13(%rip), %rdx
	movq	%rax, %rcx
	call	_ZNSt7__cxx1112basic_stringIcSt11char_traitsIcESaIcEEaSEPKc
	movq	776(%rbp), %rax
	leaq	40(%rax), %rdx
	leaq	-32(%rbp), %rax
	movq	%rax, %rcx
	call	_ZNSt7__cxx1112basic_stringIcSt11char_traitsIcESaIcEEaSERKS4_
	jmp	.L134
.L138:
	movq	776(%rbp), %rax
	addq	$40, %rax
	leaq	.LC14(%rip), %rdx
	movq	%rax, %rcx
	call	_ZSteqIcSt11char_traitsIcESaIcEEbRKNSt7__cxx1112basic_stringIT_T0_T1_EEPKS5_
	testb	%al, %al
	jne	.L140
	movq	776(%rbp), %rax
	addq	$40, %rax
	leaq	.LC15(%rip), %rdx
	movq	%rax, %rcx
	call	_ZSteqIcSt11char_traitsIcESaIcEEbRKNSt7__cxx1112basic_stringIT_T0_T1_EEPKS5_
	testb	%al, %al
	je	.L141
.L140:
	movl	$1, %eax
	jmp	.L142
.L141:
	movl	$0, %eax
.L142:
	testb	%al, %al
	je	.L143
	movq	%rbp, %rax
	leaq	.LC16(%rip), %rdx
	movq	%rax, %rcx
	call	_ZNSt7__cxx1112basic_stringIcSt11char_traitsIcESaIcEEaSEPKc
	jmp	.L134
.L143:
	movq	776(%rbp), %rax
	addq	$40, %rax
	movl	$0, %r8d
	movl	$46, %edx
	movq	%rax, %rcx
	call	_ZNKSt7__cxx1112basic_stringIcSt11char_traitsIcESaIcEE4findEcy
	cmpq	$-1, %rax
	setne	%al
	testb	%al, %al
	je	.L144
	movq	%rbp, %rax
	leaq	.LC17(%rip), %rdx
	movq	%rax, %rcx
	call	_ZNSt7__cxx1112basic_stringIcSt11char_traitsIcESaIcEEaSEPKc
	jmp	.L134
.L144:
	movq	776(%rbp), %rax
	addq	$40, %rax
	movq	%rax, %rcx
	call	_ZNKSt7__cxx1112basic_stringIcSt11char_traitsIcESaIcEE6lengthEv
	cmpq	$1, %rax
	jne	.L145
	movq	776(%rbp), %rax
	addq	$40, %rax
	movl	$0, %edx
	movq	%rax, %rcx
	call	_ZNSt7__cxx1112basic_stringIcSt11char_traitsIcESaIcEEixEy
	movzbl	(%rax), %eax
	movsbl	%al, %eax
	subl	$48, %eax
	cmpl	$9, %eax
	jbe	.L145
	movl	$1, %eax
	jmp	.L146
.L145:
	movl	$0, %eax
.L146:
	testb	%al, %al
	je	.L147
	movq	%rbp, %rax
	leaq	.LC8(%rip), %rdx
	movq	%rax, %rcx
	call	_ZNSt7__cxx1112basic_stringIcSt11char_traitsIcESaIcEEaSEPKc
	movq	776(%rbp), %rax
	leaq	40(%rax), %rdx
	leaq	304(%rbp), %rax
	movq	%rdx, %r8
	leaq	.LC18(%rip), %rdx
	movq	%rax, %rcx
	call	_ZStplIcSt11char_traitsIcESaIcEENSt7__cxx1112basic_stringIT_T0_T1_EEPKS5_RKS8_
.LEHE16:
	leaq	272(%rbp), %rax
	leaq	304(%rbp), %rdx
	leaq	.LC18(%rip), %r8
	movq	%rax, %rcx
.LEHB17:
	call	_ZStplIcSt11char_traitsIcESaIcEENSt7__cxx1112basic_stringIT_T0_T1_EEOS8_PKS5_
.LEHE17:
	leaq	272(%rbp), %rdx
	leaq	-32(%rbp), %rax
	movq	%rax, %rcx
	call	_ZNSt7__cxx1112basic_stringIcSt11char_traitsIcESaIcEEaSEOS4_
	leaq	272(%rbp), %rax
	movq	%rax, %rcx
	call	_ZNSt7__cxx1112basic_stringIcSt11char_traitsIcESaIcEED1Ev
	leaq	304(%rbp), %rax
	movq	%rax, %rcx
	call	_ZNSt7__cxx1112basic_stringIcSt11char_traitsIcESaIcEED1Ev
	jmp	.L152
.L147:
	movq	776(%rbp), %rax
	leaq	40(%rax), %rdx
	movq	776(%rbp), %rax
	movq	%rax, %rcx
	call	_ZN13VarAssignNode9isNumericERKNSt7__cxx1112basic_stringIcSt11char_traitsIcESaIcEEE
	testb	%al, %al
	je	.L148
	movq	776(%rbp), %rax
	addq	$40, %rax
	movl	$10, %r8d
	movl	$0, %edx
	movq	%rax, %rcx
.LEHB18:
	call	_ZNSt7__cxx116stoullERKNS_12basic_stringIcSt11char_traitsIcESaIcEEEPyi
	movq	%rax, 728(%rbp)
	cmpq	$255, 728(%rbp)
	ja	.L149
	movq	%rbp, %rax
	leaq	.LC19(%rip), %rdx
	movq	%rax, %rcx
	call	_ZNSt7__cxx1112basic_stringIcSt11char_traitsIcESaIcEEaSEPKc
	jmp	.L134
.L149:
	cmpq	$65535, 728(%rbp)
	ja	.L150
	movq	%rbp, %rax
	leaq	.LC20(%rip), %rdx
	movq	%rax, %rcx
	call	_ZNSt7__cxx1112basic_stringIcSt11char_traitsIcESaIcEEaSEPKc
	jmp	.L134
.L150:
	movl	$4294967295, %eax
	cmpq	728(%rbp), %rax
	jb	.L151
	movq	%rbp, %rax
	leaq	.LC21(%rip), %rdx
	movq	%rax, %rcx
	call	_ZNSt7__cxx1112basic_stringIcSt11char_traitsIcESaIcEEaSEPKc
	jmp	.L134
.L151:
	movq	%rbp, %rax
	leaq	.LC22(%rip), %rdx
	movq	%rax, %rcx
	call	_ZNSt7__cxx1112basic_stringIcSt11char_traitsIcESaIcEEaSEPKc
.LEHE18:
	jmp	.L134
.L148:
	movq	%rbp, %rax
	leaq	.LC2(%rip), %rdx
	movq	%rax, %rcx
.LEHB19:
	call	_ZNSt7__cxx1112basic_stringIcSt11char_traitsIcESaIcEEaSEPKc
.L134:
	jmp	.L152
.L156:
	leaq	-32(%rbp), %rax
	movq	%rax, %rcx
	call	_ZNSt7__cxx1112basic_stringIcSt11char_traitsIcESaIcEE8pop_backEv
.L152:
	leaq	-32(%rbp), %rax
	movq	%rax, %rcx
	call	_ZNKSt7__cxx1112basic_stringIcSt11char_traitsIcESaIcEE5emptyEv
	xorl	$1, %eax
	testb	%al, %al
	je	.L153
	leaq	-32(%rbp), %rax
	movq	%rax, %rcx
	call	_ZNSt7__cxx1112basic_stringIcSt11char_traitsIcESaIcEE4backEv
	movzbl	(%rax), %eax
	cmpb	$10, %al
	je	.L154
	leaq	-32(%rbp), %rax
	movq	%rax, %rcx
	call	_ZNSt7__cxx1112basic_stringIcSt11char_traitsIcESaIcEE4backEv
	movzbl	(%rax), %eax
	cmpb	$59, %al
	je	.L154
	leaq	-32(%rbp), %rax
	movq	%rax, %rcx
	call	_ZNSt7__cxx1112basic_stringIcSt11char_traitsIcESaIcEE4backEv
	movzbl	(%rax), %eax
	cmpb	$32, %al
	jne	.L153
.L154:
	movl	$1, %eax
	jmp	.L155
.L153:
	movl	$0, %eax
.L155:
	testb	%al, %al
	jne	.L156
	movq	776(%rbp), %rax
	addq	$8, %rax
	movq	%rax, %rdx
	leaq	_Z17declaredVariablesB5cxx11(%rip), %rax
	movq	%rax, %rcx
	call	_ZNKSt3setINSt7__cxx1112basic_stringIcSt11char_traitsIcESaIcEEESt4lessIS5_ESaIS5_EE5countERKS5_
	testq	%rax, %rax
	setne	%al
	testb	%al, %al
	je	.L157
	movq	776(%rbp), %rax
	leaq	8(%rax), %rdx
	leaq	368(%rbp), %rax
	leaq	.LC23(%rip), %r8
	movq	%rax, %rcx
	call	_ZStplIcSt11char_traitsIcESaIcEENSt7__cxx1112basic_stringIT_T0_T1_EERKS8_PKS5_
.LEHE19:
	leaq	336(%rbp), %rax
	leaq	-32(%rbp), %rcx
	leaq	368(%rbp), %rdx
	movq	%rcx, %r8
	movq	%rax, %rcx
.LEHB20:
	call	_ZStplIcSt11char_traitsIcESaIcEENSt7__cxx1112basic_stringIT_T0_T1_EEOS8_RKS8_
.LEHE20:
	movq	768(%rbp), %rax
	leaq	336(%rbp), %rdx
	leaq	.LC24(%rip), %r8
	movq	%rax, %rcx
.LEHB21:
	call	_ZStplIcSt11char_traitsIcESaIcEENSt7__cxx1112basic_stringIT_T0_T1_EEOS8_PKS5_
.LEHE21:
	nop
	leaq	336(%rbp), %rax
	movq	%rax, %rcx
	call	_ZNSt7__cxx1112basic_stringIcSt11char_traitsIcESaIcEED1Ev
	leaq	368(%rbp), %rax
	movq	%rax, %rcx
	call	_ZNSt7__cxx1112basic_stringIcSt11char_traitsIcESaIcEED1Ev
	jmp	.L132
.L157:
	movq	776(%rbp), %rax
	leaq	8(%rax), %rdx
	leaq	400(%rbp), %rax
	movq	%rdx, %r8
	leaq	_Z17declaredVariablesB5cxx11(%rip), %rdx
	movq	%rax, %rcx
.LEHB22:
	call	_ZNSt3setINSt7__cxx1112basic_stringIcSt11char_traitsIcESaIcEEESt4lessIS5_ESaIS5_EE6insertERKS5_
	movq	776(%rbp), %rax
	addq	$8, %rax
	movq	%rax, %rdx
	leaq	_Z19reassignedVariablesB5cxx11(%rip), %rax
	movq	%rax, %rcx
	call	_ZNKSt3setINSt7__cxx1112basic_stringIcSt11char_traitsIcESaIcEEESt4lessIS5_ESaIS5_EE5countERKS5_
	testq	%rax, %rax
	jne	.L158
	movq	%rbp, %rax
	movl	$0, %r8d
	leaq	.LC25(%rip), %rdx
	movq	%rax, %rcx
	call	_ZNKSt7__cxx1112basic_stringIcSt11char_traitsIcESaIcEE4findEPKcy
	cmpq	$-1, %rax
	jne	.L158
	movl	$1, %eax
	jmp	.L159
.L158:
	movl	$0, %eax
.L159:
	testb	%al, %al
	je	.L160
	movq	776(%rbp), %rax
	leaq	8(%rax), %rbx
	leaq	544(%rbp), %rax
	movq	%rbp, %rdx
	movq	%rdx, %r8
	leaq	.LC26(%rip), %rdx
	movq	%rax, %rcx
	call	_ZStplIcSt11char_traitsIcESaIcEENSt7__cxx1112basic_stringIT_T0_T1_EEPKS5_RKS8_
.LEHE22:
	leaq	512(%rbp), %rax
	leaq	544(%rbp), %rdx
	leaq	.LC5(%rip), %r8
	movq	%rax, %rcx
.LEHB23:
	call	_ZStplIcSt11char_traitsIcESaIcEENSt7__cxx1112basic_stringIT_T0_T1_EEOS8_PKS5_
.LEHE23:
	leaq	480(%rbp), %rax
	leaq	512(%rbp), %rdx
	movq	%rbx, %r8
	movq	%rax, %rcx
.LEHB24:
	call	_ZStplIcSt11char_traitsIcESaIcEENSt7__cxx1112basic_stringIT_T0_T1_EEOS8_RKS8_
.LEHE24:
	leaq	448(%rbp), %rax
	leaq	480(%rbp), %rdx
	leaq	.LC23(%rip), %r8
	movq	%rax, %rcx
.LEHB25:
	call	_ZStplIcSt11char_traitsIcESaIcEENSt7__cxx1112basic_stringIT_T0_T1_EEOS8_PKS5_
.LEHE25:
	leaq	416(%rbp), %rax
	leaq	-32(%rbp), %rcx
	leaq	448(%rbp), %rdx
	movq	%rcx, %r8
	movq	%rax, %rcx
.LEHB26:
	call	_ZStplIcSt11char_traitsIcESaIcEENSt7__cxx1112basic_stringIT_T0_T1_EEOS8_RKS8_
.LEHE26:
	movq	768(%rbp), %rax
	leaq	416(%rbp), %rdx
	leaq	.LC6(%rip), %r8
	movq	%rax, %rcx
.LEHB27:
	call	_ZStplIcSt11char_traitsIcESaIcEENSt7__cxx1112basic_stringIT_T0_T1_EEOS8_PKS5_
.LEHE27:
	nop
	leaq	416(%rbp), %rax
	movq	%rax, %rcx
	call	_ZNSt7__cxx1112basic_stringIcSt11char_traitsIcESaIcEED1Ev
	leaq	448(%rbp), %rax
	movq	%rax, %rcx
	call	_ZNSt7__cxx1112basic_stringIcSt11char_traitsIcESaIcEED1Ev
	leaq	480(%rbp), %rax
	movq	%rax, %rcx
	call	_ZNSt7__cxx1112basic_stringIcSt11char_traitsIcESaIcEED1Ev
	leaq	512(%rbp), %rax
	movq	%rax, %rcx
	call	_ZNSt7__cxx1112basic_stringIcSt11char_traitsIcESaIcEED1Ev
	leaq	544(%rbp), %rax
	movq	%rax, %rcx
	call	_ZNSt7__cxx1112basic_stringIcSt11char_traitsIcESaIcEED1Ev
	jmp	.L132
.L160:
	movq	776(%rbp), %rax
	leaq	8(%rax), %rbx
	leaq	672(%rbp), %rax
	movq	%rbp, %rdx
	leaq	.LC5(%rip), %r8
	movq	%rax, %rcx
.LEHB28:
	call	_ZStplIcSt11char_traitsIcESaIcEENSt7__cxx1112basic_stringIT_T0_T1_EERKS8_PKS5_
.LEHE28:
	leaq	640(%rbp), %rax
	leaq	672(%rbp), %rdx
	movq	%rbx, %r8
	movq	%rax, %rcx
.LEHB29:
	call	_ZStplIcSt11char_traitsIcESaIcEENSt7__cxx1112basic_stringIT_T0_T1_EEOS8_RKS8_
.LEHE29:
	leaq	608(%rbp), %rax
	leaq	640(%rbp), %rdx
	leaq	.LC23(%rip), %r8
	movq	%rax, %rcx
.LEHB30:
	call	_ZStplIcSt11char_traitsIcESaIcEENSt7__cxx1112basic_stringIT_T0_T1_EEOS8_PKS5_
.LEHE30:
	leaq	576(%rbp), %rax
	leaq	-32(%rbp), %rcx
	leaq	608(%rbp), %rdx
	movq	%rcx, %r8
	movq	%rax, %rcx
.LEHB31:
	call	_ZStplIcSt11char_traitsIcESaIcEENSt7__cxx1112basic_stringIT_T0_T1_EEOS8_RKS8_
.LEHE31:
	movq	768(%rbp), %rax
	leaq	576(%rbp), %rdx
	leaq	.LC6(%rip), %r8
	movq	%rax, %rcx
.LEHB32:
	call	_ZStplIcSt11char_traitsIcESaIcEENSt7__cxx1112basic_stringIT_T0_T1_EEOS8_PKS5_
.LEHE32:
	nop
	leaq	576(%rbp), %rax
	movq	%rax, %rcx
	call	_ZNSt7__cxx1112basic_stringIcSt11char_traitsIcESaIcEED1Ev
	leaq	608(%rbp), %rax
	movq	%rax, %rcx
	call	_ZNSt7__cxx1112basic_stringIcSt11char_traitsIcESaIcEED1Ev
	leaq	640(%rbp), %rax
	movq	%rax, %rcx
	call	_ZNSt7__cxx1112basic_stringIcSt11char_traitsIcESaIcEED1Ev
	leaq	672(%rbp), %rax
	movq	%rax, %rcx
	call	_ZNSt7__cxx1112basic_stringIcSt11char_traitsIcESaIcEED1Ev
.L132:
	leaq	-32(%rbp), %rax
	movq	%rax, %rcx
	call	_ZNSt7__cxx1112basic_stringIcSt11char_traitsIcESaIcEED1Ev
	movq	%rbp, %rax
	movq	%rax, %rcx
	call	_ZNSt7__cxx1112basic_stringIcSt11char_traitsIcESaIcEED1Ev
	jmp	.L211
.L187:
	movq	%rax, %rbx
	leaq	47(%rbp), %rax
	movq	%rax, %rcx
	call	_ZNSt15__new_allocatorIcED2Ev
	nop
	movq	%rbx, %rax
	movq	%rax, %rcx
.LEHB33:
	call	_Unwind_Resume
.LEHE33:
.L192:
	movq	%rax, %rbx
	leaq	80(%rbp), %rax
	movq	%rax, %rcx
	call	_ZNSt7__cxx1112basic_stringIcSt11char_traitsIcESaIcEED1Ev
	jmp	.L164
.L191:
	movq	%rax, %rbx
.L164:
	leaq	112(%rbp), %rax
	movq	%rax, %rcx
	call	_ZNSt7__cxx1112basic_stringIcSt11char_traitsIcESaIcEED1Ev
	jmp	.L165
.L195:
	movq	%rax, %rbx
	leaq	144(%rbp), %rax
	movq	%rax, %rcx
	call	_ZNSt7__cxx1112basic_stringIcSt11char_traitsIcESaIcEED1Ev
	jmp	.L167
.L194:
	movq	%rax, %rbx
.L167:
	leaq	176(%rbp), %rax
	movq	%rax, %rcx
	call	_ZNSt7__cxx1112basic_stringIcSt11char_traitsIcESaIcEED1Ev
	jmp	.L168
.L193:
	movq	%rax, %rbx
.L168:
	leaq	208(%rbp), %rax
	movq	%rax, %rcx
	call	_ZNSt7__cxx1112basic_stringIcSt11char_traitsIcESaIcEED1Ev
	jmp	.L165
.L190:
	movq	%rax, %rbx
.L165:
	leaq	-64(%rbp), %rax
	movq	%rax, %rcx
	call	_ZNSt7__cxx1112basic_stringIcSt11char_traitsIcESaIcEED1Ev
	jmp	.L169
.L189:
	movq	%rax, %rbx
.L169:
	leaq	-96(%rbp), %rax
	movq	%rax, %rcx
	call	_ZNSt7__cxx1112basic_stringIcSt11char_traitsIcESaIcEED1Ev
	jmp	.L170
.L197:
	movq	%rax, %rbx
	leaq	304(%rbp), %rax
	movq	%rax, %rcx
	call	_ZNSt7__cxx1112basic_stringIcSt11char_traitsIcESaIcEED1Ev
	jmp	.L170
.L198:
	cmpq	$1, %rdx
	je	.L173
	movq	%rax, %rbx
	jmp	.L170
.L173:
	movq	%rax, %rcx
	call	__cxa_begin_catch
	movq	%rax, 720(%rbp)
	movq	%rbp, %rax
	leaq	.LC22(%rip), %rdx
	movq	%rax, %rcx
.LEHB34:
	call	_ZNSt7__cxx1112basic_stringIcSt11char_traitsIcESaIcEEaSEPKc
.LEHE34:
	call	__cxa_end_catch
	jmp	.L152
.L199:
	movq	%rax, %rbx
	call	__cxa_end_catch
	jmp	.L170
.L201:
	movq	%rax, %rbx
	leaq	336(%rbp), %rax
	movq	%rax, %rcx
	call	_ZNSt7__cxx1112basic_stringIcSt11char_traitsIcESaIcEED1Ev
	jmp	.L176
.L200:
	movq	%rax, %rbx
.L176:
	leaq	368(%rbp), %rax
	movq	%rax, %rcx
	call	_ZNSt7__cxx1112basic_stringIcSt11char_traitsIcESaIcEED1Ev
	jmp	.L170
.L206:
	movq	%rax, %rbx
	leaq	416(%rbp), %rax
	movq	%rax, %rcx
	call	_ZNSt7__cxx1112basic_stringIcSt11char_traitsIcESaIcEED1Ev
	jmp	.L178
.L205:
	movq	%rax, %rbx
.L178:
	leaq	448(%rbp), %rax
	movq	%rax, %rcx
	call	_ZNSt7__cxx1112basic_stringIcSt11char_traitsIcESaIcEED1Ev
	jmp	.L179
.L204:
	movq	%rax, %rbx
.L179:
	leaq	480(%rbp), %rax
	movq	%rax, %rcx
	call	_ZNSt7__cxx1112basic_stringIcSt11char_traitsIcESaIcEED1Ev
	jmp	.L180
.L203:
	movq	%rax, %rbx
.L180:
	leaq	512(%rbp), %rax
	movq	%rax, %rcx
	call	_ZNSt7__cxx1112basic_stringIcSt11char_traitsIcESaIcEED1Ev
	jmp	.L181
.L202:
	movq	%rax, %rbx
.L181:
	leaq	544(%rbp), %rax
	movq	%rax, %rcx
	call	_ZNSt7__cxx1112basic_stringIcSt11char_traitsIcESaIcEED1Ev
	jmp	.L170
.L210:
	movq	%rax, %rbx
	leaq	576(%rbp), %rax
	movq	%rax, %rcx
	call	_ZNSt7__cxx1112basic_stringIcSt11char_traitsIcESaIcEED1Ev
	jmp	.L183
.L209:
	movq	%rax, %rbx
.L183:
	leaq	608(%rbp), %rax
	movq	%rax, %rcx
	call	_ZNSt7__cxx1112basic_stringIcSt11char_traitsIcESaIcEED1Ev
	jmp	.L184
.L208:
	movq	%rax, %rbx
.L184:
	leaq	640(%rbp), %rax
	movq	%rax, %rcx
	call	_ZNSt7__cxx1112basic_stringIcSt11char_traitsIcESaIcEED1Ev
	jmp	.L185
.L207:
	movq	%rax, %rbx
.L185:
	leaq	672(%rbp), %rax
	movq	%rax, %rcx
	call	_ZNSt7__cxx1112basic_stringIcSt11char_traitsIcESaIcEED1Ev
	jmp	.L170
.L196:
	movq	%rax, %rbx
.L170:
	leaq	-32(%rbp), %rax
	movq	%rax, %rcx
	call	_ZNSt7__cxx1112basic_stringIcSt11char_traitsIcESaIcEED1Ev
	jmp	.L186
.L188:
	movq	%rax, %rbx
.L186:
	movq	%rbp, %rax
	movq	%rax, %rcx
	call	_ZNSt7__cxx1112basic_stringIcSt11char_traitsIcESaIcEED1Ev
	movq	%rbx, %rax
	movq	%rax, %rcx
.LEHB35:
	call	_Unwind_Resume
.LEHE35:
.L211:
	movq	768(%rbp), %rax
	addq	$872, %rsp
	popq	%rbx
	popq	%rbp
	ret
	.seh_handler	__gxx_personality_seh0, @unwind, @except
	.seh_handlerdata
	.align 4
.LLSDA3929:
	.byte	0xff
	.byte	0x9b
	.uleb128 .LLSDATT3929-.LLSDATTD3929
.LLSDATTD3929:
	.byte	0x1
	.uleb128 .LLSDACSE3929-.LLSDACSB3929
.LLSDACSB3929:
	.uleb128 .LEHB5-.LFB3929
	.uleb128 .LEHE5-.LEHB5
	.uleb128 .L187-.LFB3929
	.uleb128 0
	.uleb128 .LEHB6-.LFB3929
	.uleb128 .LEHE6-.LEHB6
	.uleb128 .L188-.LFB3929
	.uleb128 0
	.uleb128 .LEHB7-.LFB3929
	.uleb128 .LEHE7-.LEHB7
	.uleb128 .L196-.LFB3929
	.uleb128 0
	.uleb128 .LEHB8-.LFB3929
	.uleb128 .LEHE8-.LEHB8
	.uleb128 .L189-.LFB3929
	.uleb128 0
	.uleb128 .LEHB9-.LFB3929
	.uleb128 .LEHE9-.LEHB9
	.uleb128 .L190-.LFB3929
	.uleb128 0
	.uleb128 .LEHB10-.LFB3929
	.uleb128 .LEHE10-.LEHB10
	.uleb128 .L191-.LFB3929
	.uleb128 0
	.uleb128 .LEHB11-.LFB3929
	.uleb128 .LEHE11-.LEHB11
	.uleb128 .L192-.LFB3929
	.uleb128 0
	.uleb128 .LEHB12-.LFB3929
	.uleb128 .LEHE12-.LEHB12
	.uleb128 .L190-.LFB3929
	.uleb128 0
	.uleb128 .LEHB13-.LFB3929
	.uleb128 .LEHE13-.LEHB13
	.uleb128 .L193-.LFB3929
	.uleb128 0
	.uleb128 .LEHB14-.LFB3929
	.uleb128 .LEHE14-.LEHB14
	.uleb128 .L194-.LFB3929
	.uleb128 0
	.uleb128 .LEHB15-.LFB3929
	.uleb128 .LEHE15-.LEHB15
	.uleb128 .L195-.LFB3929
	.uleb128 0
	.uleb128 .LEHB16-.LFB3929
	.uleb128 .LEHE16-.LEHB16
	.uleb128 .L196-.LFB3929
	.uleb128 0
	.uleb128 .LEHB17-.LFB3929
	.uleb128 .LEHE17-.LEHB17
	.uleb128 .L197-.LFB3929
	.uleb128 0
	.uleb128 .LEHB18-.LFB3929
	.uleb128 .LEHE18-.LEHB18
	.uleb128 .L198-.LFB3929
	.uleb128 0x3
	.uleb128 .LEHB19-.LFB3929
	.uleb128 .LEHE19-.LEHB19
	.uleb128 .L196-.LFB3929
	.uleb128 0
	.uleb128 .LEHB20-.LFB3929
	.uleb128 .LEHE20-.LEHB20
	.uleb128 .L200-.LFB3929
	.uleb128 0
	.uleb128 .LEHB21-.LFB3929
	.uleb128 .LEHE21-.LEHB21
	.uleb128 .L201-.LFB3929
	.uleb128 0
	.uleb128 .LEHB22-.LFB3929
	.uleb128 .LEHE22-.LEHB22
	.uleb128 .L196-.LFB3929
	.uleb128 0
	.uleb128 .LEHB23-.LFB3929
	.uleb128 .LEHE23-.LEHB23
	.uleb128 .L202-.LFB3929
	.uleb128 0
	.uleb128 .LEHB24-.LFB3929
	.uleb128 .LEHE24-.LEHB24
	.uleb128 .L203-.LFB3929
	.uleb128 0
	.uleb128 .LEHB25-.LFB3929
	.uleb128 .LEHE25-.LEHB25
	.uleb128 .L204-.LFB3929
	.uleb128 0
	.uleb128 .LEHB26-.LFB3929
	.uleb128 .LEHE26-.LEHB26
	.uleb128 .L205-.LFB3929
	.uleb128 0
	.uleb128 .LEHB27-.LFB3929
	.uleb128 .LEHE27-.LEHB27
	.uleb128 .L206-.LFB3929
	.uleb128 0
	.uleb128 .LEHB28-.LFB3929
	.uleb128 .LEHE28-.LEHB28
	.uleb128 .L196-.LFB3929
	.uleb128 0
	.uleb128 .LEHB29-.LFB3929
	.uleb128 .LEHE29-.LEHB29
	.uleb128 .L207-.LFB3929
	.uleb128 0
	.uleb128 .LEHB30-.LFB3929
	.uleb128 .LEHE30-.LEHB30
	.uleb128 .L208-.LFB3929
	.uleb128 0
	.uleb128 .LEHB31-.LFB3929
	.uleb128 .LEHE31-.LEHB31
	.uleb128 .L209-.LFB3929
	.uleb128 0
	.uleb128 .LEHB32-.LFB3929
	.uleb128 .LEHE32-.LEHB32
	.uleb128 .L210-.LFB3929
	.uleb128 0
	.uleb128 .LEHB33-.LFB3929
	.uleb128 .LEHE33-.LEHB33
	.uleb128 0
	.uleb128 0
	.uleb128 .LEHB34-.LFB3929
	.uleb128 .LEHE34-.LEHB34
	.uleb128 .L199-.LFB3929
	.uleb128 0
	.uleb128 .LEHB35-.LFB3929
	.uleb128 .LEHE35-.LEHB35
	.uleb128 0
	.uleb128 0
.LLSDACSE3929:
	.byte	0
	.byte	0
	.byte	0x1
	.byte	0x7d
	.align 4
	.long	.LDFCM0-.
.LLSDATT3929:
	.section	.text$_ZN13VarAssignNode5toCppB5cxx11Ev,"x"
	.linkonce discard
	.seh_endproc
	.section	.text$_ZNSt12_Vector_baseISt10unique_ptrI7ASTNodeSt14default_deleteIS1_EESaIS4_EE12_Vector_implD1Ev,"x"
	.linkonce discard
	.align 2
	.globl	_ZNSt12_Vector_baseISt10unique_ptrI7ASTNodeSt14default_deleteIS1_EESaIS4_EE12_Vector_implD1Ev
	.def	_ZNSt12_Vector_baseISt10unique_ptrI7ASTNodeSt14default_deleteIS1_EESaIS4_EE12_Vector_implD1Ev;	.scl	2;	.type	32;	.endef
	.seh_proc	_ZNSt12_Vector_baseISt10unique_ptrI7ASTNodeSt14default_deleteIS1_EESaIS4_EE12_Vector_implD1Ev
_ZNSt12_Vector_baseISt10unique_ptrI7ASTNodeSt14default_deleteIS1_EESaIS4_EE12_Vector_implD1Ev:
.LFB3939:
	pushq	%rbp
	.seh_pushreg	%rbp
	movq	%rsp, %rbp
	.seh_setframe	%rbp, 0
	subq	$48, %rsp
	.seh_stackalloc	48
	.seh_endprologue
	movq	%rcx, 16(%rbp)
	movq	16(%rbp), %rax
	movq	%rax, -8(%rbp)
	movq	-8(%rbp), %rax
	movq	%rax, %rcx
	call	_ZNSt15__new_allocatorISt10unique_ptrI7ASTNodeSt14default_deleteIS1_EEED2Ev
	nop
	nop
	addq	$48, %rsp
	popq	%rbp
	ret
	.seh_endproc
	.section	.text$_ZNSt12_Vector_baseISt10unique_ptrI7ASTNodeSt14default_deleteIS1_EESaIS4_EEC2EOS6_,"x"
	.linkonce discard
	.align 2
	.globl	_ZNSt12_Vector_baseISt10unique_ptrI7ASTNodeSt14default_deleteIS1_EESaIS4_EEC2EOS6_
	.def	_ZNSt12_Vector_baseISt10unique_ptrI7ASTNodeSt14default_deleteIS1_EESaIS4_EEC2EOS6_;	.scl	2;	.type	32;	.endef
	.seh_proc	_ZNSt12_Vector_baseISt10unique_ptrI7ASTNodeSt14default_deleteIS1_EESaIS4_EEC2EOS6_
_ZNSt12_Vector_baseISt10unique_ptrI7ASTNodeSt14default_deleteIS1_EESaIS4_EEC2EOS6_:
.LFB3940:
	pushq	%rbp
	.seh_pushreg	%rbp
	movq	%rsp, %rbp
	.seh_setframe	%rbp, 0
	subq	$32, %rsp
	.seh_stackalloc	32
	.seh_endprologue
	movq	%rcx, 16(%rbp)
	movq	%rdx, 24(%rbp)
	movq	16(%rbp), %rax
	movq	24(%rbp), %rdx
	movq	%rax, %rcx
	call	_ZNSt12_Vector_baseISt10unique_ptrI7ASTNodeSt14default_deleteIS1_EESaIS4_EE12_Vector_implC1EOS7_
	nop
	addq	$32, %rsp
	popq	%rbp
	ret
	.seh_endproc
	.section	.text$_ZNSt6vectorISt10unique_ptrI7ASTNodeSt14default_deleteIS1_EESaIS4_EEC1EOS6_,"x"
	.linkonce discard
	.align 2
	.globl	_ZNSt6vectorISt10unique_ptrI7ASTNodeSt14default_deleteIS1_EESaIS4_EEC1EOS6_
	.def	_ZNSt6vectorISt10unique_ptrI7ASTNodeSt14default_deleteIS1_EESaIS4_EEC1EOS6_;	.scl	2;	.type	32;	.endef
	.seh_proc	_ZNSt6vectorISt10unique_ptrI7ASTNodeSt14default_deleteIS1_EESaIS4_EEC1EOS6_
_ZNSt6vectorISt10unique_ptrI7ASTNodeSt14default_deleteIS1_EESaIS4_EEC1EOS6_:
.LFB3943:
	pushq	%rbp
	.seh_pushreg	%rbp
	movq	%rsp, %rbp
	.seh_setframe	%rbp, 0
	subq	$32, %rsp
	.seh_stackalloc	32
	.seh_endprologue
	movq	%rcx, 16(%rbp)
	movq	%rdx, 24(%rbp)
	movq	16(%rbp), %rax
	movq	24(%rbp), %rdx
	movq	%rax, %rcx
	call	_ZNSt12_Vector_baseISt10unique_ptrI7ASTNodeSt14default_deleteIS1_EESaIS4_EEC2EOS6_
	nop
	addq	$32, %rsp
	popq	%rbp
	ret
	.seh_endproc
	.section	.text$_ZN12FunctionNodeC1ERKNSt7__cxx1112basic_stringIcSt11char_traitsIcESaIcEEESt6vectorISt10unique_ptrI7ASTNodeSt14default_deleteISA_EESaISD_EE,"x"
	.linkonce discard
	.align 2
	.globl	_ZN12FunctionNodeC1ERKNSt7__cxx1112basic_stringIcSt11char_traitsIcESaIcEEESt6vectorISt10unique_ptrI7ASTNodeSt14default_deleteISA_EESaISD_EE
	.def	_ZN12FunctionNodeC1ERKNSt7__cxx1112basic_stringIcSt11char_traitsIcESaIcEEESt6vectorISt10unique_ptrI7ASTNodeSt14default_deleteISA_EESaISD_EE;	.scl	2;	.type	32;	.endef
	.seh_proc	_ZN12FunctionNodeC1ERKNSt7__cxx1112basic_stringIcSt11char_traitsIcESaIcEEESt6vectorISt10unique_ptrI7ASTNodeSt14default_deleteISA_EESaISD_EE
_ZN12FunctionNodeC1ERKNSt7__cxx1112basic_stringIcSt11char_traitsIcESaIcEEESt6vectorISt10unique_ptrI7ASTNodeSt14default_deleteISA_EESaISD_EE:
.LFB3945:
	pushq	%rbp
	.seh_pushreg	%rbp
	pushq	%rbx
	.seh_pushreg	%rbx
	subq	$40, %rsp
	.seh_stackalloc	40
	leaq	32(%rsp), %rbp
	.seh_setframe	%rbp, 32
	.seh_endprologue
	movq	%rcx, 32(%rbp)
	movq	%rdx, 40(%rbp)
	movq	%r8, 48(%rbp)
	movq	32(%rbp), %rax
	movq	%rax, %rcx
	call	_ZN7ASTNodeC2Ev
	leaq	16+_ZTV12FunctionNode(%rip), %rdx
	movq	32(%rbp), %rax
	movq	%rdx, (%rax)
	movq	32(%rbp), %rax
	leaq	8(%rax), %rcx
	movq	40(%rbp), %rax
	movq	%rax, %rdx
.LEHB36:
	call	_ZNSt7__cxx1112basic_stringIcSt11char_traitsIcESaIcEEC1ERKS4_
.LEHE36:
	movq	32(%rbp), %rax
	leaq	40(%rax), %rbx
	movq	48(%rbp), %rax
	movq	%rax, %rcx
	call	_ZSt4moveIRSt6vectorISt10unique_ptrI7ASTNodeSt14default_deleteIS2_EESaIS5_EEEONSt16remove_referenceIT_E4typeEOSA_
	movq	%rax, %rdx
	movq	%rbx, %rcx
	call	_ZNSt6vectorISt10unique_ptrI7ASTNodeSt14default_deleteIS1_EESaIS4_EEC1EOS6_
	jmp	.L218
.L217:
	movq	%rax, %rbx
	movq	32(%rbp), %rax
	movq	%rax, %rcx
	call	_ZN7ASTNodeD2Ev
	movq	%rbx, %rax
	movq	%rax, %rcx
.LEHB37:
	call	_Unwind_Resume
	nop
.LEHE37:
.L218:
	addq	$40, %rsp
	popq	%rbx
	popq	%rbp
	ret
	.seh_handler	__gxx_personality_seh0, @unwind, @except
	.seh_handlerdata
.LLSDA3945:
	.byte	0xff
	.byte	0xff
	.byte	0x1
	.uleb128 .LLSDACSE3945-.LLSDACSB3945
.LLSDACSB3945:
	.uleb128 .LEHB36-.LFB3945
	.uleb128 .LEHE36-.LEHB36
	.uleb128 .L217-.LFB3945
	.uleb128 0
	.uleb128 .LEHB37-.LFB3945
	.uleb128 .LEHE37-.LEHB37
	.uleb128 0
	.uleb128 0
.LLSDACSE3945:
	.section	.text$_ZN12FunctionNodeC1ERKNSt7__cxx1112basic_stringIcSt11char_traitsIcESaIcEEESt6vectorISt10unique_ptrI7ASTNodeSt14default_deleteISA_EESaISD_EE,"x"
	.linkonce discard
	.seh_endproc
	.section .rdata,"dr"
.LC27:
	.ascii "start\0"
.LC28:
	.ascii "setup\0"
.LC29:
	.ascii "void \0"
.LC30:
	.ascii "() {\12\0"
.LC31:
	.ascii "    pinMode(\0"
.LC32:
	.ascii ", INPUT);\12\0"
.LC33:
	.ascii ", OUTPUT);\12\0"
.LC34:
	.ascii "\12\0"
.LC35:
	.ascii "    \0"
.LC36:
	.ascii "}\0"
	.section	.text$_ZN12FunctionNode5toCppB5cxx11Ev,"x"
	.linkonce discard
	.align 2
	.globl	_ZN12FunctionNode5toCppB5cxx11Ev
	.def	_ZN12FunctionNode5toCppB5cxx11Ev;	.scl	2;	.type	32;	.endef
	.seh_proc	_ZN12FunctionNode5toCppB5cxx11Ev
_ZN12FunctionNode5toCppB5cxx11Ev:
.LFB3946:
	pushq	%rbp
	.seh_pushreg	%rbp
	pushq	%rbx
	.seh_pushreg	%rbx
	subq	$392, %rsp
	.seh_stackalloc	392
	leaq	128(%rsp), %rbp
	.seh_setframe	%rbp, 128
	.seh_endprologue
	movq	%rcx, 288(%rbp)
	movq	%rdx, 296(%rbp)
	movq	296(%rbp), %rax
	addq	$8, %rax
	leaq	.LC27(%rip), %rdx
	movq	%rax, %rcx
.LEHB38:
	call	_ZSteqIcSt11char_traitsIcESaIcEEbRKNSt7__cxx1112basic_stringIT_T0_T1_EEPKS5_
	testb	%al, %al
	je	.L220
	movq	296(%rbp), %rax
	addq	$8, %rax
	leaq	.LC28(%rip), %rdx
	movq	%rax, %rcx
	call	_ZNSt7__cxx1112basic_stringIcSt11char_traitsIcESaIcEEaSEPKc
.L220:
	movq	296(%rbp), %rax
	leaq	8(%rax), %rdx
	leaq	-48(%rbp), %rax
	movq	%rdx, %r8
	leaq	.LC29(%rip), %rdx
	movq	%rax, %rcx
	call	_ZStplIcSt11char_traitsIcESaIcEENSt7__cxx1112basic_stringIT_T0_T1_EEPKS5_RKS8_
.LEHE38:
	movq	288(%rbp), %rax
	leaq	-48(%rbp), %rdx
	leaq	.LC30(%rip), %r8
	movq	%rax, %rcx
.LEHB39:
	call	_ZStplIcSt11char_traitsIcESaIcEENSt7__cxx1112basic_stringIT_T0_T1_EEOS8_PKS5_
.LEHE39:
	leaq	-48(%rbp), %rax
	movq	%rax, %rcx
	call	_ZNSt7__cxx1112basic_stringIcSt11char_traitsIcESaIcEED1Ev
	movq	296(%rbp), %rax
	addq	$8, %rax
	leaq	.LC28(%rip), %rdx
	movq	%rax, %rcx
.LEHB40:
	call	_ZSteqIcSt11char_traitsIcESaIcEEbRKNSt7__cxx1112basic_stringIT_T0_T1_EEPKS5_
	testb	%al, %al
	je	.L221
	leaq	_Z9inputPinsB5cxx11(%rip), %rax
	movq	%rax, 248(%rbp)
	movq	248(%rbp), %rax
	movq	%rax, %rcx
	call	_ZNKSt3setINSt7__cxx1112basic_stringIcSt11char_traitsIcESaIcEEESt4lessIS5_ESaIS5_EE5beginEv
	movq	%rax, -56(%rbp)
	movq	248(%rbp), %rax
	movq	%rax, %rcx
	call	_ZNKSt3setINSt7__cxx1112basic_stringIcSt11char_traitsIcESaIcEEESt4lessIS5_ESaIS5_EE3endEv
	movq	%rax, -64(%rbp)
	jmp	.L222
.L223:
	leaq	-56(%rbp), %rax
	movq	%rax, %rcx
	call	_ZNKSt23_Rb_tree_const_iteratorINSt7__cxx1112basic_stringIcSt11char_traitsIcESaIcEEEEdeEv
	movq	%rax, 224(%rbp)
	leaq	16(%rbp), %rax
	movq	224(%rbp), %rdx
	movq	%rdx, %r8
	leaq	.LC31(%rip), %rdx
	movq	%rax, %rcx
	call	_ZStplIcSt11char_traitsIcESaIcEENSt7__cxx1112basic_stringIT_T0_T1_EEPKS5_RKS8_
.LEHE40:
	leaq	-16(%rbp), %rax
	leaq	16(%rbp), %rdx
	leaq	.LC32(%rip), %r8
	movq	%rax, %rcx
.LEHB41:
	call	_ZStplIcSt11char_traitsIcESaIcEENSt7__cxx1112basic_stringIT_T0_T1_EEOS8_PKS5_
.LEHE41:
	leaq	-16(%rbp), %rdx
	movq	288(%rbp), %rax
	movq	%rax, %rcx
.LEHB42:
	call	_ZNSt7__cxx1112basic_stringIcSt11char_traitsIcESaIcEEpLERKS4_
.LEHE42:
	leaq	-16(%rbp), %rax
	movq	%rax, %rcx
	call	_ZNSt7__cxx1112basic_stringIcSt11char_traitsIcESaIcEED1Ev
	leaq	16(%rbp), %rax
	movq	%rax, %rcx
	call	_ZNSt7__cxx1112basic_stringIcSt11char_traitsIcESaIcEED1Ev
	leaq	-56(%rbp), %rax
	movq	%rax, %rcx
	call	_ZNSt23_Rb_tree_const_iteratorINSt7__cxx1112basic_stringIcSt11char_traitsIcESaIcEEEEppEv
.L222:
	leaq	-64(%rbp), %rdx
	leaq	-56(%rbp), %rax
	movq	%rax, %rcx
	call	_ZStneRKSt23_Rb_tree_const_iteratorINSt7__cxx1112basic_stringIcSt11char_traitsIcESaIcEEEES8_
	testb	%al, %al
	jne	.L223
	leaq	_Z10outputPinsB5cxx11(%rip), %rax
	movq	%rax, 240(%rbp)
	movq	240(%rbp), %rax
	movq	%rax, %rcx
	call	_ZNKSt3setINSt7__cxx1112basic_stringIcSt11char_traitsIcESaIcEEESt4lessIS5_ESaIS5_EE5beginEv
	movq	%rax, -72(%rbp)
	movq	240(%rbp), %rax
	movq	%rax, %rcx
	call	_ZNKSt3setINSt7__cxx1112basic_stringIcSt11char_traitsIcESaIcEEESt4lessIS5_ESaIS5_EE3endEv
	movq	%rax, -80(%rbp)
	jmp	.L224
.L226:
	leaq	-72(%rbp), %rax
	movq	%rax, %rcx
	call	_ZNKSt23_Rb_tree_const_iteratorINSt7__cxx1112basic_stringIcSt11char_traitsIcESaIcEEEEdeEv
	movq	%rax, 232(%rbp)
	movq	232(%rbp), %rax
	movq	%rax, %rdx
	leaq	_Z9inputPinsB5cxx11(%rip), %rax
	movq	%rax, %rcx
.LEHB43:
	call	_ZNKSt3setINSt7__cxx1112basic_stringIcSt11char_traitsIcESaIcEEESt4lessIS5_ESaIS5_EE5countERKS5_
	testq	%rax, %rax
	sete	%al
	testb	%al, %al
	je	.L225
	leaq	80(%rbp), %rax
	movq	232(%rbp), %rdx
	movq	%rdx, %r8
	leaq	.LC31(%rip), %rdx
	movq	%rax, %rcx
	call	_ZStplIcSt11char_traitsIcESaIcEENSt7__cxx1112basic_stringIT_T0_T1_EEPKS5_RKS8_
.LEHE43:
	leaq	48(%rbp), %rax
	leaq	80(%rbp), %rdx
	leaq	.LC33(%rip), %r8
	movq	%rax, %rcx
.LEHB44:
	call	_ZStplIcSt11char_traitsIcESaIcEENSt7__cxx1112basic_stringIT_T0_T1_EEOS8_PKS5_
.LEHE44:
	leaq	48(%rbp), %rdx
	movq	288(%rbp), %rax
	movq	%rax, %rcx
.LEHB45:
	call	_ZNSt7__cxx1112basic_stringIcSt11char_traitsIcESaIcEEpLERKS4_
.LEHE45:
	leaq	48(%rbp), %rax
	movq	%rax, %rcx
	call	_ZNSt7__cxx1112basic_stringIcSt11char_traitsIcESaIcEED1Ev
	leaq	80(%rbp), %rax
	movq	%rax, %rcx
	call	_ZNSt7__cxx1112basic_stringIcSt11char_traitsIcESaIcEED1Ev
.L225:
	leaq	-72(%rbp), %rax
	movq	%rax, %rcx
	call	_ZNSt23_Rb_tree_const_iteratorINSt7__cxx1112basic_stringIcSt11char_traitsIcESaIcEEEEppEv
.L224:
	leaq	-80(%rbp), %rdx
	leaq	-72(%rbp), %rax
	movq	%rax, %rcx
	call	_ZStneRKSt23_Rb_tree_const_iteratorINSt7__cxx1112basic_stringIcSt11char_traitsIcESaIcEEEES8_
	testb	%al, %al
	jne	.L226
	leaq	_Z9inputPinsB5cxx11(%rip), %rax
	movq	%rax, %rcx
	call	_ZNKSt3setINSt7__cxx1112basic_stringIcSt11char_traitsIcESaIcEEESt4lessIS5_ESaIS5_EE5emptyEv
	xorl	$1, %eax
	testb	%al, %al
	jne	.L227
	leaq	_Z10outputPinsB5cxx11(%rip), %rax
	movq	%rax, %rcx
	call	_ZNKSt3setINSt7__cxx1112basic_stringIcSt11char_traitsIcESaIcEEESt4lessIS5_ESaIS5_EE5emptyEv
	xorl	$1, %eax
	testb	%al, %al
	je	.L228
.L227:
	movl	$1, %eax
	jmp	.L229
.L228:
	movl	$0, %eax
.L229:
	testb	%al, %al
	je	.L221
	movq	288(%rbp), %rax
	leaq	.LC34(%rip), %rdx
	movq	%rax, %rcx
.LEHB46:
	call	_ZNSt7__cxx1112basic_stringIcSt11char_traitsIcESaIcEEpLEPKc
.L221:
	movq	296(%rbp), %rax
	addq	$40, %rax
	movq	%rax, 216(%rbp)
	movq	216(%rbp), %rax
	movq	%rax, %rcx
	call	_ZNSt6vectorISt10unique_ptrI7ASTNodeSt14default_deleteIS1_EESaIS4_EE5beginEv
	movq	%rax, -88(%rbp)
	movq	216(%rbp), %rax
	movq	%rax, %rcx
	call	_ZNSt6vectorISt10unique_ptrI7ASTNodeSt14default_deleteIS1_EESaIS4_EE3endEv
	movq	%rax, -96(%rbp)
	jmp	.L230
.L231:
	leaq	-88(%rbp), %rax
	movq	%rax, %rcx
	call	_ZNK9__gnu_cxx17__normal_iteratorIPSt10unique_ptrI7ASTNodeSt14default_deleteIS2_EESt6vectorIS5_SaIS5_EEEdeEv
	movq	%rax, 208(%rbp)
	movq	208(%rbp), %rax
	movq	%rax, %rcx
	call	_ZNKSt10unique_ptrI7ASTNodeSt14default_deleteIS0_EEptEv
	movq	(%rax), %rdx
	addq	$16, %rdx
	movq	(%rdx), %r8
	leaq	176(%rbp), %rcx
	movq	%rax, %rdx
	call	*%r8
.LEHE46:
	leaq	144(%rbp), %rax
	leaq	176(%rbp), %rdx
	movq	%rdx, %r8
	leaq	.LC35(%rip), %rdx
	movq	%rax, %rcx
.LEHB47:
	call	_ZStplIcSt11char_traitsIcESaIcEENSt7__cxx1112basic_stringIT_T0_T1_EEPKS5_OS8_
.LEHE47:
	leaq	112(%rbp), %rax
	leaq	144(%rbp), %rdx
	leaq	.LC34(%rip), %r8
	movq	%rax, %rcx
.LEHB48:
	call	_ZStplIcSt11char_traitsIcESaIcEENSt7__cxx1112basic_stringIT_T0_T1_EEOS8_PKS5_
.LEHE48:
	leaq	112(%rbp), %rdx
	movq	288(%rbp), %rax
	movq	%rax, %rcx
.LEHB49:
	call	_ZNSt7__cxx1112basic_stringIcSt11char_traitsIcESaIcEEpLERKS4_
.LEHE49:
	leaq	112(%rbp), %rax
	movq	%rax, %rcx
	call	_ZNSt7__cxx1112basic_stringIcSt11char_traitsIcESaIcEED1Ev
	leaq	144(%rbp), %rax
	movq	%rax, %rcx
	call	_ZNSt7__cxx1112basic_stringIcSt11char_traitsIcESaIcEED1Ev
	leaq	176(%rbp), %rax
	movq	%rax, %rcx
	call	_ZNSt7__cxx1112basic_stringIcSt11char_traitsIcESaIcEED1Ev
	leaq	-88(%rbp), %rax
	movq	%rax, %rcx
	call	_ZN9__gnu_cxx17__normal_iteratorIPSt10unique_ptrI7ASTNodeSt14default_deleteIS2_EESt6vectorIS5_SaIS5_EEEppEv
.L230:
	leaq	-96(%rbp), %rdx
	leaq	-88(%rbp), %rax
	movq	%rax, %rcx
	call	_ZN9__gnu_cxxneIPSt10unique_ptrI7ASTNodeSt14default_deleteIS2_EESt6vectorIS5_SaIS5_EEEEbRKNS_17__normal_iteratorIT_T0_EESF_
	testb	%al, %al
	jne	.L231
	movq	288(%rbp), %rax
	leaq	.LC36(%rip), %rdx
	movq	%rax, %rcx
.LEHB50:
	call	_ZNSt7__cxx1112basic_stringIcSt11char_traitsIcESaIcEEpLEPKc
.LEHE50:
	jmp	.L251
.L242:
	movq	%rax, %rbx
	leaq	-48(%rbp), %rax
	movq	%rax, %rcx
	call	_ZNSt7__cxx1112basic_stringIcSt11char_traitsIcESaIcEED1Ev
	movq	%rbx, %rax
	movq	%rax, %rcx
.LEHB51:
	call	_Unwind_Resume
.L245:
	movq	%rax, %rbx
	leaq	-16(%rbp), %rax
	movq	%rax, %rcx
	call	_ZNSt7__cxx1112basic_stringIcSt11char_traitsIcESaIcEED1Ev
	jmp	.L235
.L244:
	movq	%rax, %rbx
.L235:
	leaq	16(%rbp), %rax
	movq	%rax, %rcx
	call	_ZNSt7__cxx1112basic_stringIcSt11char_traitsIcESaIcEED1Ev
	jmp	.L236
.L247:
	movq	%rax, %rbx
	leaq	48(%rbp), %rax
	movq	%rax, %rcx
	call	_ZNSt7__cxx1112basic_stringIcSt11char_traitsIcESaIcEED1Ev
	jmp	.L238
.L246:
	movq	%rax, %rbx
.L238:
	leaq	80(%rbp), %rax
	movq	%rax, %rcx
	call	_ZNSt7__cxx1112basic_stringIcSt11char_traitsIcESaIcEED1Ev
	jmp	.L236
.L250:
	movq	%rax, %rbx
	leaq	112(%rbp), %rax
	movq	%rax, %rcx
	call	_ZNSt7__cxx1112basic_stringIcSt11char_traitsIcESaIcEED1Ev
	jmp	.L240
.L249:
	movq	%rax, %rbx
.L240:
	leaq	144(%rbp), %rax
	movq	%rax, %rcx
	call	_ZNSt7__cxx1112basic_stringIcSt11char_traitsIcESaIcEED1Ev
	jmp	.L241
.L248:
	movq	%rax, %rbx
.L241:
	leaq	176(%rbp), %rax
	movq	%rax, %rcx
	call	_ZNSt7__cxx1112basic_stringIcSt11char_traitsIcESaIcEED1Ev
	jmp	.L236
.L243:
	movq	%rax, %rbx
.L236:
	movq	288(%rbp), %rax
	movq	%rax, %rcx
	call	_ZNSt7__cxx1112basic_stringIcSt11char_traitsIcESaIcEED1Ev
	movq	%rbx, %rax
	movq	%rax, %rcx
	call	_Unwind_Resume
.LEHE51:
.L251:
	movq	288(%rbp), %rax
	addq	$392, %rsp
	popq	%rbx
	popq	%rbp
	ret
	.seh_handler	__gxx_personality_seh0, @unwind, @except
	.seh_handlerdata
.LLSDA3946:
	.byte	0xff
	.byte	0xff
	.byte	0x1
	.uleb128 .LLSDACSE3946-.LLSDACSB3946
.LLSDACSB3946:
	.uleb128 .LEHB38-.LFB3946
	.uleb128 .LEHE38-.LEHB38
	.uleb128 0
	.uleb128 0
	.uleb128 .LEHB39-.LFB3946
	.uleb128 .LEHE39-.LEHB39
	.uleb128 .L242-.LFB3946
	.uleb128 0
	.uleb128 .LEHB40-.LFB3946
	.uleb128 .LEHE40-.LEHB40
	.uleb128 .L243-.LFB3946
	.uleb128 0
	.uleb128 .LEHB41-.LFB3946
	.uleb128 .LEHE41-.LEHB41
	.uleb128 .L244-.LFB3946
	.uleb128 0
	.uleb128 .LEHB42-.LFB3946
	.uleb128 .LEHE42-.LEHB42
	.uleb128 .L245-.LFB3946
	.uleb128 0
	.uleb128 .LEHB43-.LFB3946
	.uleb128 .LEHE43-.LEHB43
	.uleb128 .L243-.LFB3946
	.uleb128 0
	.uleb128 .LEHB44-.LFB3946
	.uleb128 .LEHE44-.LEHB44
	.uleb128 .L246-.LFB3946
	.uleb128 0
	.uleb128 .LEHB45-.LFB3946
	.uleb128 .LEHE45-.LEHB45
	.uleb128 .L247-.LFB3946
	.uleb128 0
	.uleb128 .LEHB46-.LFB3946
	.uleb128 .LEHE46-.LEHB46
	.uleb128 .L243-.LFB3946
	.uleb128 0
	.uleb128 .LEHB47-.LFB3946
	.uleb128 .LEHE47-.LEHB47
	.uleb128 .L248-.LFB3946
	.uleb128 0
	.uleb128 .LEHB48-.LFB3946
	.uleb128 .LEHE48-.LEHB48
	.uleb128 .L249-.LFB3946
	.uleb128 0
	.uleb128 .LEHB49-.LFB3946
	.uleb128 .LEHE49-.LEHB49
	.uleb128 .L250-.LFB3946
	.uleb128 0
	.uleb128 .LEHB50-.LFB3946
	.uleb128 .LEHE50-.LEHB50
	.uleb128 .L243-.LFB3946
	.uleb128 0
	.uleb128 .LEHB51-.LFB3946
	.uleb128 .LEHE51-.LEHB51
	.uleb128 0
	.uleb128 0
.LLSDACSE3946:
	.section	.text$_ZN12FunctionNode5toCppB5cxx11Ev,"x"
	.linkonce discard
	.seh_endproc
	.section .rdata,"dr"
.LC37:
	.ascii "read\0"
.LC38:
	.ascii "turn_on\0"
.LC39:
	.ascii "turn_off\0"
.LC40:
	.ascii "write\0"
	.section	.text$_ZN16FunctionCallNodeC1ERKNSt7__cxx1112basic_stringIcSt11char_traitsIcESaIcEEESt6vectorISt10unique_ptrI7ASTNodeSt14default_deleteISA_EESaISD_EE,"x"
	.linkonce discard
	.align 2
	.globl	_ZN16FunctionCallNodeC1ERKNSt7__cxx1112basic_stringIcSt11char_traitsIcESaIcEEESt6vectorISt10unique_ptrI7ASTNodeSt14default_deleteISA_EESaISD_EE
	.def	_ZN16FunctionCallNodeC1ERKNSt7__cxx1112basic_stringIcSt11char_traitsIcESaIcEEESt6vectorISt10unique_ptrI7ASTNodeSt14default_deleteISA_EESaISD_EE;	.scl	2;	.type	32;	.endef
	.seh_proc	_ZN16FunctionCallNodeC1ERKNSt7__cxx1112basic_stringIcSt11char_traitsIcESaIcEEESt6vectorISt10unique_ptrI7ASTNodeSt14default_deleteISA_EESaISD_EE
_ZN16FunctionCallNodeC1ERKNSt7__cxx1112basic_stringIcSt11char_traitsIcESaIcEEESt6vectorISt10unique_ptrI7ASTNodeSt14default_deleteISA_EESaISD_EE:
.LFB3957:
	pushq	%rbp
	.seh_pushreg	%rbp
	pushq	%rbx
	.seh_pushreg	%rbx
	subq	$504, %rsp
	.seh_stackalloc	504
	leaq	128(%rsp), %rbp
	.seh_setframe	%rbp, 128
	.seh_endprologue
	movq	%rcx, 400(%rbp)
	movq	%rdx, 408(%rbp)
	movq	%r8, 416(%rbp)
	movq	400(%rbp), %rax
	movq	%rax, %rcx
	call	_ZN7ASTNodeC2Ev
	leaq	16+_ZTV16FunctionCallNode(%rip), %rdx
	movq	400(%rbp), %rax
	movq	%rdx, (%rax)
	movq	400(%rbp), %rax
	leaq	8(%rax), %rcx
	movq	408(%rbp), %rax
	movq	%rax, %rdx
.LEHB52:
	call	_ZNSt7__cxx1112basic_stringIcSt11char_traitsIcESaIcEEC1ERKS4_
.LEHE52:
	movq	400(%rbp), %rax
	leaq	40(%rax), %rbx
	movq	416(%rbp), %rax
	movq	%rax, %rcx
	call	_ZSt4moveIRSt6vectorISt10unique_ptrI7ASTNodeSt14default_deleteIS2_EESaIS5_EEEONSt16remove_referenceIT_E4typeEOSA_
	movq	%rax, %rdx
	movq	%rbx, %rcx
	call	_ZNSt6vectorISt10unique_ptrI7ASTNodeSt14default_deleteIS1_EESaIS4_EEC1EOS6_
	movq	400(%rbp), %rax
	addq	$40, %rax
	movq	%rax, %rcx
	call	_ZNKSt6vectorISt10unique_ptrI7ASTNodeSt14default_deleteIS1_EESaIS4_EE5emptyEv
	xorl	$1, %eax
	testb	%al, %al
	je	.L304
	movq	400(%rbp), %rax
	addq	$40, %rax
	movl	$0, %edx
	movq	%rax, %rcx
	call	_ZNSt6vectorISt10unique_ptrI7ASTNodeSt14default_deleteIS1_EESaIS4_EEixEy
	movq	%rax, %rcx
	call	_ZNKSt10unique_ptrI7ASTNodeSt14default_deleteIS0_EEptEv
	movq	(%rax), %rdx
	addq	$16, %rdx
	movq	(%rdx), %r8
	leaq	-96(%rbp), %rcx
	movq	%rax, %rdx
.LEHB53:
	call	*%r8
.LEHE53:
	leaq	_Z22currentParsingUserFuncB5cxx11(%rip), %rax
	movq	%rax, %rcx
	call	_ZNKSt7__cxx1112basic_stringIcSt11char_traitsIcESaIcEE5emptyEv
	xorl	$1, %eax
	testb	%al, %al
	je	.L254
	leaq	-96(%rbp), %rax
	movq	%rax, %rdx
	leaq	_Z10funcParamsB5cxx11(%rip), %rax
	movq	%rax, %rcx
.LEHB54:
	call	_ZNKSt3setINSt7__cxx1112basic_stringIcSt11char_traitsIcESaIcEEESt4lessIS5_ESaIS5_EE5countERKS5_
	testq	%rax, %rax
	je	.L254
	movl	$1, %eax
	jmp	.L255
.L254:
	movl	$0, %eax
.L255:
	testb	%al, %al
	je	.L256
	leaq	_Z21currentFuncParamNamesB5cxx11(%rip), %rax
	movq	%rax, %rcx
	call	_ZNSt6vectorINSt7__cxx1112basic_stringIcSt11char_traitsIcESaIcEEESaIS5_EE3endEv
	movq	%rax, %rbx
	leaq	_Z21currentFuncParamNamesB5cxx11(%rip), %rax
	movq	%rax, %rcx
	call	_ZNSt6vectorINSt7__cxx1112basic_stringIcSt11char_traitsIcESaIcEEESaIS5_EE5beginEv
	leaq	-96(%rbp), %rdx
	movq	%rdx, %r8
	movq	%rbx, %rdx
	movq	%rax, %rcx
	call	_ZSt4findIN9__gnu_cxx17__normal_iteratorIPNSt7__cxx1112basic_stringIcSt11char_traitsIcESaIcEEESt6vectorIS7_SaIS7_EEEES7_ET_SD_SD_RKT0_
	movq	%rax, 64(%rbp)
	leaq	_Z21currentFuncParamNamesB5cxx11(%rip), %rax
	movq	%rax, %rcx
	call	_ZNSt6vectorINSt7__cxx1112basic_stringIcSt11char_traitsIcESaIcEEESaIS5_EE3endEv
	movq	%rax, 72(%rbp)
	leaq	72(%rbp), %rdx
	leaq	64(%rbp), %rax
	movq	%rax, %rcx
	call	_ZN9__gnu_cxxneIPNSt7__cxx1112basic_stringIcSt11char_traitsIcESaIcEEESt6vectorIS6_SaIS6_EEEEbRKNS_17__normal_iteratorIT_T0_EESG_
	testb	%al, %al
	je	.L275
	leaq	_Z21currentFuncParamNamesB5cxx11(%rip), %rax
	movq	%rax, %rcx
	call	_ZNSt6vectorINSt7__cxx1112basic_stringIcSt11char_traitsIcESaIcEEESaIS5_EE5beginEv
	movq	%rax, 56(%rbp)
	movq	64(%rbp), %rax
	movq	%rax, 48(%rbp)
	nop
	movq	56(%rbp), %rax
	movq	%rax, 40(%rbp)
	movq	48(%rbp), %rax
	movq	%rax, 32(%rbp)
	leaq	40(%rbp), %rdx
	leaq	32(%rbp), %rax
	movq	%rax, %rcx
	call	_ZN9__gnu_cxxmiIPNSt7__cxx1112basic_stringIcSt11char_traitsIcESaIcEEESt6vectorIS6_SaIS6_EEEENS_17__normal_iteratorIT_T0_E15difference_typeERKSE_SH_
	nop
	nop
	movq	%rax, 336(%rbp)
	movq	400(%rbp), %rax
	addq	$8, %rax
	leaq	.LC37(%rip), %rdx
	movq	%rax, %rcx
	call	_ZSteqIcSt11char_traitsIcESaIcEEbRKNSt7__cxx1112basic_stringIT_T0_T1_EEPKS5_
	testb	%al, %al
	je	.L261
	leaq	_Z22currentParsingUserFuncB5cxx11(%rip), %rax
	movq	%rax, %rdx
	leaq	_Z19userFuncInputParamsB5cxx11(%rip), %rax
	movq	%rax, %rcx
	call	_ZNSt3mapINSt7__cxx1112basic_stringIcSt11char_traitsIcESaIcEEESt6vectorIbSaIbEESt4lessIS5_ESaISt4pairIKS5_S8_EEEixERSC_
	movq	%rax, %rdx
	leaq	80(%rbp), %rax
	movq	336(%rbp), %rcx
	movq	%rcx, %r8
	movq	%rax, %rcx
	call	_ZNSt6vectorIbSaIbEEixEy
	leaq	80(%rbp), %rax
	movl	$1, %edx
	movq	%rax, %rcx
	call	_ZNSt14_Bit_referenceaSEb
	jmp	.L275
.L261:
	movq	400(%rbp), %rax
	addq	$8, %rax
	leaq	.LC38(%rip), %rdx
	movq	%rax, %rcx
	call	_ZSteqIcSt11char_traitsIcESaIcEEbRKNSt7__cxx1112basic_stringIT_T0_T1_EEPKS5_
	testb	%al, %al
	jne	.L262
	movq	400(%rbp), %rax
	addq	$8, %rax
	leaq	.LC39(%rip), %rdx
	movq	%rax, %rcx
	call	_ZSteqIcSt11char_traitsIcESaIcEEbRKNSt7__cxx1112basic_stringIT_T0_T1_EEPKS5_
	testb	%al, %al
	jne	.L262
	movq	400(%rbp), %rax
	addq	$8, %rax
	leaq	.LC40(%rip), %rdx
	movq	%rax, %rcx
	call	_ZSteqIcSt11char_traitsIcESaIcEEbRKNSt7__cxx1112basic_stringIT_T0_T1_EEPKS5_
	testb	%al, %al
	je	.L263
	movq	400(%rbp), %rax
	addq	$40, %rax
	movq	%rax, %rcx
	call	_ZNKSt6vectorISt10unique_ptrI7ASTNodeSt14default_deleteIS1_EESaIS4_EE4sizeEv
	cmpq	$1, %rax
	jbe	.L263
.L262:
	movl	$1, %eax
	jmp	.L264
.L263:
	movl	$0, %eax
.L264:
	testb	%al, %al
	je	.L265
	leaq	_Z22currentParsingUserFuncB5cxx11(%rip), %rax
	movq	%rax, %rdx
	leaq	_Z20userFuncOutputParamsB5cxx11(%rip), %rax
	movq	%rax, %rcx
	call	_ZNSt3mapINSt7__cxx1112basic_stringIcSt11char_traitsIcESaIcEEESt6vectorIbSaIbEESt4lessIS5_ESaISt4pairIKS5_S8_EEEixERSC_
	movq	%rax, %rdx
	leaq	96(%rbp), %rax
	movq	336(%rbp), %rcx
	movq	%rcx, %r8
	movq	%rax, %rcx
	call	_ZNSt6vectorIbSaIbEEixEy
	leaq	96(%rbp), %rax
	movl	$1, %edx
	movq	%rax, %rcx
	call	_ZNSt14_Bit_referenceaSEb
	jmp	.L275
.L265:
	movq	400(%rbp), %rax
	addq	$8, %rax
	movq	%rax, %rdx
	leaq	_Z20userFuncOutputParamsB5cxx11(%rip), %rax
	movq	%rax, %rcx
	call	_ZNKSt3mapINSt7__cxx1112basic_stringIcSt11char_traitsIcESaIcEEESt6vectorIbSaIbEESt4lessIS5_ESaISt4pairIKS5_S8_EEE5countERSC_
	testq	%rax, %rax
	setne	%al
	testb	%al, %al
	je	.L275
	movq	$0, 360(%rbp)
	jmp	.L266
.L274:
	movq	400(%rbp), %rax
	addq	$8, %rax
	movq	%rax, %rdx
	leaq	_Z20userFuncOutputParamsB5cxx11(%rip), %rax
	movq	%rax, %rcx
	call	_ZNSt3mapINSt7__cxx1112basic_stringIcSt11char_traitsIcESaIcEEESt6vectorIbSaIbEESt4lessIS5_ESaISt4pairIKS5_S8_EEEixERSC_
	movq	%rax, %rdx
	leaq	112(%rbp), %rax
	movq	360(%rbp), %rcx
	movq	%rcx, %r8
	movq	%rax, %rcx
	call	_ZNSt6vectorIbSaIbEEixEy
	leaq	112(%rbp), %rax
	movq	%rax, %rcx
	call	_ZNKSt14_Bit_referencecvbEv
	testb	%al, %al
	je	.L267
	movq	400(%rbp), %rax
	leaq	40(%rax), %rcx
	movq	360(%rbp), %rax
	movq	%rax, %rdx
	call	_ZNSt6vectorISt10unique_ptrI7ASTNodeSt14default_deleteIS1_EESaIS4_EEixEy
	movq	%rax, %rcx
	call	_ZNKSt10unique_ptrI7ASTNodeSt14default_deleteIS0_EEptEv
	movq	(%rax), %rdx
	addq	$16, %rdx
	movq	(%rdx), %r8
	leaq	-64(%rbp), %rcx
	movq	%rax, %rdx
	call	*%r8
.LEHE54:
	leaq	_Z21currentFuncParamNamesB5cxx11(%rip), %rax
	movq	%rax, %rcx
	call	_ZNSt6vectorINSt7__cxx1112basic_stringIcSt11char_traitsIcESaIcEEESaIS5_EE3endEv
	movq	%rax, %rbx
	leaq	_Z21currentFuncParamNamesB5cxx11(%rip), %rax
	movq	%rax, %rcx
	call	_ZNSt6vectorINSt7__cxx1112basic_stringIcSt11char_traitsIcESaIcEEESaIS5_EE5beginEv
	leaq	-64(%rbp), %rdx
	movq	%rdx, %r8
	movq	%rbx, %rdx
	movq	%rax, %rcx
.LEHB55:
	call	_ZSt4findIN9__gnu_cxx17__normal_iteratorIPNSt7__cxx1112basic_stringIcSt11char_traitsIcESaIcEEESt6vectorIS7_SaIS7_EEEES7_ET_SD_SD_RKT0_
	movq	%rax, 16(%rbp)
	leaq	_Z21currentFuncParamNamesB5cxx11(%rip), %rax
	movq	%rax, %rcx
	call	_ZNSt6vectorINSt7__cxx1112basic_stringIcSt11char_traitsIcESaIcEEESaIS5_EE3endEv
	movq	%rax, 136(%rbp)
	leaq	136(%rbp), %rdx
	leaq	16(%rbp), %rax
	movq	%rax, %rcx
	call	_ZN9__gnu_cxxneIPNSt7__cxx1112basic_stringIcSt11char_traitsIcESaIcEEESt6vectorIS6_SaIS6_EEEEbRKNS_17__normal_iteratorIT_T0_EESG_
	testb	%al, %al
	je	.L268
	leaq	_Z21currentFuncParamNamesB5cxx11(%rip), %rax
	movq	%rax, %rcx
	call	_ZNSt6vectorINSt7__cxx1112basic_stringIcSt11char_traitsIcESaIcEEESaIS5_EE5beginEv
	movq	%rax, 8(%rbp)
	movq	16(%rbp), %rax
	movq	%rax, 0(%rbp)
	nop
	movq	8(%rbp), %rax
	movq	%rax, -8(%rbp)
	movq	0(%rbp), %rax
	movq	%rax, -16(%rbp)
	leaq	-8(%rbp), %rdx
	leaq	-16(%rbp), %rax
	movq	%rax, %rcx
	call	_ZN9__gnu_cxxmiIPNSt7__cxx1112basic_stringIcSt11char_traitsIcESaIcEEESt6vectorIS6_SaIS6_EEEENS_17__normal_iteratorIT_T0_E15difference_typeERKSE_SH_
	nop
	nop
	movq	%rax, 328(%rbp)
	leaq	_Z22currentParsingUserFuncB5cxx11(%rip), %rax
	movq	%rax, %rdx
	leaq	_Z20userFuncOutputParamsB5cxx11(%rip), %rax
	movq	%rax, %rcx
	call	_ZNSt3mapINSt7__cxx1112basic_stringIcSt11char_traitsIcESaIcEEESt6vectorIbSaIbEESt4lessIS5_ESaISt4pairIKS5_S8_EEEixERSC_
	movq	%rax, %rdx
	leaq	144(%rbp), %rax
	movq	328(%rbp), %rcx
	movq	%rcx, %r8
	movq	%rax, %rcx
	call	_ZNSt6vectorIbSaIbEEixEy
.LEHE55:
	leaq	144(%rbp), %rax
	movl	$1, %edx
	movq	%rax, %rcx
	call	_ZNSt14_Bit_referenceaSEb
.L268:
	leaq	-64(%rbp), %rax
	movq	%rax, %rcx
	call	_ZNSt7__cxx1112basic_stringIcSt11char_traitsIcESaIcEED1Ev
.L267:
	addq	$1, 360(%rbp)
.L266:
	movq	400(%rbp), %rax
	addq	$40, %rax
	movq	%rax, %rcx
	call	_ZNKSt6vectorISt10unique_ptrI7ASTNodeSt14default_deleteIS1_EESaIS4_EE4sizeEv
	cmpq	%rax, 360(%rbp)
	jnb	.L272
	movq	400(%rbp), %rax
	addq	$8, %rax
	movq	%rax, %rdx
	leaq	_Z20userFuncOutputParamsB5cxx11(%rip), %rax
	movq	%rax, %rcx
.LEHB56:
	call	_ZNSt3mapINSt7__cxx1112basic_stringIcSt11char_traitsIcESaIcEEESt6vectorIbSaIbEESt4lessIS5_ESaISt4pairIKS5_S8_EEEixERSC_
	movq	%rax, %rcx
	call	_ZNKSt6vectorIbSaIbEE4sizeEv
	cmpq	%rax, 360(%rbp)
	jnb	.L272
	movl	$1, %eax
	jmp	.L273
.L272:
	movl	$0, %eax
.L273:
	testb	%al, %al
	jne	.L274
	jmp	.L275
.L256:
	movq	400(%rbp), %rax
	addq	$8, %rax
	leaq	.LC37(%rip), %rdx
	movq	%rax, %rcx
	call	_ZSteqIcSt11char_traitsIcESaIcEEbRKNSt7__cxx1112basic_stringIT_T0_T1_EEPKS5_
	testb	%al, %al
	je	.L276
	leaq	160(%rbp), %rax
	leaq	-96(%rbp), %rdx
	movq	%rdx, %r8
	leaq	_Z9inputPinsB5cxx11(%rip), %rdx
	movq	%rax, %rcx
	call	_ZNSt3setINSt7__cxx1112basic_stringIcSt11char_traitsIcESaIcEEESt4lessIS5_ESaIS5_EE6insertERKS5_
	jmp	.L275
.L276:
	movq	400(%rbp), %rax
	addq	$8, %rax
	leaq	.LC38(%rip), %rdx
	movq	%rax, %rcx
	call	_ZSteqIcSt11char_traitsIcESaIcEEbRKNSt7__cxx1112basic_stringIT_T0_T1_EEPKS5_
	testb	%al, %al
	jne	.L277
	movq	400(%rbp), %rax
	addq	$8, %rax
	leaq	.LC39(%rip), %rdx
	movq	%rax, %rcx
	call	_ZSteqIcSt11char_traitsIcESaIcEEbRKNSt7__cxx1112basic_stringIT_T0_T1_EEPKS5_
	testb	%al, %al
	jne	.L277
	movq	400(%rbp), %rax
	addq	$8, %rax
	leaq	.LC40(%rip), %rdx
	movq	%rax, %rcx
	call	_ZSteqIcSt11char_traitsIcESaIcEEbRKNSt7__cxx1112basic_stringIT_T0_T1_EEPKS5_
	testb	%al, %al
	je	.L278
	movq	400(%rbp), %rax
	addq	$40, %rax
	movq	%rax, %rcx
	call	_ZNKSt6vectorISt10unique_ptrI7ASTNodeSt14default_deleteIS1_EESaIS4_EE4sizeEv
	cmpq	$1, %rax
	jbe	.L278
.L277:
	movl	$1, %eax
	jmp	.L279
.L278:
	movl	$0, %eax
.L279:
	testb	%al, %al
	je	.L280
	leaq	176(%rbp), %rax
	leaq	-96(%rbp), %rdx
	movq	%rdx, %r8
	leaq	_Z10outputPinsB5cxx11(%rip), %rdx
	movq	%rax, %rcx
	call	_ZNSt3setINSt7__cxx1112basic_stringIcSt11char_traitsIcESaIcEEESt4lessIS5_ESaIS5_EE6insertERKS5_
	jmp	.L275
.L280:
	movq	400(%rbp), %rax
	addq	$8, %rax
	movq	%rax, %rdx
	leaq	_Z20userFuncOutputParamsB5cxx11(%rip), %rax
	movq	%rax, %rcx
	call	_ZNKSt3mapINSt7__cxx1112basic_stringIcSt11char_traitsIcESaIcEEESt6vectorIbSaIbEESt4lessIS5_ESaISt4pairIKS5_S8_EEE5countERSC_
	testq	%rax, %rax
	setne	%al
	testb	%al, %al
	je	.L281
	movq	$0, 352(%rbp)
	jmp	.L282
.L286:
	movq	400(%rbp), %rax
	addq	$8, %rax
	movq	%rax, %rdx
	leaq	_Z20userFuncOutputParamsB5cxx11(%rip), %rax
	movq	%rax, %rcx
	call	_ZNSt3mapINSt7__cxx1112basic_stringIcSt11char_traitsIcESaIcEEESt6vectorIbSaIbEESt4lessIS5_ESaISt4pairIKS5_S8_EEEixERSC_
	movq	%rax, %rdx
	leaq	192(%rbp), %rax
	movq	352(%rbp), %rcx
	movq	%rcx, %r8
	movq	%rax, %rcx
	call	_ZNSt6vectorIbSaIbEEixEy
	leaq	192(%rbp), %rax
	movq	%rax, %rcx
	call	_ZNKSt14_Bit_referencecvbEv
	testb	%al, %al
	je	.L283
	movq	400(%rbp), %rax
	leaq	40(%rax), %rcx
	movq	352(%rbp), %rax
	movq	%rax, %rdx
	call	_ZNSt6vectorISt10unique_ptrI7ASTNodeSt14default_deleteIS1_EESaIS4_EEixEy
	movq	%rax, %rcx
	call	_ZNKSt10unique_ptrI7ASTNodeSt14default_deleteIS0_EEptEv
	movq	(%rax), %rdx
	addq	$16, %rdx
	movq	(%rdx), %r8
	leaq	224(%rbp), %rcx
	movq	%rax, %rdx
	call	*%r8
.LEHE56:
	leaq	208(%rbp), %rax
	leaq	224(%rbp), %rdx
	movq	%rdx, %r8
	leaq	_Z10outputPinsB5cxx11(%rip), %rdx
	movq	%rax, %rcx
.LEHB57:
	call	_ZNSt3setINSt7__cxx1112basic_stringIcSt11char_traitsIcESaIcEEESt4lessIS5_ESaIS5_EE6insertEOS5_
.LEHE57:
	leaq	224(%rbp), %rax
	movq	%rax, %rcx
	call	_ZNSt7__cxx1112basic_stringIcSt11char_traitsIcESaIcEED1Ev
.L283:
	addq	$1, 352(%rbp)
.L282:
	movq	400(%rbp), %rax
	addq	$40, %rax
	movq	%rax, %rcx
	call	_ZNKSt6vectorISt10unique_ptrI7ASTNodeSt14default_deleteIS1_EESaIS4_EE4sizeEv
	cmpq	%rax, 352(%rbp)
	jnb	.L284
	movq	400(%rbp), %rax
	addq	$8, %rax
	movq	%rax, %rdx
	leaq	_Z20userFuncOutputParamsB5cxx11(%rip), %rax
	movq	%rax, %rcx
.LEHB58:
	call	_ZNSt3mapINSt7__cxx1112basic_stringIcSt11char_traitsIcESaIcEEESt6vectorIbSaIbEESt4lessIS5_ESaISt4pairIKS5_S8_EEEixERSC_
	movq	%rax, %rcx
	call	_ZNKSt6vectorIbSaIbEE4sizeEv
	cmpq	%rax, 352(%rbp)
	jnb	.L284
	movl	$1, %eax
	jmp	.L285
.L284:
	movl	$0, %eax
.L285:
	testb	%al, %al
	jne	.L286
.L281:
	movq	400(%rbp), %rax
	addq	$8, %rax
	movq	%rax, %rdx
	leaq	_Z19userFuncInputParamsB5cxx11(%rip), %rax
	movq	%rax, %rcx
	call	_ZNKSt3mapINSt7__cxx1112basic_stringIcSt11char_traitsIcESaIcEEESt6vectorIbSaIbEESt4lessIS5_ESaISt4pairIKS5_S8_EEE5countERSC_
	testq	%rax, %rax
	setne	%al
	testb	%al, %al
	je	.L275
	movq	$0, 344(%rbp)
	jmp	.L287
.L291:
	movq	400(%rbp), %rax
	addq	$8, %rax
	movq	%rax, %rdx
	leaq	_Z19userFuncInputParamsB5cxx11(%rip), %rax
	movq	%rax, %rcx
	call	_ZNSt3mapINSt7__cxx1112basic_stringIcSt11char_traitsIcESaIcEEESt6vectorIbSaIbEESt4lessIS5_ESaISt4pairIKS5_S8_EEEixERSC_
	movq	%rax, %rdx
	leaq	256(%rbp), %rax
	movq	344(%rbp), %rcx
	movq	%rcx, %r8
	movq	%rax, %rcx
	call	_ZNSt6vectorIbSaIbEEixEy
	leaq	256(%rbp), %rax
	movq	%rax, %rcx
	call	_ZNKSt14_Bit_referencecvbEv
	testb	%al, %al
	je	.L288
	movq	400(%rbp), %rax
	leaq	40(%rax), %rcx
	movq	344(%rbp), %rax
	movq	%rax, %rdx
	call	_ZNSt6vectorISt10unique_ptrI7ASTNodeSt14default_deleteIS1_EESaIS4_EEixEy
	movq	%rax, %rcx
	call	_ZNKSt10unique_ptrI7ASTNodeSt14default_deleteIS0_EEptEv
	movq	(%rax), %rdx
	addq	$16, %rdx
	movq	(%rdx), %r8
	leaq	288(%rbp), %rcx
	movq	%rax, %rdx
	call	*%r8
.LEHE58:
	leaq	272(%rbp), %rax
	leaq	288(%rbp), %rdx
	movq	%rdx, %r8
	leaq	_Z9inputPinsB5cxx11(%rip), %rdx
	movq	%rax, %rcx
.LEHB59:
	call	_ZNSt3setINSt7__cxx1112basic_stringIcSt11char_traitsIcESaIcEEESt4lessIS5_ESaIS5_EE6insertEOS5_
.LEHE59:
	leaq	288(%rbp), %rax
	movq	%rax, %rcx
	call	_ZNSt7__cxx1112basic_stringIcSt11char_traitsIcESaIcEED1Ev
.L288:
	addq	$1, 344(%rbp)
.L287:
	movq	400(%rbp), %rax
	addq	$40, %rax
	movq	%rax, %rcx
	call	_ZNKSt6vectorISt10unique_ptrI7ASTNodeSt14default_deleteIS1_EESaIS4_EE4sizeEv
	cmpq	%rax, 344(%rbp)
	jnb	.L289
	movq	400(%rbp), %rax
	addq	$8, %rax
	movq	%rax, %rdx
	leaq	_Z19userFuncInputParamsB5cxx11(%rip), %rax
	movq	%rax, %rcx
.LEHB60:
	call	_ZNSt3mapINSt7__cxx1112basic_stringIcSt11char_traitsIcESaIcEEESt6vectorIbSaIbEESt4lessIS5_ESaISt4pairIKS5_S8_EEEixERSC_
.LEHE60:
	movq	%rax, %rcx
	call	_ZNKSt6vectorIbSaIbEE4sizeEv
	cmpq	%rax, 344(%rbp)
	jnb	.L289
	movl	$1, %eax
	jmp	.L290
.L289:
	movl	$0, %eax
.L290:
	testb	%al, %al
	jne	.L291
.L275:
	leaq	-96(%rbp), %rax
	movq	%rax, %rcx
	call	_ZNSt7__cxx1112basic_stringIcSt11char_traitsIcESaIcEED1Ev
	jmp	.L304
.L301:
	movq	%rax, %rbx
	leaq	-64(%rbp), %rax
	movq	%rax, %rcx
	call	_ZNSt7__cxx1112basic_stringIcSt11char_traitsIcESaIcEED1Ev
	jmp	.L293
.L302:
	movq	%rax, %rbx
	leaq	224(%rbp), %rax
	movq	%rax, %rcx
	call	_ZNSt7__cxx1112basic_stringIcSt11char_traitsIcESaIcEED1Ev
	jmp	.L293
.L303:
	movq	%rax, %rbx
	leaq	288(%rbp), %rax
	movq	%rax, %rcx
	call	_ZNSt7__cxx1112basic_stringIcSt11char_traitsIcESaIcEED1Ev
	jmp	.L293
.L300:
	movq	%rax, %rbx
.L293:
	leaq	-96(%rbp), %rax
	movq	%rax, %rcx
	call	_ZNSt7__cxx1112basic_stringIcSt11char_traitsIcESaIcEED1Ev
	jmp	.L296
.L299:
	movq	%rax, %rbx
.L296:
	movq	400(%rbp), %rax
	addq	$40, %rax
	movq	%rax, %rcx
	call	_ZNSt6vectorISt10unique_ptrI7ASTNodeSt14default_deleteIS1_EESaIS4_EED1Ev
	movq	400(%rbp), %rax
	addq	$8, %rax
	movq	%rax, %rcx
	call	_ZNSt7__cxx1112basic_stringIcSt11char_traitsIcESaIcEED1Ev
	jmp	.L297
.L298:
	movq	%rax, %rbx
.L297:
	movq	400(%rbp), %rax
	movq	%rax, %rcx
	call	_ZN7ASTNodeD2Ev
	movq	%rbx, %rax
	movq	%rax, %rcx
.LEHB61:
	call	_Unwind_Resume
.LEHE61:
.L304:
	nop
	addq	$504, %rsp
	popq	%rbx
	popq	%rbp
	ret
	.seh_handler	__gxx_personality_seh0, @unwind, @except
	.seh_handlerdata
.LLSDA3957:
	.byte	0xff
	.byte	0xff
	.byte	0x1
	.uleb128 .LLSDACSE3957-.LLSDACSB3957
.LLSDACSB3957:
	.uleb128 .LEHB52-.LFB3957
	.uleb128 .LEHE52-.LEHB52
	.uleb128 .L298-.LFB3957
	.uleb128 0
	.uleb128 .LEHB53-.LFB3957
	.uleb128 .LEHE53-.LEHB53
	.uleb128 .L299-.LFB3957
	.uleb128 0
	.uleb128 .LEHB54-.LFB3957
	.uleb128 .LEHE54-.LEHB54
	.uleb128 .L300-.LFB3957
	.uleb128 0
	.uleb128 .LEHB55-.LFB3957
	.uleb128 .LEHE55-.LEHB55
	.uleb128 .L301-.LFB3957
	.uleb128 0
	.uleb128 .LEHB56-.LFB3957
	.uleb128 .LEHE56-.LEHB56
	.uleb128 .L300-.LFB3957
	.uleb128 0
	.uleb128 .LEHB57-.LFB3957
	.uleb128 .LEHE57-.LEHB57
	.uleb128 .L302-.LFB3957
	.uleb128 0
	.uleb128 .LEHB58-.LFB3957
	.uleb128 .LEHE58-.LEHB58
	.uleb128 .L300-.LFB3957
	.uleb128 0
	.uleb128 .LEHB59-.LFB3957
	.uleb128 .LEHE59-.LEHB59
	.uleb128 .L303-.LFB3957
	.uleb128 0
	.uleb128 .LEHB60-.LFB3957
	.uleb128 .LEHE60-.LEHB60
	.uleb128 .L300-.LFB3957
	.uleb128 0
	.uleb128 .LEHB61-.LFB3957
	.uleb128 .LEHE61-.LEHB61
	.uleb128 0
	.uleb128 0
.LLSDACSE3957:
	.section	.text$_ZN16FunctionCallNodeC1ERKNSt7__cxx1112basic_stringIcSt11char_traitsIcESaIcEEESt6vectorISt10unique_ptrI7ASTNodeSt14default_deleteISA_EESaISD_EE,"x"
	.linkonce discard
	.seh_endproc
	.section .rdata,"dr"
.LC41:
	.ascii "digitalWrite(\0"
.LC42:
	.ascii ", HIGH);\0"
.LC43:
	.ascii ", LOW);\0"
.LC44:
	.ascii "0\0"
.LC45:
	.ascii "1\0"
.LC46:
	.ascii "HIGH\0"
.LC47:
	.ascii "LOW\0"
.LC48:
	.ascii ", \0"
.LC49:
	.ascii ");\0"
.LC50:
	.ascii "analogWrite(\0"
.LC51:
	.ascii "analogRead(\0"
.LC52:
	.ascii ")\0"
.LC53:
	.ascii "digitalRead(\0"
.LC54:
	.ascii "wait\0"
.LC55:
	.ascii "delay(\0"
.LC56:
	.ascii "serial\0"
.LC57:
	.ascii "Serial.begin(\0"
.LC58:
	.ascii "print\0"
.LC59:
	.ascii "Serial.print(\0"
.LC60:
	.ascii "println\0"
.LC61:
	.ascii "Serial.println(\0"
.LC62:
	.ascii "available\0"
.LC63:
	.ascii "Serial.available()\0"
.LC64:
	.ascii "read_serial\0"
.LC65:
	.ascii "Serial.read();\0"
.LC66:
	.ascii "scale\0"
.LC67:
	.ascii "map(\0"
	.section	.text$_ZN16FunctionCallNode5toCppB5cxx11Ev,"x"
	.linkonce discard
	.align 2
	.globl	_ZN16FunctionCallNode5toCppB5cxx11Ev
	.def	_ZN16FunctionCallNode5toCppB5cxx11Ev;	.scl	2;	.type	32;	.endef
	.seh_proc	_ZN16FunctionCallNode5toCppB5cxx11Ev
_ZN16FunctionCallNode5toCppB5cxx11Ev:
.LFB3958:
	pushq	%rbp
	.seh_pushreg	%rbp
	pushq	%r12
	.seh_pushreg	%r12
	pushq	%rdi
	.seh_pushreg	%rdi
	pushq	%rsi
	.seh_pushreg	%rsi
	pushq	%rbx
	.seh_pushreg	%rbx
	subq	$1120, %rsp
	.seh_stackalloc	1120
	leaq	128(%rsp), %rbp
	.seh_setframe	%rbp, 128
	.seh_endprologue
	movq	%rcx, 1040(%rbp)
	movq	%rdx, 1048(%rbp)
	leaq	16(%rbp), %rax
	movq	%rax, %rcx
	call	_ZNSt6vectorINSt7__cxx1112basic_stringIcSt11char_traitsIcESaIcEEESaIS5_EEC1Ev
	movq	1048(%rbp), %rax
	addq	$40, %rax
	movq	%rax, 976(%rbp)
	movq	976(%rbp), %rax
	movq	%rax, %rcx
	call	_ZNSt6vectorISt10unique_ptrI7ASTNodeSt14default_deleteIS1_EESaIS4_EE5beginEv
	movq	%rax, -24(%rbp)
	movq	976(%rbp), %rax
	movq	%rax, %rcx
	call	_ZNSt6vectorISt10unique_ptrI7ASTNodeSt14default_deleteIS1_EESaIS4_EE3endEv
	movq	%rax, -32(%rbp)
	jmp	.L306
.L307:
	leaq	-24(%rbp), %rax
	movq	%rax, %rcx
	call	_ZNK9__gnu_cxx17__normal_iteratorIPSt10unique_ptrI7ASTNodeSt14default_deleteIS2_EESt6vectorIS5_SaIS5_EEEdeEv
	movq	%rax, 968(%rbp)
	movq	968(%rbp), %rax
	movq	%rax, %rcx
	call	_ZNKSt10unique_ptrI7ASTNodeSt14default_deleteIS0_EEptEv
	movq	(%rax), %rdx
	addq	$16, %rdx
	movq	(%rdx), %r8
	leaq	48(%rbp), %rcx
	movq	%rax, %rdx
.LEHB62:
	call	*%r8
.LEHE62:
	leaq	48(%rbp), %rdx
	leaq	16(%rbp), %rax
	movq	%rax, %rcx
.LEHB63:
	call	_ZNSt6vectorINSt7__cxx1112basic_stringIcSt11char_traitsIcESaIcEEESaIS5_EE9push_backEOS5_
.LEHE63:
	leaq	48(%rbp), %rax
	movq	%rax, %rcx
	call	_ZNSt7__cxx1112basic_stringIcSt11char_traitsIcESaIcEED1Ev
	leaq	-24(%rbp), %rax
	movq	%rax, %rcx
	call	_ZN9__gnu_cxx17__normal_iteratorIPSt10unique_ptrI7ASTNodeSt14default_deleteIS2_EESt6vectorIS5_SaIS5_EEEppEv
.L306:
	leaq	-32(%rbp), %rdx
	leaq	-24(%rbp), %rax
	movq	%rax, %rcx
	call	_ZN9__gnu_cxxneIPSt10unique_ptrI7ASTNodeSt14default_deleteIS2_EESt6vectorIS5_SaIS5_EEEEbRKNS_17__normal_iteratorIT_T0_EESF_
	testb	%al, %al
	jne	.L307
	movq	1048(%rbp), %rax
	addq	$8, %rax
	leaq	.LC38(%rip), %rdx
	movq	%rax, %rcx
.LEHB64:
	call	_ZSteqIcSt11char_traitsIcESaIcEEbRKNSt7__cxx1112basic_stringIT_T0_T1_EEPKS5_
	testb	%al, %al
	je	.L308
	leaq	16(%rbp), %rax
	movq	%rax, %rcx
	call	_ZNKSt6vectorINSt7__cxx1112basic_stringIcSt11char_traitsIcESaIcEEESaIS5_EE4sizeEv
	testq	%rax, %rax
	je	.L308
	movl	$1, %eax
	jmp	.L309
.L308:
	movl	$0, %eax
.L309:
	testb	%al, %al
	je	.L310
	leaq	16(%rbp), %rax
	movl	$0, %edx
	movq	%rax, %rcx
	call	_ZNSt6vectorINSt7__cxx1112basic_stringIcSt11char_traitsIcESaIcEEESaIS5_EEixEy
	movq	%rax, %rdx
	leaq	-64(%rbp), %rax
	movq	%rax, %rcx
	call	_ZNSt7__cxx1112basic_stringIcSt11char_traitsIcESaIcEEC1ERKS4_
.LEHE64:
	leaq	80(%rbp), %rax
	leaq	-64(%rbp), %rdx
	movq	%rdx, %r8
	leaq	.LC41(%rip), %rdx
	movq	%rax, %rcx
.LEHB65:
	call	_ZStplIcSt11char_traitsIcESaIcEENSt7__cxx1112basic_stringIT_T0_T1_EEPKS5_RKS8_
.LEHE65:
	movq	1040(%rbp), %rax
	leaq	80(%rbp), %rdx
	leaq	.LC42(%rip), %r8
	movq	%rax, %rcx
.LEHB66:
	call	_ZStplIcSt11char_traitsIcESaIcEENSt7__cxx1112basic_stringIT_T0_T1_EEOS8_PKS5_
.LEHE66:
	nop
	leaq	80(%rbp), %rax
	movq	%rax, %rcx
	call	_ZNSt7__cxx1112basic_stringIcSt11char_traitsIcESaIcEED1Ev
	leaq	-64(%rbp), %rax
	movq	%rax, %rcx
	call	_ZNSt7__cxx1112basic_stringIcSt11char_traitsIcESaIcEED1Ev
	jmp	.L311
.L310:
	movq	1048(%rbp), %rax
	addq	$8, %rax
	leaq	.LC39(%rip), %rdx
	movq	%rax, %rcx
.LEHB67:
	call	_ZSteqIcSt11char_traitsIcESaIcEEbRKNSt7__cxx1112basic_stringIT_T0_T1_EEPKS5_
	testb	%al, %al
	je	.L312
	leaq	16(%rbp), %rax
	movq	%rax, %rcx
	call	_ZNKSt6vectorINSt7__cxx1112basic_stringIcSt11char_traitsIcESaIcEEESaIS5_EE4sizeEv
	testq	%rax, %rax
	je	.L312
	movl	$1, %eax
	jmp	.L313
.L312:
	movl	$0, %eax
.L313:
	testb	%al, %al
	je	.L314
	leaq	16(%rbp), %rax
	movl	$0, %edx
	movq	%rax, %rcx
	call	_ZNSt6vectorINSt7__cxx1112basic_stringIcSt11char_traitsIcESaIcEEESaIS5_EEixEy
	movq	%rax, %rdx
	leaq	-64(%rbp), %rax
	movq	%rax, %rcx
	call	_ZNSt7__cxx1112basic_stringIcSt11char_traitsIcESaIcEEC1ERKS4_
.LEHE67:
	leaq	112(%rbp), %rax
	leaq	-64(%rbp), %rdx
	movq	%rdx, %r8
	leaq	.LC41(%rip), %rdx
	movq	%rax, %rcx
.LEHB68:
	call	_ZStplIcSt11char_traitsIcESaIcEENSt7__cxx1112basic_stringIT_T0_T1_EEPKS5_RKS8_
.LEHE68:
	movq	1040(%rbp), %rax
	leaq	112(%rbp), %rdx
	leaq	.LC43(%rip), %r8
	movq	%rax, %rcx
.LEHB69:
	call	_ZStplIcSt11char_traitsIcESaIcEENSt7__cxx1112basic_stringIT_T0_T1_EEOS8_PKS5_
.LEHE69:
	nop
	leaq	112(%rbp), %rax
	movq	%rax, %rcx
	call	_ZNSt7__cxx1112basic_stringIcSt11char_traitsIcESaIcEED1Ev
	leaq	-64(%rbp), %rax
	movq	%rax, %rcx
	call	_ZNSt7__cxx1112basic_stringIcSt11char_traitsIcESaIcEED1Ev
	jmp	.L311
.L314:
	movq	1048(%rbp), %rax
	addq	$8, %rax
	leaq	.LC40(%rip), %rdx
	movq	%rax, %rcx
.LEHB70:
	call	_ZSteqIcSt11char_traitsIcESaIcEEbRKNSt7__cxx1112basic_stringIT_T0_T1_EEPKS5_
	testb	%al, %al
	je	.L315
	leaq	16(%rbp), %rax
	movq	%rax, %rcx
	call	_ZNKSt6vectorINSt7__cxx1112basic_stringIcSt11char_traitsIcESaIcEEESaIS5_EE4sizeEv
	cmpq	$1, %rax
	jbe	.L315
	movl	$1, %eax
	jmp	.L316
.L315:
	movl	$0, %eax
.L316:
	testb	%al, %al
	je	.L317
	leaq	16(%rbp), %rax
	movl	$0, %edx
	movq	%rax, %rcx
	call	_ZNSt6vectorINSt7__cxx1112basic_stringIcSt11char_traitsIcESaIcEEESaIS5_EEixEy
	movq	%rax, %rdx
	leaq	-96(%rbp), %rax
	movq	%rax, %rcx
	call	_ZNSt7__cxx1112basic_stringIcSt11char_traitsIcESaIcEEC1ERKS4_
.LEHE70:
	leaq	16(%rbp), %rax
	movl	$1, %edx
	movq	%rax, %rcx
	call	_ZNSt6vectorINSt7__cxx1112basic_stringIcSt11char_traitsIcESaIcEEESaIS5_EEixEy
	movq	%rax, %rdx
	leaq	-64(%rbp), %rax
	movq	%rax, %rcx
.LEHB71:
	call	_ZNSt7__cxx1112basic_stringIcSt11char_traitsIcESaIcEEC1ERKS4_
.LEHE71:
	leaq	-64(%rbp), %rax
	leaq	.LC44(%rip), %rdx
	movq	%rax, %rcx
.LEHB72:
	call	_ZSteqIcSt11char_traitsIcESaIcEEbRKNSt7__cxx1112basic_stringIT_T0_T1_EEPKS5_
	testb	%al, %al
	jne	.L318
	leaq	-64(%rbp), %rax
	leaq	.LC45(%rip), %rdx
	movq	%rax, %rcx
	call	_ZSteqIcSt11char_traitsIcESaIcEEbRKNSt7__cxx1112basic_stringIT_T0_T1_EEPKS5_
	testb	%al, %al
	jne	.L318
	leaq	-64(%rbp), %rax
	leaq	.LC46(%rip), %rdx
	movq	%rax, %rcx
	call	_ZSteqIcSt11char_traitsIcESaIcEEbRKNSt7__cxx1112basic_stringIT_T0_T1_EEPKS5_
	testb	%al, %al
	jne	.L318
	leaq	-64(%rbp), %rax
	leaq	.LC47(%rip), %rdx
	movq	%rax, %rcx
	call	_ZSteqIcSt11char_traitsIcESaIcEEbRKNSt7__cxx1112basic_stringIT_T0_T1_EEPKS5_
	testb	%al, %al
	je	.L319
.L318:
	movl	$1, %eax
	jmp	.L320
.L319:
	movl	$0, %eax
.L320:
	testb	%al, %al
	je	.L321
	leaq	208(%rbp), %rax
	leaq	-96(%rbp), %rdx
	movq	%rdx, %r8
	leaq	.LC41(%rip), %rdx
	movq	%rax, %rcx
	call	_ZStplIcSt11char_traitsIcESaIcEENSt7__cxx1112basic_stringIT_T0_T1_EEPKS5_RKS8_
.LEHE72:
	leaq	176(%rbp), %rax
	leaq	208(%rbp), %rdx
	leaq	.LC48(%rip), %r8
	movq	%rax, %rcx
.LEHB73:
	call	_ZStplIcSt11char_traitsIcESaIcEENSt7__cxx1112basic_stringIT_T0_T1_EEOS8_PKS5_
.LEHE73:
	leaq	144(%rbp), %rax
	leaq	-64(%rbp), %rcx
	leaq	176(%rbp), %rdx
	movq	%rcx, %r8
	movq	%rax, %rcx
.LEHB74:
	call	_ZStplIcSt11char_traitsIcESaIcEENSt7__cxx1112basic_stringIT_T0_T1_EEOS8_RKS8_
.LEHE74:
	movq	1040(%rbp), %rax
	leaq	144(%rbp), %rdx
	leaq	.LC49(%rip), %r8
	movq	%rax, %rcx
.LEHB75:
	call	_ZStplIcSt11char_traitsIcESaIcEENSt7__cxx1112basic_stringIT_T0_T1_EEOS8_PKS5_
.LEHE75:
	nop
	leaq	144(%rbp), %rax
	movq	%rax, %rcx
	call	_ZNSt7__cxx1112basic_stringIcSt11char_traitsIcESaIcEED1Ev
	leaq	176(%rbp), %rax
	movq	%rax, %rcx
	call	_ZNSt7__cxx1112basic_stringIcSt11char_traitsIcESaIcEED1Ev
	leaq	208(%rbp), %rax
	movq	%rax, %rcx
	call	_ZNSt7__cxx1112basic_stringIcSt11char_traitsIcESaIcEED1Ev
	jmp	.L322
.L321:
	leaq	304(%rbp), %rax
	leaq	-96(%rbp), %rdx
	movq	%rdx, %r8
	leaq	.LC50(%rip), %rdx
	movq	%rax, %rcx
.LEHB76:
	call	_ZStplIcSt11char_traitsIcESaIcEENSt7__cxx1112basic_stringIT_T0_T1_EEPKS5_RKS8_
.LEHE76:
	leaq	272(%rbp), %rax
	leaq	304(%rbp), %rdx
	leaq	.LC48(%rip), %r8
	movq	%rax, %rcx
.LEHB77:
	call	_ZStplIcSt11char_traitsIcESaIcEENSt7__cxx1112basic_stringIT_T0_T1_EEOS8_PKS5_
.LEHE77:
	leaq	240(%rbp), %rax
	leaq	-64(%rbp), %rcx
	leaq	272(%rbp), %rdx
	movq	%rcx, %r8
	movq	%rax, %rcx
.LEHB78:
	call	_ZStplIcSt11char_traitsIcESaIcEENSt7__cxx1112basic_stringIT_T0_T1_EEOS8_RKS8_
.LEHE78:
	movq	1040(%rbp), %rax
	leaq	240(%rbp), %rdx
	leaq	.LC49(%rip), %r8
	movq	%rax, %rcx
.LEHB79:
	call	_ZStplIcSt11char_traitsIcESaIcEENSt7__cxx1112basic_stringIT_T0_T1_EEOS8_PKS5_
.LEHE79:
	nop
	leaq	240(%rbp), %rax
	movq	%rax, %rcx
	call	_ZNSt7__cxx1112basic_stringIcSt11char_traitsIcESaIcEED1Ev
	leaq	272(%rbp), %rax
	movq	%rax, %rcx
	call	_ZNSt7__cxx1112basic_stringIcSt11char_traitsIcESaIcEED1Ev
	leaq	304(%rbp), %rax
	movq	%rax, %rcx
	call	_ZNSt7__cxx1112basic_stringIcSt11char_traitsIcESaIcEED1Ev
.L322:
	leaq	-64(%rbp), %rax
	movq	%rax, %rcx
	call	_ZNSt7__cxx1112basic_stringIcSt11char_traitsIcESaIcEED1Ev
	leaq	-96(%rbp), %rax
	movq	%rax, %rcx
	call	_ZNSt7__cxx1112basic_stringIcSt11char_traitsIcESaIcEED1Ev
	jmp	.L311
.L317:
	movq	1048(%rbp), %rax
	addq	$8, %rax
	leaq	.LC37(%rip), %rdx
	movq	%rax, %rcx
.LEHB80:
	call	_ZSteqIcSt11char_traitsIcESaIcEEbRKNSt7__cxx1112basic_stringIT_T0_T1_EEPKS5_
	testb	%al, %al
	je	.L323
	leaq	16(%rbp), %rax
	movq	%rax, %rcx
	call	_ZNKSt6vectorINSt7__cxx1112basic_stringIcSt11char_traitsIcESaIcEEESaIS5_EE4sizeEv
	testq	%rax, %rax
	je	.L323
	movl	$1, %eax
	jmp	.L324
.L323:
	movl	$0, %eax
.L324:
	testb	%al, %al
	je	.L325
	leaq	16(%rbp), %rax
	movl	$0, %edx
	movq	%rax, %rcx
	call	_ZNSt6vectorINSt7__cxx1112basic_stringIcSt11char_traitsIcESaIcEEESaIS5_EEixEy
	movq	%rax, %rdx
	leaq	-64(%rbp), %rax
	movq	%rax, %rcx
	call	_ZNSt7__cxx1112basic_stringIcSt11char_traitsIcESaIcEEC1ERKS4_
.LEHE80:
	leaq	-64(%rbp), %rax
	movq	%rax, %rcx
	call	_ZNKSt7__cxx1112basic_stringIcSt11char_traitsIcESaIcEE6lengthEv
	cmpq	$1, %rax
	jbe	.L326
	leaq	-64(%rbp), %rax
	movl	$0, %edx
	movq	%rax, %rcx
.LEHB81:
	call	_ZNSt7__cxx1112basic_stringIcSt11char_traitsIcESaIcEEixEy
	movzbl	(%rax), %eax
	cmpb	$65, %al
	jne	.L326
	leaq	-64(%rbp), %rax
	movl	$1, %edx
	movq	%rax, %rcx
	call	_ZNSt7__cxx1112basic_stringIcSt11char_traitsIcESaIcEEixEy
	movzbl	(%rax), %eax
	movsbl	%al, %eax
	subl	$48, %eax
	cmpl	$9, %eax
	setbe	%al
	movzbl	%al, %eax
	testl	%eax, %eax
	je	.L326
	movl	$1, %eax
	jmp	.L327
.L326:
	movl	$0, %eax
.L327:
	testb	%al, %al
	je	.L328
	leaq	336(%rbp), %rax
	leaq	-64(%rbp), %rdx
	movq	%rdx, %r8
	leaq	.LC51(%rip), %rdx
	movq	%rax, %rcx
	call	_ZStplIcSt11char_traitsIcESaIcEENSt7__cxx1112basic_stringIT_T0_T1_EEPKS5_RKS8_
.LEHE81:
	movq	1040(%rbp), %rax
	leaq	336(%rbp), %rdx
	leaq	.LC52(%rip), %r8
	movq	%rax, %rcx
.LEHB82:
	call	_ZStplIcSt11char_traitsIcESaIcEENSt7__cxx1112basic_stringIT_T0_T1_EEOS8_PKS5_
.LEHE82:
	nop
	leaq	336(%rbp), %rax
	movq	%rax, %rcx
	call	_ZNSt7__cxx1112basic_stringIcSt11char_traitsIcESaIcEED1Ev
	jmp	.L329
.L328:
	leaq	368(%rbp), %rax
	leaq	-64(%rbp), %rdx
	movq	%rdx, %r8
	leaq	.LC53(%rip), %rdx
	movq	%rax, %rcx
.LEHB83:
	call	_ZStplIcSt11char_traitsIcESaIcEENSt7__cxx1112basic_stringIT_T0_T1_EEPKS5_RKS8_
.LEHE83:
	movq	1040(%rbp), %rax
	leaq	368(%rbp), %rdx
	leaq	.LC52(%rip), %r8
	movq	%rax, %rcx
.LEHB84:
	call	_ZStplIcSt11char_traitsIcESaIcEENSt7__cxx1112basic_stringIT_T0_T1_EEOS8_PKS5_
.LEHE84:
	nop
	leaq	368(%rbp), %rax
	movq	%rax, %rcx
	call	_ZNSt7__cxx1112basic_stringIcSt11char_traitsIcESaIcEED1Ev
.L329:
	leaq	-64(%rbp), %rax
	movq	%rax, %rcx
	call	_ZNSt7__cxx1112basic_stringIcSt11char_traitsIcESaIcEED1Ev
	jmp	.L311
.L325:
	movq	1048(%rbp), %rax
	addq	$8, %rax
	leaq	.LC54(%rip), %rdx
	movq	%rax, %rcx
.LEHB85:
	call	_ZSteqIcSt11char_traitsIcESaIcEEbRKNSt7__cxx1112basic_stringIT_T0_T1_EEPKS5_
	testb	%al, %al
	je	.L330
	leaq	16(%rbp), %rax
	movq	%rax, %rcx
	call	_ZNKSt6vectorINSt7__cxx1112basic_stringIcSt11char_traitsIcESaIcEEESaIS5_EE4sizeEv
	testq	%rax, %rax
	je	.L330
	movl	$1, %eax
	jmp	.L331
.L330:
	movl	$0, %eax
.L331:
	testb	%al, %al
	je	.L332
	leaq	16(%rbp), %rax
	movl	$0, %edx
	movq	%rax, %rcx
	call	_ZNSt6vectorINSt7__cxx1112basic_stringIcSt11char_traitsIcESaIcEEESaIS5_EEixEy
	movq	%rax, %rdx
	leaq	400(%rbp), %rax
	movq	%rdx, %r8
	leaq	.LC55(%rip), %rdx
	movq	%rax, %rcx
	call	_ZStplIcSt11char_traitsIcESaIcEENSt7__cxx1112basic_stringIT_T0_T1_EEPKS5_RKS8_
.LEHE85:
	movq	1040(%rbp), %rax
	leaq	400(%rbp), %rdx
	leaq	.LC49(%rip), %r8
	movq	%rax, %rcx
.LEHB86:
	call	_ZStplIcSt11char_traitsIcESaIcEENSt7__cxx1112basic_stringIT_T0_T1_EEOS8_PKS5_
.LEHE86:
	nop
	leaq	400(%rbp), %rax
	movq	%rax, %rcx
	call	_ZNSt7__cxx1112basic_stringIcSt11char_traitsIcESaIcEED1Ev
	jmp	.L311
.L332:
	movq	1048(%rbp), %rax
	addq	$8, %rax
	leaq	.LC56(%rip), %rdx
	movq	%rax, %rcx
.LEHB87:
	call	_ZSteqIcSt11char_traitsIcESaIcEEbRKNSt7__cxx1112basic_stringIT_T0_T1_EEPKS5_
	testb	%al, %al
	je	.L333
	leaq	16(%rbp), %rax
	movq	%rax, %rcx
	call	_ZNKSt6vectorINSt7__cxx1112basic_stringIcSt11char_traitsIcESaIcEEESaIS5_EE4sizeEv
	testq	%rax, %rax
	je	.L333
	movl	$1, %eax
	jmp	.L334
.L333:
	movl	$0, %eax
.L334:
	testb	%al, %al
	je	.L335
	leaq	16(%rbp), %rax
	movl	$0, %edx
	movq	%rax, %rcx
	call	_ZNSt6vectorINSt7__cxx1112basic_stringIcSt11char_traitsIcESaIcEEESaIS5_EEixEy
	movq	%rax, %rdx
	leaq	432(%rbp), %rax
	movq	%rdx, %r8
	leaq	.LC57(%rip), %rdx
	movq	%rax, %rcx
	call	_ZStplIcSt11char_traitsIcESaIcEENSt7__cxx1112basic_stringIT_T0_T1_EEPKS5_RKS8_
.LEHE87:
	movq	1040(%rbp), %rax
	leaq	432(%rbp), %rdx
	leaq	.LC49(%rip), %r8
	movq	%rax, %rcx
.LEHB88:
	call	_ZStplIcSt11char_traitsIcESaIcEENSt7__cxx1112basic_stringIT_T0_T1_EEOS8_PKS5_
.LEHE88:
	nop
	leaq	432(%rbp), %rax
	movq	%rax, %rcx
	call	_ZNSt7__cxx1112basic_stringIcSt11char_traitsIcESaIcEED1Ev
	jmp	.L311
.L335:
	movq	1048(%rbp), %rax
	addq	$8, %rax
	leaq	.LC58(%rip), %rdx
	movq	%rax, %rcx
.LEHB89:
	call	_ZSteqIcSt11char_traitsIcESaIcEEbRKNSt7__cxx1112basic_stringIT_T0_T1_EEPKS5_
	testb	%al, %al
	je	.L336
	leaq	16(%rbp), %rax
	movq	%rax, %rcx
	call	_ZNKSt6vectorINSt7__cxx1112basic_stringIcSt11char_traitsIcESaIcEEESaIS5_EE4sizeEv
	testq	%rax, %rax
	je	.L336
	movl	$1, %eax
	jmp	.L337
.L336:
	movl	$0, %eax
.L337:
	testb	%al, %al
	je	.L338
	leaq	16(%rbp), %rax
	movl	$0, %edx
	movq	%rax, %rcx
	call	_ZNSt6vectorINSt7__cxx1112basic_stringIcSt11char_traitsIcESaIcEEESaIS5_EEixEy
	movq	%rax, %rdx
	leaq	464(%rbp), %rax
	movq	%rdx, %r8
	leaq	.LC59(%rip), %rdx
	movq	%rax, %rcx
	call	_ZStplIcSt11char_traitsIcESaIcEENSt7__cxx1112basic_stringIT_T0_T1_EEPKS5_RKS8_
.LEHE89:
	movq	1040(%rbp), %rax
	leaq	464(%rbp), %rdx
	leaq	.LC49(%rip), %r8
	movq	%rax, %rcx
.LEHB90:
	call	_ZStplIcSt11char_traitsIcESaIcEENSt7__cxx1112basic_stringIT_T0_T1_EEOS8_PKS5_
.LEHE90:
	nop
	leaq	464(%rbp), %rax
	movq	%rax, %rcx
	call	_ZNSt7__cxx1112basic_stringIcSt11char_traitsIcESaIcEED1Ev
	jmp	.L311
.L338:
	movq	1048(%rbp), %rax
	addq	$8, %rax
	leaq	.LC60(%rip), %rdx
	movq	%rax, %rcx
.LEHB91:
	call	_ZSteqIcSt11char_traitsIcESaIcEEbRKNSt7__cxx1112basic_stringIT_T0_T1_EEPKS5_
	testb	%al, %al
	je	.L339
	leaq	16(%rbp), %rax
	movq	%rax, %rcx
	call	_ZNKSt6vectorINSt7__cxx1112basic_stringIcSt11char_traitsIcESaIcEEESaIS5_EE4sizeEv
	testq	%rax, %rax
	je	.L339
	movl	$1, %eax
	jmp	.L340
.L339:
	movl	$0, %eax
.L340:
	testb	%al, %al
	je	.L341
	leaq	16(%rbp), %rax
	movl	$0, %edx
	movq	%rax, %rcx
	call	_ZNSt6vectorINSt7__cxx1112basic_stringIcSt11char_traitsIcESaIcEEESaIS5_EEixEy
	movq	%rax, %rdx
	leaq	496(%rbp), %rax
	movq	%rdx, %r8
	leaq	.LC61(%rip), %rdx
	movq	%rax, %rcx
	call	_ZStplIcSt11char_traitsIcESaIcEENSt7__cxx1112basic_stringIT_T0_T1_EEPKS5_RKS8_
.LEHE91:
	movq	1040(%rbp), %rax
	leaq	496(%rbp), %rdx
	leaq	.LC49(%rip), %r8
	movq	%rax, %rcx
.LEHB92:
	call	_ZStplIcSt11char_traitsIcESaIcEENSt7__cxx1112basic_stringIT_T0_T1_EEOS8_PKS5_
.LEHE92:
	nop
	leaq	496(%rbp), %rax
	movq	%rax, %rcx
	call	_ZNSt7__cxx1112basic_stringIcSt11char_traitsIcESaIcEED1Ev
	jmp	.L311
.L341:
	movq	1048(%rbp), %rax
	addq	$8, %rax
	leaq	.LC62(%rip), %rdx
	movq	%rax, %rcx
.LEHB93:
	call	_ZSteqIcSt11char_traitsIcESaIcEEbRKNSt7__cxx1112basic_stringIT_T0_T1_EEPKS5_
.LEHE93:
	testb	%al, %al
	je	.L342
	leaq	542(%rbp), %rax
	movq	%rax, 960(%rbp)
	nop
	nop
	leaq	542(%rbp), %rdx
	movq	1040(%rbp), %rax
	movq	%rdx, %r8
	leaq	.LC63(%rip), %rdx
	movq	%rax, %rcx
.LEHB94:
	call	_ZNSt7__cxx1112basic_stringIcSt11char_traitsIcESaIcEEC1IS3_EEPKcRKS3_
.LEHE94:
	leaq	542(%rbp), %rax
	movq	%rax, %rcx
	call	_ZNSt15__new_allocatorIcED2Ev
	jmp	.L311
.L342:
	movq	1048(%rbp), %rax
	addq	$8, %rax
	leaq	.LC64(%rip), %rdx
	movq	%rax, %rcx
.LEHB95:
	call	_ZSteqIcSt11char_traitsIcESaIcEEbRKNSt7__cxx1112basic_stringIT_T0_T1_EEPKS5_
.LEHE95:
	testb	%al, %al
	je	.L343
	leaq	543(%rbp), %rax
	movq	%rax, 952(%rbp)
	nop
	nop
	leaq	543(%rbp), %rdx
	movq	1040(%rbp), %rax
	movq	%rdx, %r8
	leaq	.LC65(%rip), %rdx
	movq	%rax, %rcx
.LEHB96:
	call	_ZNSt7__cxx1112basic_stringIcSt11char_traitsIcESaIcEEC1IS3_EEPKcRKS3_
.LEHE96:
	leaq	543(%rbp), %rax
	movq	%rax, %rcx
	call	_ZNSt15__new_allocatorIcED2Ev
	jmp	.L311
.L343:
	movq	1048(%rbp), %rax
	addq	$8, %rax
	leaq	.LC66(%rip), %rdx
	movq	%rax, %rcx
.LEHB97:
	call	_ZSteqIcSt11char_traitsIcESaIcEEbRKNSt7__cxx1112basic_stringIT_T0_T1_EEPKS5_
	testb	%al, %al
	je	.L344
	leaq	16(%rbp), %rax
	movq	%rax, %rcx
	call	_ZNKSt6vectorINSt7__cxx1112basic_stringIcSt11char_traitsIcESaIcEEESaIS5_EE4sizeEv
	cmpq	$4, %rax
	jbe	.L344
	movl	$1, %eax
	jmp	.L345
.L344:
	movl	$0, %eax
.L345:
	testb	%al, %al
	je	.L346
	leaq	16(%rbp), %rax
	movl	$4, %edx
	movq	%rax, %rcx
	call	_ZNSt6vectorINSt7__cxx1112basic_stringIcSt11char_traitsIcESaIcEEESaIS5_EEixEy
	movq	%rax, %rbx
	leaq	16(%rbp), %rax
	movl	$3, %edx
	movq	%rax, %rcx
	call	_ZNSt6vectorINSt7__cxx1112basic_stringIcSt11char_traitsIcESaIcEEESaIS5_EEixEy
	movq	%rax, %rsi
	leaq	16(%rbp), %rax
	movl	$2, %edx
	movq	%rax, %rcx
	call	_ZNSt6vectorINSt7__cxx1112basic_stringIcSt11char_traitsIcESaIcEEESaIS5_EEixEy
	movq	%rax, %rdi
	leaq	16(%rbp), %rax
	movl	$1, %edx
	movq	%rax, %rcx
	call	_ZNSt6vectorINSt7__cxx1112basic_stringIcSt11char_traitsIcESaIcEEESaIS5_EEixEy
	movq	%rax, %r12
	leaq	16(%rbp), %rax
	movl	$0, %edx
	movq	%rax, %rcx
	call	_ZNSt6vectorINSt7__cxx1112basic_stringIcSt11char_traitsIcESaIcEEESaIS5_EEixEy
	movq	%rax, %rdx
	leaq	800(%rbp), %rax
	movq	%rdx, %r8
	leaq	.LC67(%rip), %rdx
	movq	%rax, %rcx
	call	_ZStplIcSt11char_traitsIcESaIcEENSt7__cxx1112basic_stringIT_T0_T1_EEPKS5_RKS8_
.LEHE97:
	leaq	768(%rbp), %rax
	leaq	800(%rbp), %rdx
	leaq	.LC48(%rip), %r8
	movq	%rax, %rcx
.LEHB98:
	call	_ZStplIcSt11char_traitsIcESaIcEENSt7__cxx1112basic_stringIT_T0_T1_EEOS8_PKS5_
.LEHE98:
	leaq	736(%rbp), %rax
	leaq	768(%rbp), %rdx
	movq	%r12, %r8
	movq	%rax, %rcx
.LEHB99:
	call	_ZStplIcSt11char_traitsIcESaIcEENSt7__cxx1112basic_stringIT_T0_T1_EEOS8_RKS8_
.LEHE99:
	leaq	704(%rbp), %rax
	leaq	736(%rbp), %rdx
	leaq	.LC48(%rip), %r8
	movq	%rax, %rcx
.LEHB100:
	call	_ZStplIcSt11char_traitsIcESaIcEENSt7__cxx1112basic_stringIT_T0_T1_EEOS8_PKS5_
.LEHE100:
	leaq	672(%rbp), %rax
	leaq	704(%rbp), %rdx
	movq	%rdi, %r8
	movq	%rax, %rcx
.LEHB101:
	call	_ZStplIcSt11char_traitsIcESaIcEENSt7__cxx1112basic_stringIT_T0_T1_EEOS8_RKS8_
.LEHE101:
	leaq	640(%rbp), %rax
	leaq	672(%rbp), %rdx
	leaq	.LC48(%rip), %r8
	movq	%rax, %rcx
.LEHB102:
	call	_ZStplIcSt11char_traitsIcESaIcEENSt7__cxx1112basic_stringIT_T0_T1_EEOS8_PKS5_
.LEHE102:
	leaq	608(%rbp), %rax
	leaq	640(%rbp), %rdx
	movq	%rsi, %r8
	movq	%rax, %rcx
.LEHB103:
	call	_ZStplIcSt11char_traitsIcESaIcEENSt7__cxx1112basic_stringIT_T0_T1_EEOS8_RKS8_
.LEHE103:
	leaq	576(%rbp), %rax
	leaq	608(%rbp), %rdx
	leaq	.LC48(%rip), %r8
	movq	%rax, %rcx
.LEHB104:
	call	_ZStplIcSt11char_traitsIcESaIcEENSt7__cxx1112basic_stringIT_T0_T1_EEOS8_PKS5_
.LEHE104:
	leaq	544(%rbp), %rax
	leaq	576(%rbp), %rdx
	movq	%rbx, %r8
	movq	%rax, %rcx
.LEHB105:
	call	_ZStplIcSt11char_traitsIcESaIcEENSt7__cxx1112basic_stringIT_T0_T1_EEOS8_RKS8_
.LEHE105:
	movq	1040(%rbp), %rax
	leaq	544(%rbp), %rdx
	leaq	.LC52(%rip), %r8
	movq	%rax, %rcx
.LEHB106:
	call	_ZStplIcSt11char_traitsIcESaIcEENSt7__cxx1112basic_stringIT_T0_T1_EEOS8_PKS5_
.LEHE106:
	nop
	leaq	544(%rbp), %rax
	movq	%rax, %rcx
	call	_ZNSt7__cxx1112basic_stringIcSt11char_traitsIcESaIcEED1Ev
	leaq	576(%rbp), %rax
	movq	%rax, %rcx
	call	_ZNSt7__cxx1112basic_stringIcSt11char_traitsIcESaIcEED1Ev
	leaq	608(%rbp), %rax
	movq	%rax, %rcx
	call	_ZNSt7__cxx1112basic_stringIcSt11char_traitsIcESaIcEED1Ev
	leaq	640(%rbp), %rax
	movq	%rax, %rcx
	call	_ZNSt7__cxx1112basic_stringIcSt11char_traitsIcESaIcEED1Ev
	leaq	672(%rbp), %rax
	movq	%rax, %rcx
	call	_ZNSt7__cxx1112basic_stringIcSt11char_traitsIcESaIcEED1Ev
	leaq	704(%rbp), %rax
	movq	%rax, %rcx
	call	_ZNSt7__cxx1112basic_stringIcSt11char_traitsIcESaIcEED1Ev
	leaq	736(%rbp), %rax
	movq	%rax, %rcx
	call	_ZNSt7__cxx1112basic_stringIcSt11char_traitsIcESaIcEED1Ev
	leaq	768(%rbp), %rax
	movq	%rax, %rcx
	call	_ZNSt7__cxx1112basic_stringIcSt11char_traitsIcESaIcEED1Ev
	leaq	800(%rbp), %rax
	movq	%rax, %rcx
	call	_ZNSt7__cxx1112basic_stringIcSt11char_traitsIcESaIcEED1Ev
	jmp	.L311
.L346:
	leaq	847(%rbp), %rax
	movq	%rax, 944(%rbp)
	nop
	nop
	leaq	847(%rbp), %rdx
	leaq	-16(%rbp), %rax
	movq	%rdx, %r8
	leaq	.LC1(%rip), %rdx
	movq	%rax, %rcx
.LEHB107:
	call	_ZNSt7__cxx1112basic_stringIcSt11char_traitsIcESaIcEEC1IS3_EEPKcRKS3_
.LEHE107:
	leaq	847(%rbp), %rax
	movq	%rax, %rcx
	call	_ZNSt15__new_allocatorIcED2Ev
	nop
	movq	$0, 984(%rbp)
	jmp	.L347
.L350:
	leaq	16(%rbp), %rax
	movq	%rax, %rcx
	call	_ZNKSt6vectorINSt7__cxx1112basic_stringIcSt11char_traitsIcESaIcEEESaIS5_EE4sizeEv
	subq	$1, %rax
	cmpq	%rax, 984(%rbp)
	jnb	.L348
	leaq	.LC48(%rip), %rbx
	jmp	.L349
.L348:
	leaq	.LC1(%rip), %rbx
.L349:
	movq	984(%rbp), %rdx
	leaq	16(%rbp), %rax
	movq	%rax, %rcx
	call	_ZNSt6vectorINSt7__cxx1112basic_stringIcSt11char_traitsIcESaIcEEESaIS5_EEixEy
	movq	%rax, %rdx
	leaq	848(%rbp), %rax
	movq	%rbx, %r8
	movq	%rax, %rcx
.LEHB108:
	call	_ZStplIcSt11char_traitsIcESaIcEENSt7__cxx1112basic_stringIT_T0_T1_EERKS8_PKS5_
.LEHE108:
	leaq	848(%rbp), %rdx
	leaq	-16(%rbp), %rax
	movq	%rax, %rcx
.LEHB109:
	call	_ZNSt7__cxx1112basic_stringIcSt11char_traitsIcESaIcEEpLERKS4_
.LEHE109:
	leaq	848(%rbp), %rax
	movq	%rax, %rcx
	call	_ZNSt7__cxx1112basic_stringIcSt11char_traitsIcESaIcEED1Ev
	addq	$1, 984(%rbp)
.L347:
	leaq	16(%rbp), %rax
	movq	%rax, %rcx
	call	_ZNKSt6vectorINSt7__cxx1112basic_stringIcSt11char_traitsIcESaIcEEESaIS5_EE4sizeEv
	cmpq	%rax, 984(%rbp)
	setb	%al
	testb	%al, %al
	jne	.L350
	movq	1048(%rbp), %rax
	leaq	8(%rax), %rdx
	leaq	912(%rbp), %rax
	leaq	.LC3(%rip), %r8
	movq	%rax, %rcx
.LEHB110:
	call	_ZStplIcSt11char_traitsIcESaIcEENSt7__cxx1112basic_stringIT_T0_T1_EERKS8_PKS5_
.LEHE110:
	leaq	880(%rbp), %rax
	leaq	-16(%rbp), %rcx
	leaq	912(%rbp), %rdx
	movq	%rcx, %r8
	movq	%rax, %rcx
.LEHB111:
	call	_ZStplIcSt11char_traitsIcESaIcEENSt7__cxx1112basic_stringIT_T0_T1_EEOS8_RKS8_
.LEHE111:
	movq	1040(%rbp), %rax
	leaq	880(%rbp), %rdx
	leaq	.LC49(%rip), %r8
	movq	%rax, %rcx
.LEHB112:
	call	_ZStplIcSt11char_traitsIcESaIcEENSt7__cxx1112basic_stringIT_T0_T1_EEOS8_PKS5_
.LEHE112:
	nop
	leaq	880(%rbp), %rax
	movq	%rax, %rcx
	call	_ZNSt7__cxx1112basic_stringIcSt11char_traitsIcESaIcEED1Ev
	leaq	912(%rbp), %rax
	movq	%rax, %rcx
	call	_ZNSt7__cxx1112basic_stringIcSt11char_traitsIcESaIcEED1Ev
	leaq	-16(%rbp), %rax
	movq	%rax, %rcx
	call	_ZNSt7__cxx1112basic_stringIcSt11char_traitsIcESaIcEED1Ev
.L311:
	leaq	16(%rbp), %rax
	movq	%rax, %rcx
	call	_ZNSt6vectorINSt7__cxx1112basic_stringIcSt11char_traitsIcESaIcEEESaIS5_EED1Ev
	jmp	.L426
.L389:
	movq	%rax, %rbx
	leaq	48(%rbp), %rax
	movq	%rax, %rcx
	call	_ZNSt7__cxx1112basic_stringIcSt11char_traitsIcESaIcEED1Ev
	jmp	.L353
.L392:
	movq	%rax, %rbx
	leaq	80(%rbp), %rax
	movq	%rax, %rcx
	call	_ZNSt7__cxx1112basic_stringIcSt11char_traitsIcESaIcEED1Ev
	jmp	.L355
.L391:
	movq	%rax, %rbx
.L355:
	leaq	-64(%rbp), %rax
	movq	%rax, %rcx
	call	_ZNSt7__cxx1112basic_stringIcSt11char_traitsIcESaIcEED1Ev
	jmp	.L353
.L394:
	movq	%rax, %rbx
	leaq	112(%rbp), %rax
	movq	%rax, %rcx
	call	_ZNSt7__cxx1112basic_stringIcSt11char_traitsIcESaIcEED1Ev
	jmp	.L357
.L393:
	movq	%rax, %rbx
.L357:
	leaq	-64(%rbp), %rax
	movq	%rax, %rcx
	call	_ZNSt7__cxx1112basic_stringIcSt11char_traitsIcESaIcEED1Ev
	jmp	.L353
.L399:
	movq	%rax, %rbx
	leaq	144(%rbp), %rax
	movq	%rax, %rcx
	call	_ZNSt7__cxx1112basic_stringIcSt11char_traitsIcESaIcEED1Ev
	jmp	.L359
.L398:
	movq	%rax, %rbx
.L359:
	leaq	176(%rbp), %rax
	movq	%rax, %rcx
	call	_ZNSt7__cxx1112basic_stringIcSt11char_traitsIcESaIcEED1Ev
	jmp	.L360
.L397:
	movq	%rax, %rbx
.L360:
	leaq	208(%rbp), %rax
	movq	%rax, %rcx
	call	_ZNSt7__cxx1112basic_stringIcSt11char_traitsIcESaIcEED1Ev
	jmp	.L361
.L402:
	movq	%rax, %rbx
	leaq	240(%rbp), %rax
	movq	%rax, %rcx
	call	_ZNSt7__cxx1112basic_stringIcSt11char_traitsIcESaIcEED1Ev
	jmp	.L363
.L401:
	movq	%rax, %rbx
.L363:
	leaq	272(%rbp), %rax
	movq	%rax, %rcx
	call	_ZNSt7__cxx1112basic_stringIcSt11char_traitsIcESaIcEED1Ev
	jmp	.L364
.L400:
	movq	%rax, %rbx
.L364:
	leaq	304(%rbp), %rax
	movq	%rax, %rcx
	call	_ZNSt7__cxx1112basic_stringIcSt11char_traitsIcESaIcEED1Ev
	jmp	.L361
.L396:
	movq	%rax, %rbx
.L361:
	leaq	-64(%rbp), %rax
	movq	%rax, %rcx
	call	_ZNSt7__cxx1112basic_stringIcSt11char_traitsIcESaIcEED1Ev
	jmp	.L365
.L395:
	movq	%rax, %rbx
.L365:
	leaq	-96(%rbp), %rax
	movq	%rax, %rcx
	call	_ZNSt7__cxx1112basic_stringIcSt11char_traitsIcESaIcEED1Ev
	jmp	.L353
.L404:
	movq	%rax, %rbx
	leaq	336(%rbp), %rax
	movq	%rax, %rcx
	call	_ZNSt7__cxx1112basic_stringIcSt11char_traitsIcESaIcEED1Ev
	jmp	.L367
.L405:
	movq	%rax, %rbx
	leaq	368(%rbp), %rax
	movq	%rax, %rcx
	call	_ZNSt7__cxx1112basic_stringIcSt11char_traitsIcESaIcEED1Ev
	jmp	.L367
.L403:
	movq	%rax, %rbx
.L367:
	leaq	-64(%rbp), %rax
	movq	%rax, %rcx
	call	_ZNSt7__cxx1112basic_stringIcSt11char_traitsIcESaIcEED1Ev
	jmp	.L353
.L406:
	movq	%rax, %rbx
	leaq	400(%rbp), %rax
	movq	%rax, %rcx
	call	_ZNSt7__cxx1112basic_stringIcSt11char_traitsIcESaIcEED1Ev
	jmp	.L353
.L407:
	movq	%rax, %rbx
	leaq	432(%rbp), %rax
	movq	%rax, %rcx
	call	_ZNSt7__cxx1112basic_stringIcSt11char_traitsIcESaIcEED1Ev
	jmp	.L353
.L408:
	movq	%rax, %rbx
	leaq	464(%rbp), %rax
	movq	%rax, %rcx
	call	_ZNSt7__cxx1112basic_stringIcSt11char_traitsIcESaIcEED1Ev
	jmp	.L353
.L409:
	movq	%rax, %rbx
	leaq	496(%rbp), %rax
	movq	%rax, %rcx
	call	_ZNSt7__cxx1112basic_stringIcSt11char_traitsIcESaIcEED1Ev
	jmp	.L353
.L410:
	movq	%rax, %rbx
	leaq	542(%rbp), %rax
	movq	%rax, %rcx
	call	_ZNSt15__new_allocatorIcED2Ev
	nop
	jmp	.L353
.L411:
	movq	%rax, %rbx
	leaq	543(%rbp), %rax
	movq	%rax, %rcx
	call	_ZNSt15__new_allocatorIcED2Ev
	nop
	jmp	.L353
.L420:
	movq	%rax, %rbx
	leaq	544(%rbp), %rax
	movq	%rax, %rcx
	call	_ZNSt7__cxx1112basic_stringIcSt11char_traitsIcESaIcEED1Ev
	jmp	.L376
.L419:
	movq	%rax, %rbx
.L376:
	leaq	576(%rbp), %rax
	movq	%rax, %rcx
	call	_ZNSt7__cxx1112basic_stringIcSt11char_traitsIcESaIcEED1Ev
	jmp	.L377
.L418:
	movq	%rax, %rbx
.L377:
	leaq	608(%rbp), %rax
	movq	%rax, %rcx
	call	_ZNSt7__cxx1112basic_stringIcSt11char_traitsIcESaIcEED1Ev
	jmp	.L378
.L417:
	movq	%rax, %rbx
.L378:
	leaq	640(%rbp), %rax
	movq	%rax, %rcx
	call	_ZNSt7__cxx1112basic_stringIcSt11char_traitsIcESaIcEED1Ev
	jmp	.L379
.L416:
	movq	%rax, %rbx
.L379:
	leaq	672(%rbp), %rax
	movq	%rax, %rcx
	call	_ZNSt7__cxx1112basic_stringIcSt11char_traitsIcESaIcEED1Ev
	jmp	.L380
.L415:
	movq	%rax, %rbx
.L380:
	leaq	704(%rbp), %rax
	movq	%rax, %rcx
	call	_ZNSt7__cxx1112basic_stringIcSt11char_traitsIcESaIcEED1Ev
	jmp	.L381
.L414:
	movq	%rax, %rbx
.L381:
	leaq	736(%rbp), %rax
	movq	%rax, %rcx
	call	_ZNSt7__cxx1112basic_stringIcSt11char_traitsIcESaIcEED1Ev
	jmp	.L382
.L413:
	movq	%rax, %rbx
.L382:
	leaq	768(%rbp), %rax
	movq	%rax, %rcx
	call	_ZNSt7__cxx1112basic_stringIcSt11char_traitsIcESaIcEED1Ev
	jmp	.L383
.L412:
	movq	%rax, %rbx
.L383:
	leaq	800(%rbp), %rax
	movq	%rax, %rcx
	call	_ZNSt7__cxx1112basic_stringIcSt11char_traitsIcESaIcEED1Ev
	jmp	.L353
.L421:
	movq	%rax, %rbx
	leaq	847(%rbp), %rax
	movq	%rax, %rcx
	call	_ZNSt15__new_allocatorIcED2Ev
	nop
	jmp	.L353
.L422:
	movq	%rax, %rbx
	leaq	848(%rbp), %rax
	movq	%rax, %rcx
	call	_ZNSt7__cxx1112basic_stringIcSt11char_traitsIcESaIcEED1Ev
	jmp	.L386
.L425:
	movq	%rax, %rbx
	leaq	880(%rbp), %rax
	movq	%rax, %rcx
	call	_ZNSt7__cxx1112basic_stringIcSt11char_traitsIcESaIcEED1Ev
	jmp	.L388
.L424:
	movq	%rax, %rbx
.L388:
	leaq	912(%rbp), %rax
	movq	%rax, %rcx
	call	_ZNSt7__cxx1112basic_stringIcSt11char_traitsIcESaIcEED1Ev
	jmp	.L386
.L423:
	movq	%rax, %rbx
.L386:
	leaq	-16(%rbp), %rax
	movq	%rax, %rcx
	call	_ZNSt7__cxx1112basic_stringIcSt11char_traitsIcESaIcEED1Ev
	jmp	.L353
.L390:
	movq	%rax, %rbx
.L353:
	leaq	16(%rbp), %rax
	movq	%rax, %rcx
	call	_ZNSt6vectorINSt7__cxx1112basic_stringIcSt11char_traitsIcESaIcEEESaIS5_EED1Ev
	movq	%rbx, %rax
	movq	%rax, %rcx
.LEHB113:
	call	_Unwind_Resume
.LEHE113:
.L426:
	movq	1040(%rbp), %rax
	addq	$1120, %rsp
	popq	%rbx
	popq	%rsi
	popq	%rdi
	popq	%r12
	popq	%rbp
	ret
	.seh_handler	__gxx_personality_seh0, @unwind, @except
	.seh_handlerdata
.LLSDA3958:
	.byte	0xff
	.byte	0xff
	.byte	0x1
	.uleb128 .LLSDACSE3958-.LLSDACSB3958
.LLSDACSB3958:
	.uleb128 .LEHB62-.LFB3958
	.uleb128 .LEHE62-.LEHB62
	.uleb128 .L390-.LFB3958
	.uleb128 0
	.uleb128 .LEHB63-.LFB3958
	.uleb128 .LEHE63-.LEHB63
	.uleb128 .L389-.LFB3958
	.uleb128 0
	.uleb128 .LEHB64-.LFB3958
	.uleb128 .LEHE64-.LEHB64
	.uleb128 .L390-.LFB3958
	.uleb128 0
	.uleb128 .LEHB65-.LFB3958
	.uleb128 .LEHE65-.LEHB65
	.uleb128 .L391-.LFB3958
	.uleb128 0
	.uleb128 .LEHB66-.LFB3958
	.uleb128 .LEHE66-.LEHB66
	.uleb128 .L392-.LFB3958
	.uleb128 0
	.uleb128 .LEHB67-.LFB3958
	.uleb128 .LEHE67-.LEHB67
	.uleb128 .L390-.LFB3958
	.uleb128 0
	.uleb128 .LEHB68-.LFB3958
	.uleb128 .LEHE68-.LEHB68
	.uleb128 .L393-.LFB3958
	.uleb128 0
	.uleb128 .LEHB69-.LFB3958
	.uleb128 .LEHE69-.LEHB69
	.uleb128 .L394-.LFB3958
	.uleb128 0
	.uleb128 .LEHB70-.LFB3958
	.uleb128 .LEHE70-.LEHB70
	.uleb128 .L390-.LFB3958
	.uleb128 0
	.uleb128 .LEHB71-.LFB3958
	.uleb128 .LEHE71-.LEHB71
	.uleb128 .L395-.LFB3958
	.uleb128 0
	.uleb128 .LEHB72-.LFB3958
	.uleb128 .LEHE72-.LEHB72
	.uleb128 .L396-.LFB3958
	.uleb128 0
	.uleb128 .LEHB73-.LFB3958
	.uleb128 .LEHE73-.LEHB73
	.uleb128 .L397-.LFB3958
	.uleb128 0
	.uleb128 .LEHB74-.LFB3958
	.uleb128 .LEHE74-.LEHB74
	.uleb128 .L398-.LFB3958
	.uleb128 0
	.uleb128 .LEHB75-.LFB3958
	.uleb128 .LEHE75-.LEHB75
	.uleb128 .L399-.LFB3958
	.uleb128 0
	.uleb128 .LEHB76-.LFB3958
	.uleb128 .LEHE76-.LEHB76
	.uleb128 .L396-.LFB3958
	.uleb128 0
	.uleb128 .LEHB77-.LFB3958
	.uleb128 .LEHE77-.LEHB77
	.uleb128 .L400-.LFB3958
	.uleb128 0
	.uleb128 .LEHB78-.LFB3958
	.uleb128 .LEHE78-.LEHB78
	.uleb128 .L401-.LFB3958
	.uleb128 0
	.uleb128 .LEHB79-.LFB3958
	.uleb128 .LEHE79-.LEHB79
	.uleb128 .L402-.LFB3958
	.uleb128 0
	.uleb128 .LEHB80-.LFB3958
	.uleb128 .LEHE80-.LEHB80
	.uleb128 .L390-.LFB3958
	.uleb128 0
	.uleb128 .LEHB81-.LFB3958
	.uleb128 .LEHE81-.LEHB81
	.uleb128 .L403-.LFB3958
	.uleb128 0
	.uleb128 .LEHB82-.LFB3958
	.uleb128 .LEHE82-.LEHB82
	.uleb128 .L404-.LFB3958
	.uleb128 0
	.uleb128 .LEHB83-.LFB3958
	.uleb128 .LEHE83-.LEHB83
	.uleb128 .L403-.LFB3958
	.uleb128 0
	.uleb128 .LEHB84-.LFB3958
	.uleb128 .LEHE84-.LEHB84
	.uleb128 .L405-.LFB3958
	.uleb128 0
	.uleb128 .LEHB85-.LFB3958
	.uleb128 .LEHE85-.LEHB85
	.uleb128 .L390-.LFB3958
	.uleb128 0
	.uleb128 .LEHB86-.LFB3958
	.uleb128 .LEHE86-.LEHB86
	.uleb128 .L406-.LFB3958
	.uleb128 0
	.uleb128 .LEHB87-.LFB3958
	.uleb128 .LEHE87-.LEHB87
	.uleb128 .L390-.LFB3958
	.uleb128 0
	.uleb128 .LEHB88-.LFB3958
	.uleb128 .LEHE88-.LEHB88
	.uleb128 .L407-.LFB3958
	.uleb128 0
	.uleb128 .LEHB89-.LFB3958
	.uleb128 .LEHE89-.LEHB89
	.uleb128 .L390-.LFB3958
	.uleb128 0
	.uleb128 .LEHB90-.LFB3958
	.uleb128 .LEHE90-.LEHB90
	.uleb128 .L408-.LFB3958
	.uleb128 0
	.uleb128 .LEHB91-.LFB3958
	.uleb128 .LEHE91-.LEHB91
	.uleb128 .L390-.LFB3958
	.uleb128 0
	.uleb128 .LEHB92-.LFB3958
	.uleb128 .LEHE92-.LEHB92
	.uleb128 .L409-.LFB3958
	.uleb128 0
	.uleb128 .LEHB93-.LFB3958
	.uleb128 .LEHE93-.LEHB93
	.uleb128 .L390-.LFB3958
	.uleb128 0
	.uleb128 .LEHB94-.LFB3958
	.uleb128 .LEHE94-.LEHB94
	.uleb128 .L410-.LFB3958
	.uleb128 0
	.uleb128 .LEHB95-.LFB3958
	.uleb128 .LEHE95-.LEHB95
	.uleb128 .L390-.LFB3958
	.uleb128 0
	.uleb128 .LEHB96-.LFB3958
	.uleb128 .LEHE96-.LEHB96
	.uleb128 .L411-.LFB3958
	.uleb128 0
	.uleb128 .LEHB97-.LFB3958
	.uleb128 .LEHE97-.LEHB97
	.uleb128 .L390-.LFB3958
	.uleb128 0
	.uleb128 .LEHB98-.LFB3958
	.uleb128 .LEHE98-.LEHB98
	.uleb128 .L412-.LFB3958
	.uleb128 0
	.uleb128 .LEHB99-.LFB3958
	.uleb128 .LEHE99-.LEHB99
	.uleb128 .L413-.LFB3958
	.uleb128 0
	.uleb128 .LEHB100-.LFB3958
	.uleb128 .LEHE100-.LEHB100
	.uleb128 .L414-.LFB3958
	.uleb128 0
	.uleb128 .LEHB101-.LFB3958
	.uleb128 .LEHE101-.LEHB101
	.uleb128 .L415-.LFB3958
	.uleb128 0
	.uleb128 .LEHB102-.LFB3958
	.uleb128 .LEHE102-.LEHB102
	.uleb128 .L416-.LFB3958
	.uleb128 0
	.uleb128 .LEHB103-.LFB3958
	.uleb128 .LEHE103-.LEHB103
	.uleb128 .L417-.LFB3958
	.uleb128 0
	.uleb128 .LEHB104-.LFB3958
	.uleb128 .LEHE104-.LEHB104
	.uleb128 .L418-.LFB3958
	.uleb128 0
	.uleb128 .LEHB105-.LFB3958
	.uleb128 .LEHE105-.LEHB105
	.uleb128 .L419-.LFB3958
	.uleb128 0
	.uleb128 .LEHB106-.LFB3958
	.uleb128 .LEHE106-.LEHB106
	.uleb128 .L420-.LFB3958
	.uleb128 0
	.uleb128 .LEHB107-.LFB3958
	.uleb128 .LEHE107-.LEHB107
	.uleb128 .L421-.LFB3958
	.uleb128 0
	.uleb128 .LEHB108-.LFB3958
	.uleb128 .LEHE108-.LEHB108
	.uleb128 .L423-.LFB3958
	.uleb128 0
	.uleb128 .LEHB109-.LFB3958
	.uleb128 .LEHE109-.LEHB109
	.uleb128 .L422-.LFB3958
	.uleb128 0
	.uleb128 .LEHB110-.LFB3958
	.uleb128 .LEHE110-.LEHB110
	.uleb128 .L423-.LFB3958
	.uleb128 0
	.uleb128 .LEHB111-.LFB3958
	.uleb128 .LEHE111-.LEHB111
	.uleb128 .L424-.LFB3958
	.uleb128 0
	.uleb128 .LEHB112-.LFB3958
	.uleb128 .LEHE112-.LEHB112
	.uleb128 .L425-.LFB3958
	.uleb128 0
	.uleb128 .LEHB113-.LFB3958
	.uleb128 .LEHE113-.LEHB113
	.uleb128 0
	.uleb128 0
.LLSDACSE3958:
	.section	.text$_ZN16FunctionCallNode5toCppB5cxx11Ev,"x"
	.linkonce discard
	.seh_endproc
	.section	.text$_ZN11LiteralNodeC1ERKNSt7__cxx1112basic_stringIcSt11char_traitsIcESaIcEEERKb,"x"
	.linkonce discard
	.align 2
	.globl	_ZN11LiteralNodeC1ERKNSt7__cxx1112basic_stringIcSt11char_traitsIcESaIcEEERKb
	.def	_ZN11LiteralNodeC1ERKNSt7__cxx1112basic_stringIcSt11char_traitsIcESaIcEEERKb;	.scl	2;	.type	32;	.endef
	.seh_proc	_ZN11LiteralNodeC1ERKNSt7__cxx1112basic_stringIcSt11char_traitsIcESaIcEEERKb
_ZN11LiteralNodeC1ERKNSt7__cxx1112basic_stringIcSt11char_traitsIcESaIcEEERKb:
.LFB3961:
	pushq	%rbp
	.seh_pushreg	%rbp
	pushq	%rbx
	.seh_pushreg	%rbx
	subq	$40, %rsp
	.seh_stackalloc	40
	leaq	32(%rsp), %rbp
	.seh_setframe	%rbp, 32
	.seh_endprologue
	movq	%rcx, 32(%rbp)
	movq	%rdx, 40(%rbp)
	movq	%r8, 48(%rbp)
	movq	32(%rbp), %rax
	movq	%rax, %rcx
	call	_ZN7ASTNodeC2Ev
	leaq	16+_ZTV11LiteralNode(%rip), %rdx
	movq	32(%rbp), %rax
	movq	%rdx, (%rax)
	movq	32(%rbp), %rax
	leaq	8(%rax), %rcx
	movq	40(%rbp), %rax
	movq	%rax, %rdx
.LEHB114:
	call	_ZNSt7__cxx1112basic_stringIcSt11char_traitsIcESaIcEEC1ERKS4_
.LEHE114:
	movq	48(%rbp), %rax
	movzbl	(%rax), %edx
	movq	32(%rbp), %rax
	movb	%dl, 40(%rax)
	jmp	.L430
.L429:
	movq	%rax, %rbx
	movq	32(%rbp), %rax
	movq	%rax, %rcx
	call	_ZN7ASTNodeD2Ev
	movq	%rbx, %rax
	movq	%rax, %rcx
.LEHB115:
	call	_Unwind_Resume
	nop
.LEHE115:
.L430:
	addq	$40, %rsp
	popq	%rbx
	popq	%rbp
	ret
	.seh_handler	__gxx_personality_seh0, @unwind, @except
	.seh_handlerdata
.LLSDA3961:
	.byte	0xff
	.byte	0xff
	.byte	0x1
	.uleb128 .LLSDACSE3961-.LLSDACSB3961
.LLSDACSB3961:
	.uleb128 .LEHB114-.LFB3961
	.uleb128 .LEHE114-.LEHB114
	.uleb128 .L429-.LFB3961
	.uleb128 0
	.uleb128 .LEHB115-.LFB3961
	.uleb128 .LEHE115-.LEHB115
	.uleb128 0
	.uleb128 0
.LLSDACSE3961:
	.section	.text$_ZN11LiteralNodeC1ERKNSt7__cxx1112basic_stringIcSt11char_traitsIcESaIcEEERKb,"x"
	.linkonce discard
	.seh_endproc
	.section .rdata,"dr"
.LC68:
	.ascii "F(\0"
	.section	.text$_ZN11LiteralNode5toCppB5cxx11Ev,"x"
	.linkonce discard
	.align 2
	.globl	_ZN11LiteralNode5toCppB5cxx11Ev
	.def	_ZN11LiteralNode5toCppB5cxx11Ev;	.scl	2;	.type	32;	.endef
	.seh_proc	_ZN11LiteralNode5toCppB5cxx11Ev
_ZN11LiteralNode5toCppB5cxx11Ev:
.LFB3962:
	pushq	%rbp
	.seh_pushreg	%rbp
	pushq	%rbx
	.seh_pushreg	%rbx
	subq	$72, %rsp
	.seh_stackalloc	72
	leaq	64(%rsp), %rbp
	.seh_setframe	%rbp, 64
	.seh_endprologue
	movq	%rcx, 32(%rbp)
	movq	%rdx, 40(%rbp)
	movq	40(%rbp), %rax
	movzbl	40(%rax), %eax
	testb	%al, %al
	je	.L432
	movq	40(%rbp), %rax
	leaq	8(%rax), %rdx
	leaq	-32(%rbp), %rax
	movq	%rdx, %r8
	leaq	.LC68(%rip), %rdx
	movq	%rax, %rcx
.LEHB116:
	call	_ZStplIcSt11char_traitsIcESaIcEENSt7__cxx1112basic_stringIT_T0_T1_EEPKS5_RKS8_
.LEHE116:
	movq	32(%rbp), %rax
	leaq	-32(%rbp), %rdx
	leaq	.LC52(%rip), %r8
	movq	%rax, %rcx
.LEHB117:
	call	_ZStplIcSt11char_traitsIcESaIcEENSt7__cxx1112basic_stringIT_T0_T1_EEOS8_PKS5_
.LEHE117:
	nop
	leaq	-32(%rbp), %rax
	movq	%rax, %rcx
	call	_ZNSt7__cxx1112basic_stringIcSt11char_traitsIcESaIcEED1Ev
	jmp	.L431
.L432:
	movq	40(%rbp), %rax
	leaq	8(%rax), %rdx
	movq	32(%rbp), %rax
	movq	%rax, %rcx
.LEHB118:
	call	_ZNSt7__cxx1112basic_stringIcSt11char_traitsIcESaIcEEC1ERKS4_
	jmp	.L431
.L435:
	movq	%rax, %rbx
	leaq	-32(%rbp), %rax
	movq	%rax, %rcx
	call	_ZNSt7__cxx1112basic_stringIcSt11char_traitsIcESaIcEED1Ev
	movq	%rbx, %rax
	movq	%rax, %rcx
	call	_Unwind_Resume
.LEHE118:
.L431:
	movq	32(%rbp), %rax
	addq	$72, %rsp
	popq	%rbx
	popq	%rbp
	ret
	.seh_handler	__gxx_personality_seh0, @unwind, @except
	.seh_handlerdata
.LLSDA3962:
	.byte	0xff
	.byte	0xff
	.byte	0x1
	.uleb128 .LLSDACSE3962-.LLSDACSB3962
.LLSDACSB3962:
	.uleb128 .LEHB116-.LFB3962
	.uleb128 .LEHE116-.LEHB116
	.uleb128 0
	.uleb128 0
	.uleb128 .LEHB117-.LFB3962
	.uleb128 .LEHE117-.LEHB117
	.uleb128 .L435-.LFB3962
	.uleb128 0
	.uleb128 .LEHB118-.LFB3962
	.uleb128 .LEHE118-.LEHB118
	.uleb128 0
	.uleb128 0
.LLSDACSE3962:
	.section	.text$_ZN11LiteralNode5toCppB5cxx11Ev,"x"
	.linkonce discard
	.seh_endproc
	.section	.text$_ZNSt15__uniq_ptr_dataI7ASTNodeSt14default_deleteIS0_ELb1ELb1EEC1EOS3_,"x"
	.linkonce discard
	.align 2
	.globl	_ZNSt15__uniq_ptr_dataI7ASTNodeSt14default_deleteIS0_ELb1ELb1EEC1EOS3_
	.def	_ZNSt15__uniq_ptr_dataI7ASTNodeSt14default_deleteIS0_ELb1ELb1EEC1EOS3_;	.scl	2;	.type	32;	.endef
	.seh_proc	_ZNSt15__uniq_ptr_dataI7ASTNodeSt14default_deleteIS0_ELb1ELb1EEC1EOS3_
_ZNSt15__uniq_ptr_dataI7ASTNodeSt14default_deleteIS0_ELb1ELb1EEC1EOS3_:
.LFB3967:
	pushq	%rbp
	.seh_pushreg	%rbp
	movq	%rsp, %rbp
	.seh_setframe	%rbp, 0
	subq	$32, %rsp
	.seh_stackalloc	32
	.seh_endprologue
	movq	%rcx, 16(%rbp)
	movq	%rdx, 24(%rbp)
	movq	16(%rbp), %rax
	movq	24(%rbp), %rdx
	movq	%rax, %rcx
	call	_ZNSt15__uniq_ptr_implI7ASTNodeSt14default_deleteIS0_EEC2EOS3_
	nop
	addq	$32, %rsp
	popq	%rbp
	ret
	.seh_endproc
	.section	.text$_ZNSt10unique_ptrI7ASTNodeSt14default_deleteIS0_EEC1EOS3_,"x"
	.linkonce discard
	.align 2
	.globl	_ZNSt10unique_ptrI7ASTNodeSt14default_deleteIS0_EEC1EOS3_
	.def	_ZNSt10unique_ptrI7ASTNodeSt14default_deleteIS0_EEC1EOS3_;	.scl	2;	.type	32;	.endef
	.seh_proc	_ZNSt10unique_ptrI7ASTNodeSt14default_deleteIS0_EEC1EOS3_
_ZNSt10unique_ptrI7ASTNodeSt14default_deleteIS0_EEC1EOS3_:
.LFB3969:
	pushq	%rbp
	.seh_pushreg	%rbp
	movq	%rsp, %rbp
	.seh_setframe	%rbp, 0
	subq	$32, %rsp
	.seh_stackalloc	32
	.seh_endprologue
	movq	%rcx, 16(%rbp)
	movq	%rdx, 24(%rbp)
	movq	16(%rbp), %rax
	movq	24(%rbp), %rdx
	movq	%rax, %rcx
	call	_ZNSt15__uniq_ptr_dataI7ASTNodeSt14default_deleteIS0_ELb1ELb1EEC1EOS3_
	nop
	addq	$32, %rsp
	popq	%rbp
	ret
	.seh_endproc
	.section	.text$_ZN12BinaryOpNodeC1ESt10unique_ptrI7ASTNodeSt14default_deleteIS1_EENSt7__cxx1112basic_stringIcSt11char_traitsIcESaIcEEES4_,"x"
	.linkonce discard
	.align 2
	.globl	_ZN12BinaryOpNodeC1ESt10unique_ptrI7ASTNodeSt14default_deleteIS1_EENSt7__cxx1112basic_stringIcSt11char_traitsIcESaIcEEES4_
	.def	_ZN12BinaryOpNodeC1ESt10unique_ptrI7ASTNodeSt14default_deleteIS1_EENSt7__cxx1112basic_stringIcSt11char_traitsIcESaIcEEES4_;	.scl	2;	.type	32;	.endef
	.seh_proc	_ZN12BinaryOpNodeC1ESt10unique_ptrI7ASTNodeSt14default_deleteIS1_EENSt7__cxx1112basic_stringIcSt11char_traitsIcESaIcEEES4_
_ZN12BinaryOpNodeC1ESt10unique_ptrI7ASTNodeSt14default_deleteIS1_EENSt7__cxx1112basic_stringIcSt11char_traitsIcESaIcEEES4_:
.LFB3971:
	pushq	%rbp
	.seh_pushreg	%rbp
	pushq	%rbx
	.seh_pushreg	%rbx
	subq	$40, %rsp
	.seh_stackalloc	40
	leaq	32(%rsp), %rbp
	.seh_setframe	%rbp, 32
	.seh_endprologue
	movq	%rcx, 32(%rbp)
	movq	%rdx, 40(%rbp)
	movq	%r8, 48(%rbp)
	movq	%r9, 56(%rbp)
	movq	32(%rbp), %rax
	movq	%rax, %rcx
	call	_ZN7ASTNodeC2Ev
	leaq	16+_ZTV12BinaryOpNode(%rip), %rdx
	movq	32(%rbp), %rax
	movq	%rdx, (%rax)
	movq	32(%rbp), %rax
	leaq	8(%rax), %rbx
	movq	40(%rbp), %rax
	movq	%rax, %rcx
	call	_ZSt4moveIRSt10unique_ptrI7ASTNodeSt14default_deleteIS1_EEEONSt16remove_referenceIT_E4typeEOS7_
	movq	%rax, %rdx
	movq	%rbx, %rcx
	call	_ZNSt10unique_ptrI7ASTNodeSt14default_deleteIS0_EEC1EOS3_
	movq	32(%rbp), %rax
	leaq	16(%rax), %rcx
	movq	48(%rbp), %rax
	movq	%rax, %rdx
.LEHB119:
	call	_ZNSt7__cxx1112basic_stringIcSt11char_traitsIcESaIcEEC1ERKS4_
.LEHE119:
	movq	32(%rbp), %rax
	leaq	48(%rax), %rbx
	movq	56(%rbp), %rax
	movq	%rax, %rcx
	call	_ZSt4moveIRSt10unique_ptrI7ASTNodeSt14default_deleteIS1_EEEONSt16remove_referenceIT_E4typeEOS7_
	movq	%rax, %rdx
	movq	%rbx, %rcx
	call	_ZNSt10unique_ptrI7ASTNodeSt14default_deleteIS0_EEC1EOS3_
	jmp	.L441
.L440:
	movq	%rax, %rbx
	movq	32(%rbp), %rax
	addq	$8, %rax
	movq	%rax, %rcx
	call	_ZNSt10unique_ptrI7ASTNodeSt14default_deleteIS0_EED1Ev
	movq	32(%rbp), %rax
	movq	%rax, %rcx
	call	_ZN7ASTNodeD2Ev
	movq	%rbx, %rax
	movq	%rax, %rcx
.LEHB120:
	call	_Unwind_Resume
	nop
.LEHE120:
.L441:
	addq	$40, %rsp
	popq	%rbx
	popq	%rbp
	ret
	.seh_handler	__gxx_personality_seh0, @unwind, @except
	.seh_handlerdata
.LLSDA3971:
	.byte	0xff
	.byte	0xff
	.byte	0x1
	.uleb128 .LLSDACSE3971-.LLSDACSB3971
.LLSDACSB3971:
	.uleb128 .LEHB119-.LFB3971
	.uleb128 .LEHE119-.LEHB119
	.uleb128 .L440-.LFB3971
	.uleb128 0
	.uleb128 .LEHB120-.LFB3971
	.uleb128 .LEHE120-.LEHB120
	.uleb128 0
	.uleb128 0
.LLSDACSE3971:
	.section	.text$_ZN12BinaryOpNodeC1ESt10unique_ptrI7ASTNodeSt14default_deleteIS1_EENSt7__cxx1112basic_stringIcSt11char_traitsIcESaIcEEES4_,"x"
	.linkonce discard
	.seh_endproc
	.section	.text$_ZN12BinaryOpNode5toCppB5cxx11Ev,"x"
	.linkonce discard
	.align 2
	.globl	_ZN12BinaryOpNode5toCppB5cxx11Ev
	.def	_ZN12BinaryOpNode5toCppB5cxx11Ev;	.scl	2;	.type	32;	.endef
	.seh_proc	_ZN12BinaryOpNode5toCppB5cxx11Ev
_ZN12BinaryOpNode5toCppB5cxx11Ev:
.LFB3972:
	pushq	%rbp
	.seh_pushreg	%rbp
	pushq	%rbx
	.seh_pushreg	%rbx
	subq	$200, %rsp
	.seh_stackalloc	200
	leaq	192(%rsp), %rbp
	.seh_setframe	%rbp, 192
	.seh_endprologue
	movq	%rcx, 32(%rbp)
	movq	%rdx, 40(%rbp)
	movq	40(%rbp), %rax
	addq	$48, %rax
	movq	%rax, %rcx
	call	_ZNKSt10unique_ptrI7ASTNodeSt14default_deleteIS0_EEptEv
	movq	(%rax), %rdx
	addq	$16, %rdx
	movq	(%rdx), %r8
	leaq	-160(%rbp), %rcx
	movq	%rax, %rdx
.LEHB121:
	call	*%r8
.LEHE121:
	movq	40(%rbp), %rax
	leaq	16(%rax), %rbx
	movq	40(%rbp), %rax
	addq	$8, %rax
	movq	%rax, %rcx
	call	_ZNKSt10unique_ptrI7ASTNodeSt14default_deleteIS0_EEptEv
	movq	(%rax), %rdx
	addq	$16, %rdx
	movq	(%rdx), %r8
	leaq	-32(%rbp), %rcx
	movq	%rax, %rdx
.LEHB122:
	call	*%r8
.LEHE122:
	leaq	-64(%rbp), %rax
	leaq	-32(%rbp), %rdx
	leaq	.LC5(%rip), %r8
	movq	%rax, %rcx
.LEHB123:
	call	_ZStplIcSt11char_traitsIcESaIcEENSt7__cxx1112basic_stringIT_T0_T1_EEOS8_PKS5_
.LEHE123:
	leaq	-96(%rbp), %rax
	leaq	-64(%rbp), %rdx
	movq	%rbx, %r8
	movq	%rax, %rcx
.LEHB124:
	call	_ZStplIcSt11char_traitsIcESaIcEENSt7__cxx1112basic_stringIT_T0_T1_EEOS8_RKS8_
.LEHE124:
	leaq	-128(%rbp), %rax
	leaq	-96(%rbp), %rdx
	leaq	.LC5(%rip), %r8
	movq	%rax, %rcx
.LEHB125:
	call	_ZStplIcSt11char_traitsIcESaIcEENSt7__cxx1112basic_stringIT_T0_T1_EEOS8_PKS5_
.LEHE125:
	movq	32(%rbp), %rax
	leaq	-160(%rbp), %rcx
	leaq	-128(%rbp), %rdx
	movq	%rcx, %r8
	movq	%rax, %rcx
.LEHB126:
	call	_ZStplIcSt11char_traitsIcESaIcEENSt7__cxx1112basic_stringIT_T0_T1_EEOS8_S9_
.LEHE126:
	nop
	leaq	-128(%rbp), %rax
	movq	%rax, %rcx
	call	_ZNSt7__cxx1112basic_stringIcSt11char_traitsIcESaIcEED1Ev
	leaq	-96(%rbp), %rax
	movq	%rax, %rcx
	call	_ZNSt7__cxx1112basic_stringIcSt11char_traitsIcESaIcEED1Ev
	leaq	-64(%rbp), %rax
	movq	%rax, %rcx
	call	_ZNSt7__cxx1112basic_stringIcSt11char_traitsIcESaIcEED1Ev
	leaq	-32(%rbp), %rax
	movq	%rax, %rcx
	call	_ZNSt7__cxx1112basic_stringIcSt11char_traitsIcESaIcEED1Ev
	leaq	-160(%rbp), %rax
	movq	%rax, %rcx
	call	_ZNSt7__cxx1112basic_stringIcSt11char_traitsIcESaIcEED1Ev
	jmp	.L454
.L453:
	movq	%rax, %rbx
	leaq	-128(%rbp), %rax
	movq	%rax, %rcx
	call	_ZNSt7__cxx1112basic_stringIcSt11char_traitsIcESaIcEED1Ev
	jmp	.L445
.L452:
	movq	%rax, %rbx
.L445:
	leaq	-96(%rbp), %rax
	movq	%rax, %rcx
	call	_ZNSt7__cxx1112basic_stringIcSt11char_traitsIcESaIcEED1Ev
	jmp	.L446
.L451:
	movq	%rax, %rbx
.L446:
	leaq	-64(%rbp), %rax
	movq	%rax, %rcx
	call	_ZNSt7__cxx1112basic_stringIcSt11char_traitsIcESaIcEED1Ev
	jmp	.L447
.L450:
	movq	%rax, %rbx
.L447:
	leaq	-32(%rbp), %rax
	movq	%rax, %rcx
	call	_ZNSt7__cxx1112basic_stringIcSt11char_traitsIcESaIcEED1Ev
	jmp	.L448
.L449:
	movq	%rax, %rbx
.L448:
	leaq	-160(%rbp), %rax
	movq	%rax, %rcx
	call	_ZNSt7__cxx1112basic_stringIcSt11char_traitsIcESaIcEED1Ev
	movq	%rbx, %rax
	movq	%rax, %rcx
.LEHB127:
	call	_Unwind_Resume
.LEHE127:
.L454:
	movq	32(%rbp), %rax
	addq	$200, %rsp
	popq	%rbx
	popq	%rbp
	ret
	.seh_handler	__gxx_personality_seh0, @unwind, @except
	.seh_handlerdata
.LLSDA3972:
	.byte	0xff
	.byte	0xff
	.byte	0x1
	.uleb128 .LLSDACSE3972-.LLSDACSB3972
.LLSDACSB3972:
	.uleb128 .LEHB121-.LFB3972
	.uleb128 .LEHE121-.LEHB121
	.uleb128 0
	.uleb128 0
	.uleb128 .LEHB122-.LFB3972
	.uleb128 .LEHE122-.LEHB122
	.uleb128 .L449-.LFB3972
	.uleb128 0
	.uleb128 .LEHB123-.LFB3972
	.uleb128 .LEHE123-.LEHB123
	.uleb128 .L450-.LFB3972
	.uleb128 0
	.uleb128 .LEHB124-.LFB3972
	.uleb128 .LEHE124-.LEHB124
	.uleb128 .L451-.LFB3972
	.uleb128 0
	.uleb128 .LEHB125-.LFB3972
	.uleb128 .LEHE125-.LEHB125
	.uleb128 .L452-.LFB3972
	.uleb128 0
	.uleb128 .LEHB126-.LFB3972
	.uleb128 .LEHE126-.LEHB126
	.uleb128 .L453-.LFB3972
	.uleb128 0
	.uleb128 .LEHB127-.LFB3972
	.uleb128 .LEHE127-.LEHB127
	.uleb128 0
	.uleb128 0
.LLSDACSE3972:
	.section	.text$_ZN12BinaryOpNode5toCppB5cxx11Ev,"x"
	.linkonce discard
	.seh_endproc
	.section	.text$_ZNSt12_Vector_baseISt10unique_ptrI7ASTNodeSt14default_deleteIS1_EESaIS4_EEC2Ev,"x"
	.linkonce discard
	.align 2
	.globl	_ZNSt12_Vector_baseISt10unique_ptrI7ASTNodeSt14default_deleteIS1_EESaIS4_EEC2Ev
	.def	_ZNSt12_Vector_baseISt10unique_ptrI7ASTNodeSt14default_deleteIS1_EESaIS4_EEC2Ev;	.scl	2;	.type	32;	.endef
	.seh_proc	_ZNSt12_Vector_baseISt10unique_ptrI7ASTNodeSt14default_deleteIS1_EESaIS4_EEC2Ev
_ZNSt12_Vector_baseISt10unique_ptrI7ASTNodeSt14default_deleteIS1_EESaIS4_EEC2Ev:
.LFB3977:
	pushq	%rbp
	.seh_pushreg	%rbp
	movq	%rsp, %rbp
	.seh_setframe	%rbp, 0
	subq	$32, %rsp
	.seh_stackalloc	32
	.seh_endprologue
	movq	%rcx, 16(%rbp)
	movq	16(%rbp), %rax
	movq	%rax, %rcx
	call	_ZNSt12_Vector_baseISt10unique_ptrI7ASTNodeSt14default_deleteIS1_EESaIS4_EE12_Vector_implC1Ev
	nop
	addq	$32, %rsp
	popq	%rbp
	ret
	.seh_endproc
	.section	.text$_ZNSt6vectorISt10unique_ptrI7ASTNodeSt14default_deleteIS1_EESaIS4_EEC1Ev,"x"
	.linkonce discard
	.align 2
	.globl	_ZNSt6vectorISt10unique_ptrI7ASTNodeSt14default_deleteIS1_EESaIS4_EEC1Ev
	.def	_ZNSt6vectorISt10unique_ptrI7ASTNodeSt14default_deleteIS1_EESaIS4_EEC1Ev;	.scl	2;	.type	32;	.endef
	.seh_proc	_ZNSt6vectorISt10unique_ptrI7ASTNodeSt14default_deleteIS1_EESaIS4_EEC1Ev
_ZNSt6vectorISt10unique_ptrI7ASTNodeSt14default_deleteIS1_EESaIS4_EEC1Ev:
.LFB3980:
	pushq	%rbp
	.seh_pushreg	%rbp
	movq	%rsp, %rbp
	.seh_setframe	%rbp, 0
	subq	$32, %rsp
	.seh_stackalloc	32
	.seh_endprologue
	movq	%rcx, 16(%rbp)
	movq	16(%rbp), %rax
	movq	%rax, %rcx
	call	_ZNSt12_Vector_baseISt10unique_ptrI7ASTNodeSt14default_deleteIS1_EESaIS4_EEC2Ev
	nop
	addq	$32, %rsp
	popq	%rbp
	ret
	.seh_endproc
	.section	.text$_ZN6IfNodeC1ESt10unique_ptrI7ASTNodeSt14default_deleteIS1_EESt6vectorIS4_SaIS4_EE,"x"
	.linkonce discard
	.align 2
	.globl	_ZN6IfNodeC1ESt10unique_ptrI7ASTNodeSt14default_deleteIS1_EESt6vectorIS4_SaIS4_EE
	.def	_ZN6IfNodeC1ESt10unique_ptrI7ASTNodeSt14default_deleteIS1_EESt6vectorIS4_SaIS4_EE;	.scl	2;	.type	32;	.endef
	.seh_proc	_ZN6IfNodeC1ESt10unique_ptrI7ASTNodeSt14default_deleteIS1_EESt6vectorIS4_SaIS4_EE
_ZN6IfNodeC1ESt10unique_ptrI7ASTNodeSt14default_deleteIS1_EESt6vectorIS4_SaIS4_EE:
.LFB3982:
	pushq	%rbp
	.seh_pushreg	%rbp
	pushq	%rbx
	.seh_pushreg	%rbx
	subq	$40, %rsp
	.seh_stackalloc	40
	leaq	32(%rsp), %rbp
	.seh_setframe	%rbp, 32
	.seh_endprologue
	movq	%rcx, 32(%rbp)
	movq	%rdx, 40(%rbp)
	movq	%r8, 48(%rbp)
	movq	32(%rbp), %rax
	movq	%rax, %rcx
	call	_ZN7ASTNodeC2Ev
	leaq	16+_ZTV6IfNode(%rip), %rdx
	movq	32(%rbp), %rax
	movq	%rdx, (%rax)
	movq	32(%rbp), %rax
	leaq	8(%rax), %rbx
	movq	40(%rbp), %rax
	movq	%rax, %rcx
	call	_ZSt4moveIRSt10unique_ptrI7ASTNodeSt14default_deleteIS1_EEEONSt16remove_referenceIT_E4typeEOS7_
	movq	%rax, %rdx
	movq	%rbx, %rcx
	call	_ZNSt10unique_ptrI7ASTNodeSt14default_deleteIS0_EEC1EOS3_
	movq	32(%rbp), %rax
	leaq	16(%rax), %rbx
	movq	48(%rbp), %rax
	movq	%rax, %rcx
	call	_ZSt4moveIRSt6vectorISt10unique_ptrI7ASTNodeSt14default_deleteIS2_EESaIS5_EEEONSt16remove_referenceIT_E4typeEOSA_
	movq	%rax, %rdx
	movq	%rbx, %rcx
	call	_ZNSt6vectorISt10unique_ptrI7ASTNodeSt14default_deleteIS1_EESaIS4_EEC1EOS6_
	movq	32(%rbp), %rax
	addq	$40, %rax
	movq	%rax, %rcx
	call	_ZNSt6vectorISt10unique_ptrI7ASTNodeSt14default_deleteIS1_EESaIS4_EEC1Ev
	nop
	addq	$40, %rsp
	popq	%rbx
	popq	%rbp
	ret
	.seh_endproc
	.section	.text$_ZN6IfNode11setElseBodyESt6vectorISt10unique_ptrI7ASTNodeSt14default_deleteIS2_EESaIS5_EE,"x"
	.linkonce discard
	.align 2
	.globl	_ZN6IfNode11setElseBodyESt6vectorISt10unique_ptrI7ASTNodeSt14default_deleteIS2_EESaIS5_EE
	.def	_ZN6IfNode11setElseBodyESt6vectorISt10unique_ptrI7ASTNodeSt14default_deleteIS2_EESaIS5_EE;	.scl	2;	.type	32;	.endef
	.seh_proc	_ZN6IfNode11setElseBodyESt6vectorISt10unique_ptrI7ASTNodeSt14default_deleteIS2_EESaIS5_EE
_ZN6IfNode11setElseBodyESt6vectorISt10unique_ptrI7ASTNodeSt14default_deleteIS2_EESaIS5_EE:
.LFB3983:
	pushq	%rbp
	.seh_pushreg	%rbp
	movq	%rsp, %rbp
	.seh_setframe	%rbp, 0
	subq	$32, %rsp
	.seh_stackalloc	32
	.seh_endprologue
	movq	%rcx, 16(%rbp)
	movq	%rdx, 24(%rbp)
	movq	24(%rbp), %rax
	movq	%rax, %rcx
	call	_ZSt4moveIRSt6vectorISt10unique_ptrI7ASTNodeSt14default_deleteIS2_EESaIS5_EEEONSt16remove_referenceIT_E4typeEOSA_
	movq	%rax, %rdx
	movq	16(%rbp), %rax
	addq	$40, %rax
	movq	%rax, %rcx
	call	_ZNSt6vectorISt10unique_ptrI7ASTNodeSt14default_deleteIS1_EESaIS4_EEaSEOS6_
	nop
	addq	$32, %rsp
	popq	%rbp
	ret
	.seh_endproc
	.section .rdata,"dr"
.LC69:
	.ascii "if (\0"
.LC70:
	.ascii ") {\12\0"
.LC71:
	.ascii "        \0"
.LC72:
	.ascii "    }\0"
.LC73:
	.ascii " else \0"
.LC74:
	.ascii " else {\12\0"
	.section	.text$_ZN6IfNode5toCppB5cxx11Ev,"x"
	.linkonce discard
	.align 2
	.globl	_ZN6IfNode5toCppB5cxx11Ev
	.def	_ZN6IfNode5toCppB5cxx11Ev;	.scl	2;	.type	32;	.endef
	.seh_proc	_ZN6IfNode5toCppB5cxx11Ev
_ZN6IfNode5toCppB5cxx11Ev:
.LFB3987:
	pushq	%rbp
	.seh_pushreg	%rbp
	pushq	%rbx
	.seh_pushreg	%rbx
	subq	$424, %rsp
	.seh_stackalloc	424
	leaq	128(%rsp), %rbp
	.seh_setframe	%rbp, 128
	.seh_endprologue
	movq	%rcx, 320(%rbp)
	movq	%rdx, 328(%rbp)
	movq	328(%rbp), %rax
	addq	$8, %rax
	movq	%rax, %rcx
	call	_ZNKSt10unique_ptrI7ASTNodeSt14default_deleteIS0_EEptEv
	movq	(%rax), %rdx
	addq	$16, %rdx
	movq	(%rdx), %r8
	movq	%rbp, %rcx
	movq	%rax, %rdx
.LEHB128:
	call	*%r8
.LEHE128:
	leaq	-32(%rbp), %rax
	movq	%rbp, %rdx
	movq	%rdx, %r8
	leaq	.LC69(%rip), %rdx
	movq	%rax, %rcx
.LEHB129:
	call	_ZStplIcSt11char_traitsIcESaIcEENSt7__cxx1112basic_stringIT_T0_T1_EEPKS5_OS8_
.LEHE129:
	movq	320(%rbp), %rax
	leaq	-32(%rbp), %rdx
	leaq	.LC70(%rip), %r8
	movq	%rax, %rcx
.LEHB130:
	call	_ZStplIcSt11char_traitsIcESaIcEENSt7__cxx1112basic_stringIT_T0_T1_EEOS8_PKS5_
.LEHE130:
	leaq	-32(%rbp), %rax
	movq	%rax, %rcx
	call	_ZNSt7__cxx1112basic_stringIcSt11char_traitsIcESaIcEED1Ev
	movq	%rbp, %rax
	movq	%rax, %rcx
	call	_ZNSt7__cxx1112basic_stringIcSt11char_traitsIcESaIcEED1Ev
	movq	328(%rbp), %rax
	addq	$16, %rax
	movq	%rax, 280(%rbp)
	movq	280(%rbp), %rax
	movq	%rax, %rcx
	call	_ZNSt6vectorISt10unique_ptrI7ASTNodeSt14default_deleteIS1_EESaIS4_EE5beginEv
	movq	%rax, -40(%rbp)
	movq	280(%rbp), %rax
	movq	%rax, %rcx
	call	_ZNSt6vectorISt10unique_ptrI7ASTNodeSt14default_deleteIS1_EESaIS4_EE3endEv
	movq	%rax, -48(%rbp)
	jmp	.L460
.L461:
	leaq	-40(%rbp), %rax
	movq	%rax, %rcx
	call	_ZNK9__gnu_cxx17__normal_iteratorIPSt10unique_ptrI7ASTNodeSt14default_deleteIS2_EESt6vectorIS5_SaIS5_EEEdeEv
	movq	%rax, 256(%rbp)
	movq	256(%rbp), %rax
	movq	%rax, %rcx
	call	_ZNKSt10unique_ptrI7ASTNodeSt14default_deleteIS0_EEptEv
	movq	(%rax), %rdx
	addq	$16, %rdx
	movq	(%rdx), %r8
	leaq	96(%rbp), %rcx
	movq	%rax, %rdx
.LEHB131:
	call	*%r8
.LEHE131:
	leaq	64(%rbp), %rax
	leaq	96(%rbp), %rdx
	movq	%rdx, %r8
	leaq	.LC71(%rip), %rdx
	movq	%rax, %rcx
.LEHB132:
	call	_ZStplIcSt11char_traitsIcESaIcEENSt7__cxx1112basic_stringIT_T0_T1_EEPKS5_OS8_
.LEHE132:
	leaq	32(%rbp), %rax
	leaq	64(%rbp), %rdx
	leaq	.LC34(%rip), %r8
	movq	%rax, %rcx
.LEHB133:
	call	_ZStplIcSt11char_traitsIcESaIcEENSt7__cxx1112basic_stringIT_T0_T1_EEOS8_PKS5_
.LEHE133:
	leaq	32(%rbp), %rdx
	movq	320(%rbp), %rax
	movq	%rax, %rcx
.LEHB134:
	call	_ZNSt7__cxx1112basic_stringIcSt11char_traitsIcESaIcEEpLERKS4_
.LEHE134:
	leaq	32(%rbp), %rax
	movq	%rax, %rcx
	call	_ZNSt7__cxx1112basic_stringIcSt11char_traitsIcESaIcEED1Ev
	leaq	64(%rbp), %rax
	movq	%rax, %rcx
	call	_ZNSt7__cxx1112basic_stringIcSt11char_traitsIcESaIcEED1Ev
	leaq	96(%rbp), %rax
	movq	%rax, %rcx
	call	_ZNSt7__cxx1112basic_stringIcSt11char_traitsIcESaIcEED1Ev
	leaq	-40(%rbp), %rax
	movq	%rax, %rcx
	call	_ZN9__gnu_cxx17__normal_iteratorIPSt10unique_ptrI7ASTNodeSt14default_deleteIS2_EESt6vectorIS5_SaIS5_EEEppEv
.L460:
	leaq	-48(%rbp), %rdx
	leaq	-40(%rbp), %rax
	movq	%rax, %rcx
	call	_ZN9__gnu_cxxneIPSt10unique_ptrI7ASTNodeSt14default_deleteIS2_EESt6vectorIS5_SaIS5_EEEEbRKNS_17__normal_iteratorIT_T0_EESF_
	testb	%al, %al
	jne	.L461
	movq	320(%rbp), %rax
	leaq	.LC72(%rip), %rdx
	movq	%rax, %rcx
.LEHB135:
	call	_ZNSt7__cxx1112basic_stringIcSt11char_traitsIcESaIcEEpLEPKc
	movq	328(%rbp), %rax
	addq	$40, %rax
	movq	%rax, %rcx
	call	_ZNKSt6vectorISt10unique_ptrI7ASTNodeSt14default_deleteIS1_EESaIS4_EE5emptyEv
	xorl	$1, %eax
	testb	%al, %al
	je	.L494
	movq	328(%rbp), %rax
	addq	$40, %rax
	movq	%rax, %rcx
	call	_ZNKSt6vectorISt10unique_ptrI7ASTNodeSt14default_deleteIS1_EESaIS4_EE4sizeEv
	cmpq	$1, %rax
	jne	.L463
	movq	328(%rbp), %rax
	addq	$40, %rax
	movl	$0, %edx
	movq	%rax, %rcx
	call	_ZNSt6vectorISt10unique_ptrI7ASTNodeSt14default_deleteIS1_EESaIS4_EEixEy
	movq	%rax, %rcx
	call	_ZNKSt10unique_ptrI7ASTNodeSt14default_deleteIS0_EE3getEv
	testq	%rax, %rax
	je	.L464
	movl	$0, %r9d
	leaq	_ZTI6IfNode(%rip), %r8
	leaq	_ZTI7ASTNode(%rip), %rdx
	movq	%rax, %rcx
	call	__dynamic_cast
	jmp	.L465
.L464:
	movl	$0, %eax
.L465:
	testq	%rax, %rax
	je	.L463
	movl	$1, %eax
	jmp	.L466
.L463:
	movl	$0, %eax
.L466:
	testb	%al, %al
	je	.L467
	movq	328(%rbp), %rax
	addq	$40, %rax
	movl	$0, %edx
	movq	%rax, %rcx
	call	_ZNSt6vectorISt10unique_ptrI7ASTNodeSt14default_deleteIS1_EESaIS4_EEixEy
	movq	%rax, %rcx
	call	_ZNKSt10unique_ptrI7ASTNodeSt14default_deleteIS0_EEptEv
	movq	(%rax), %rdx
	addq	$16, %rdx
	movq	(%rdx), %r8
	leaq	-96(%rbp), %rcx
	movq	%rax, %rdx
	call	*%r8
.LEHE135:
	leaq	128(%rbp), %rax
	leaq	-96(%rbp), %rdx
	movq	%rdx, %r8
	leaq	.LC73(%rip), %rdx
	movq	%rax, %rcx
.LEHB136:
	call	_ZStplIcSt11char_traitsIcESaIcEENSt7__cxx1112basic_stringIT_T0_T1_EEPKS5_RKS8_
.LEHE136:
	leaq	128(%rbp), %rdx
	movq	320(%rbp), %rax
	movq	%rax, %rcx
.LEHB137:
	call	_ZNSt7__cxx1112basic_stringIcSt11char_traitsIcESaIcEEpLERKS4_
.LEHE137:
	leaq	128(%rbp), %rax
	movq	%rax, %rcx
	call	_ZNSt7__cxx1112basic_stringIcSt11char_traitsIcESaIcEED1Ev
	leaq	-96(%rbp), %rax
	movq	%rax, %rcx
	call	_ZNSt7__cxx1112basic_stringIcSt11char_traitsIcESaIcEED1Ev
	jmp	.L494
.L467:
	movq	320(%rbp), %rax
	leaq	.LC74(%rip), %rdx
	movq	%rax, %rcx
.LEHB138:
	call	_ZNSt7__cxx1112basic_stringIcSt11char_traitsIcESaIcEEpLEPKc
	movq	328(%rbp), %rax
	addq	$40, %rax
	movq	%rax, 272(%rbp)
	movq	272(%rbp), %rax
	movq	%rax, %rcx
	call	_ZNSt6vectorISt10unique_ptrI7ASTNodeSt14default_deleteIS1_EESaIS4_EE5beginEv
	movq	%rax, -56(%rbp)
	movq	272(%rbp), %rax
	movq	%rax, %rcx
	call	_ZNSt6vectorISt10unique_ptrI7ASTNodeSt14default_deleteIS1_EESaIS4_EE3endEv
	movq	%rax, -64(%rbp)
	jmp	.L468
.L469:
	leaq	-56(%rbp), %rax
	movq	%rax, %rcx
	call	_ZNK9__gnu_cxx17__normal_iteratorIPSt10unique_ptrI7ASTNodeSt14default_deleteIS2_EESt6vectorIS5_SaIS5_EEEdeEv
	movq	%rax, 264(%rbp)
	movq	264(%rbp), %rax
	movq	%rax, %rcx
	call	_ZNKSt10unique_ptrI7ASTNodeSt14default_deleteIS0_EEptEv
	movq	(%rax), %rdx
	addq	$16, %rdx
	movq	(%rdx), %r8
	leaq	224(%rbp), %rcx
	movq	%rax, %rdx
	call	*%r8
.LEHE138:
	leaq	192(%rbp), %rax
	leaq	224(%rbp), %rdx
	movq	%rdx, %r8
	leaq	.LC71(%rip), %rdx
	movq	%rax, %rcx
.LEHB139:
	call	_ZStplIcSt11char_traitsIcESaIcEENSt7__cxx1112basic_stringIT_T0_T1_EEPKS5_OS8_
.LEHE139:
	leaq	160(%rbp), %rax
	leaq	192(%rbp), %rdx
	leaq	.LC34(%rip), %r8
	movq	%rax, %rcx
.LEHB140:
	call	_ZStplIcSt11char_traitsIcESaIcEENSt7__cxx1112basic_stringIT_T0_T1_EEOS8_PKS5_
.LEHE140:
	leaq	160(%rbp), %rdx
	movq	320(%rbp), %rax
	movq	%rax, %rcx
.LEHB141:
	call	_ZNSt7__cxx1112basic_stringIcSt11char_traitsIcESaIcEEpLERKS4_
.LEHE141:
	leaq	160(%rbp), %rax
	movq	%rax, %rcx
	call	_ZNSt7__cxx1112basic_stringIcSt11char_traitsIcESaIcEED1Ev
	leaq	192(%rbp), %rax
	movq	%rax, %rcx
	call	_ZNSt7__cxx1112basic_stringIcSt11char_traitsIcESaIcEED1Ev
	leaq	224(%rbp), %rax
	movq	%rax, %rcx
	call	_ZNSt7__cxx1112basic_stringIcSt11char_traitsIcESaIcEED1Ev
	leaq	-56(%rbp), %rax
	movq	%rax, %rcx
	call	_ZN9__gnu_cxx17__normal_iteratorIPSt10unique_ptrI7ASTNodeSt14default_deleteIS2_EESt6vectorIS5_SaIS5_EEEppEv
.L468:
	leaq	-64(%rbp), %rdx
	leaq	-56(%rbp), %rax
	movq	%rax, %rcx
	call	_ZN9__gnu_cxxneIPSt10unique_ptrI7ASTNodeSt14default_deleteIS2_EESt6vectorIS5_SaIS5_EEEEbRKNS_17__normal_iteratorIT_T0_EESF_
	testb	%al, %al
	jne	.L469
	movq	320(%rbp), %rax
	leaq	.LC72(%rip), %rdx
	movq	%rax, %rcx
.LEHB142:
	call	_ZNSt7__cxx1112basic_stringIcSt11char_traitsIcESaIcEEpLEPKc
.LEHE142:
	jmp	.L494
.L483:
	movq	%rax, %rbx
	leaq	-32(%rbp), %rax
	movq	%rax, %rcx
	call	_ZNSt7__cxx1112basic_stringIcSt11char_traitsIcESaIcEED1Ev
	jmp	.L472
.L482:
	movq	%rax, %rbx
.L472:
	movq	%rbp, %rax
	movq	%rax, %rcx
	call	_ZNSt7__cxx1112basic_stringIcSt11char_traitsIcESaIcEED1Ev
	movq	%rbx, %rax
	movq	%rax, %rcx
.LEHB143:
	call	_Unwind_Resume
.L486:
	movq	%rax, %rbx
	leaq	32(%rbp), %rax
	movq	%rax, %rcx
	call	_ZNSt7__cxx1112basic_stringIcSt11char_traitsIcESaIcEED1Ev
	jmp	.L474
.L485:
	movq	%rax, %rbx
.L474:
	leaq	64(%rbp), %rax
	movq	%rax, %rcx
	call	_ZNSt7__cxx1112basic_stringIcSt11char_traitsIcESaIcEED1Ev
	jmp	.L475
.L484:
	movq	%rax, %rbx
.L475:
	leaq	96(%rbp), %rax
	movq	%rax, %rcx
	call	_ZNSt7__cxx1112basic_stringIcSt11char_traitsIcESaIcEED1Ev
	jmp	.L476
.L489:
	movq	%rax, %rbx
	leaq	128(%rbp), %rax
	movq	%rax, %rcx
	call	_ZNSt7__cxx1112basic_stringIcSt11char_traitsIcESaIcEED1Ev
	jmp	.L478
.L488:
	movq	%rax, %rbx
.L478:
	leaq	-96(%rbp), %rax
	movq	%rax, %rcx
	call	_ZNSt7__cxx1112basic_stringIcSt11char_traitsIcESaIcEED1Ev
	jmp	.L476
.L492:
	movq	%rax, %rbx
	leaq	160(%rbp), %rax
	movq	%rax, %rcx
	call	_ZNSt7__cxx1112basic_stringIcSt11char_traitsIcESaIcEED1Ev
	jmp	.L480
.L491:
	movq	%rax, %rbx
.L480:
	leaq	192(%rbp), %rax
	movq	%rax, %rcx
	call	_ZNSt7__cxx1112basic_stringIcSt11char_traitsIcESaIcEED1Ev
	jmp	.L481
.L490:
	movq	%rax, %rbx
.L481:
	leaq	224(%rbp), %rax
	movq	%rax, %rcx
	call	_ZNSt7__cxx1112basic_stringIcSt11char_traitsIcESaIcEED1Ev
	jmp	.L476
.L487:
	movq	%rax, %rbx
.L476:
	movq	320(%rbp), %rax
	movq	%rax, %rcx
	call	_ZNSt7__cxx1112basic_stringIcSt11char_traitsIcESaIcEED1Ev
	movq	%rbx, %rax
	movq	%rax, %rcx
	call	_Unwind_Resume
.LEHE143:
.L494:
	nop
	movq	320(%rbp), %rax
	addq	$424, %rsp
	popq	%rbx
	popq	%rbp
	ret
	.seh_handler	__gxx_personality_seh0, @unwind, @except
	.seh_handlerdata
.LLSDA3987:
	.byte	0xff
	.byte	0xff
	.byte	0x1
	.uleb128 .LLSDACSE3987-.LLSDACSB3987
.LLSDACSB3987:
	.uleb128 .LEHB128-.LFB3987
	.uleb128 .LEHE128-.LEHB128
	.uleb128 0
	.uleb128 0
	.uleb128 .LEHB129-.LFB3987
	.uleb128 .LEHE129-.LEHB129
	.uleb128 .L482-.LFB3987
	.uleb128 0
	.uleb128 .LEHB130-.LFB3987
	.uleb128 .LEHE130-.LEHB130
	.uleb128 .L483-.LFB3987
	.uleb128 0
	.uleb128 .LEHB131-.LFB3987
	.uleb128 .LEHE131-.LEHB131
	.uleb128 .L487-.LFB3987
	.uleb128 0
	.uleb128 .LEHB132-.LFB3987
	.uleb128 .LEHE132-.LEHB132
	.uleb128 .L484-.LFB3987
	.uleb128 0
	.uleb128 .LEHB133-.LFB3987
	.uleb128 .LEHE133-.LEHB133
	.uleb128 .L485-.LFB3987
	.uleb128 0
	.uleb128 .LEHB134-.LFB3987
	.uleb128 .LEHE134-.LEHB134
	.uleb128 .L486-.LFB3987
	.uleb128 0
	.uleb128 .LEHB135-.LFB3987
	.uleb128 .LEHE135-.LEHB135
	.uleb128 .L487-.LFB3987
	.uleb128 0
	.uleb128 .LEHB136-.LFB3987
	.uleb128 .LEHE136-.LEHB136
	.uleb128 .L488-.LFB3987
	.uleb128 0
	.uleb128 .LEHB137-.LFB3987
	.uleb128 .LEHE137-.LEHB137
	.uleb128 .L489-.LFB3987
	.uleb128 0
	.uleb128 .LEHB138-.LFB3987
	.uleb128 .LEHE138-.LEHB138
	.uleb128 .L487-.LFB3987
	.uleb128 0
	.uleb128 .LEHB139-.LFB3987
	.uleb128 .LEHE139-.LEHB139
	.uleb128 .L490-.LFB3987
	.uleb128 0
	.uleb128 .LEHB140-.LFB3987
	.uleb128 .LEHE140-.LEHB140
	.uleb128 .L491-.LFB3987
	.uleb128 0
	.uleb128 .LEHB141-.LFB3987
	.uleb128 .LEHE141-.LEHB141
	.uleb128 .L492-.LFB3987
	.uleb128 0
	.uleb128 .LEHB142-.LFB3987
	.uleb128 .LEHE142-.LEHB142
	.uleb128 .L487-.LFB3987
	.uleb128 0
	.uleb128 .LEHB143-.LFB3987
	.uleb128 .LEHE143-.LEHB143
	.uleb128 0
	.uleb128 0
.LLSDACSE3987:
	.section	.text$_ZN6IfNode5toCppB5cxx11Ev,"x"
	.linkonce discard
	.seh_endproc
	.section	.text$_ZNSt12_Vector_baseINSt7__cxx1112basic_stringIcSt11char_traitsIcESaIcEEESaIS5_EEC2EOS7_,"x"
	.linkonce discard
	.align 2
	.globl	_ZNSt12_Vector_baseINSt7__cxx1112basic_stringIcSt11char_traitsIcESaIcEEESaIS5_EEC2EOS7_
	.def	_ZNSt12_Vector_baseINSt7__cxx1112basic_stringIcSt11char_traitsIcESaIcEEESaIS5_EEC2EOS7_;	.scl	2;	.type	32;	.endef
	.seh_proc	_ZNSt12_Vector_baseINSt7__cxx1112basic_stringIcSt11char_traitsIcESaIcEEESaIS5_EEC2EOS7_
_ZNSt12_Vector_baseINSt7__cxx1112basic_stringIcSt11char_traitsIcESaIcEEESaIS5_EEC2EOS7_:
.LFB3991:
	pushq	%rbp
	.seh_pushreg	%rbp
	movq	%rsp, %rbp
	.seh_setframe	%rbp, 0
	subq	$32, %rsp
	.seh_stackalloc	32
	.seh_endprologue
	movq	%rcx, 16(%rbp)
	movq	%rdx, 24(%rbp)
	movq	16(%rbp), %rax
	movq	24(%rbp), %rdx
	movq	%rax, %rcx
	call	_ZNSt12_Vector_baseINSt7__cxx1112basic_stringIcSt11char_traitsIcESaIcEEESaIS5_EE12_Vector_implC1EOS8_
	nop
	addq	$32, %rsp
	popq	%rbp
	ret
	.seh_endproc
	.section	.text$_ZNSt6vectorINSt7__cxx1112basic_stringIcSt11char_traitsIcESaIcEEESaIS5_EEC1EOS7_,"x"
	.linkonce discard
	.align 2
	.globl	_ZNSt6vectorINSt7__cxx1112basic_stringIcSt11char_traitsIcESaIcEEESaIS5_EEC1EOS7_
	.def	_ZNSt6vectorINSt7__cxx1112basic_stringIcSt11char_traitsIcESaIcEEESaIS5_EEC1EOS7_;	.scl	2;	.type	32;	.endef
	.seh_proc	_ZNSt6vectorINSt7__cxx1112basic_stringIcSt11char_traitsIcESaIcEEESaIS5_EEC1EOS7_
_ZNSt6vectorINSt7__cxx1112basic_stringIcSt11char_traitsIcESaIcEEESaIS5_EEC1EOS7_:
.LFB3994:
	pushq	%rbp
	.seh_pushreg	%rbp
	movq	%rsp, %rbp
	.seh_setframe	%rbp, 0
	subq	$32, %rsp
	.seh_stackalloc	32
	.seh_endprologue
	movq	%rcx, 16(%rbp)
	movq	%rdx, 24(%rbp)
	movq	16(%rbp), %rax
	movq	24(%rbp), %rdx
	movq	%rax, %rcx
	call	_ZNSt12_Vector_baseINSt7__cxx1112basic_stringIcSt11char_traitsIcESaIcEEESaIS5_EEC2EOS7_
	nop
	addq	$32, %rsp
	popq	%rbp
	ret
	.seh_endproc
	.section	.text$_ZN12UserFuncNodeC1ERKNSt7__cxx1112basic_stringIcSt11char_traitsIcESaIcEEESt6vectorIS5_SaIS5_EES8_ISt10unique_ptrI7ASTNodeSt14default_deleteISC_EESaISF_EE,"x"
	.linkonce discard
	.align 2
	.globl	_ZN12UserFuncNodeC1ERKNSt7__cxx1112basic_stringIcSt11char_traitsIcESaIcEEESt6vectorIS5_SaIS5_EES8_ISt10unique_ptrI7ASTNodeSt14default_deleteISC_EESaISF_EE
	.def	_ZN12UserFuncNodeC1ERKNSt7__cxx1112basic_stringIcSt11char_traitsIcESaIcEEESt6vectorIS5_SaIS5_EES8_ISt10unique_ptrI7ASTNodeSt14default_deleteISC_EESaISF_EE;	.scl	2;	.type	32;	.endef
	.seh_proc	_ZN12UserFuncNodeC1ERKNSt7__cxx1112basic_stringIcSt11char_traitsIcESaIcEEESt6vectorIS5_SaIS5_EES8_ISt10unique_ptrI7ASTNodeSt14default_deleteISC_EESaISF_EE
_ZN12UserFuncNodeC1ERKNSt7__cxx1112basic_stringIcSt11char_traitsIcESaIcEEESt6vectorIS5_SaIS5_EES8_ISt10unique_ptrI7ASTNodeSt14default_deleteISC_EESaISF_EE:
.LFB3996:
	pushq	%rbp
	.seh_pushreg	%rbp
	pushq	%rbx
	.seh_pushreg	%rbx
	subq	$40, %rsp
	.seh_stackalloc	40
	leaq	32(%rsp), %rbp
	.seh_setframe	%rbp, 32
	.seh_endprologue
	movq	%rcx, 32(%rbp)
	movq	%rdx, 40(%rbp)
	movq	%r8, 48(%rbp)
	movq	%r9, 56(%rbp)
	movq	32(%rbp), %rax
	movq	%rax, %rcx
	call	_ZN7ASTNodeC2Ev
	leaq	16+_ZTV12UserFuncNode(%rip), %rdx
	movq	32(%rbp), %rax
	movq	%rdx, (%rax)
	movq	32(%rbp), %rax
	leaq	8(%rax), %rcx
	movq	40(%rbp), %rax
	movq	%rax, %rdx
.LEHB144:
	call	_ZNSt7__cxx1112basic_stringIcSt11char_traitsIcESaIcEEC1ERKS4_
.LEHE144:
	movq	32(%rbp), %rax
	leaq	40(%rax), %rbx
	movq	48(%rbp), %rax
	movq	%rax, %rcx
	call	_ZSt4moveIRSt6vectorINSt7__cxx1112basic_stringIcSt11char_traitsIcESaIcEEESaIS6_EEEONSt16remove_referenceIT_E4typeEOSB_
	movq	%rax, %rdx
	movq	%rbx, %rcx
	call	_ZNSt6vectorINSt7__cxx1112basic_stringIcSt11char_traitsIcESaIcEEESaIS5_EEC1EOS7_
	movq	32(%rbp), %rax
	leaq	64(%rax), %rbx
	movq	56(%rbp), %rax
	movq	%rax, %rcx
	call	_ZSt4moveIRSt6vectorISt10unique_ptrI7ASTNodeSt14default_deleteIS2_EESaIS5_EEEONSt16remove_referenceIT_E4typeEOSA_
	movq	%rax, %rdx
	movq	%rbx, %rcx
	call	_ZNSt6vectorISt10unique_ptrI7ASTNodeSt14default_deleteIS1_EESaIS4_EEC1EOS6_
	jmp	.L500
.L499:
	movq	%rax, %rbx
	movq	32(%rbp), %rax
	movq	%rax, %rcx
	call	_ZN7ASTNodeD2Ev
	movq	%rbx, %rax
	movq	%rax, %rcx
.LEHB145:
	call	_Unwind_Resume
	nop
.LEHE145:
.L500:
	addq	$40, %rsp
	popq	%rbx
	popq	%rbp
	ret
	.seh_handler	__gxx_personality_seh0, @unwind, @except
	.seh_handlerdata
.LLSDA3996:
	.byte	0xff
	.byte	0xff
	.byte	0x1
	.uleb128 .LLSDACSE3996-.LLSDACSB3996
.LLSDACSB3996:
	.uleb128 .LEHB144-.LFB3996
	.uleb128 .LEHE144-.LEHB144
	.uleb128 .L499-.LFB3996
	.uleb128 0
	.uleb128 .LEHB145-.LFB3996
	.uleb128 .LEHE145-.LEHB145
	.uleb128 0
	.uleb128 0
.LLSDACSE3996:
	.section	.text$_ZN12UserFuncNodeC1ERKNSt7__cxx1112basic_stringIcSt11char_traitsIcESaIcEEESt6vectorIS5_SaIS5_EES8_ISt10unique_ptrI7ASTNodeSt14default_deleteISC_EESaISF_EE,"x"
	.linkonce discard
	.seh_endproc
	.section .rdata,"dr"
.LC75:
	.ascii "int \0"
.LC76:
	.ascii "}\12\0"
	.section	.text$_ZN12UserFuncNode5toCppB5cxx11Ev,"x"
	.linkonce discard
	.align 2
	.globl	_ZN12UserFuncNode5toCppB5cxx11Ev
	.def	_ZN12UserFuncNode5toCppB5cxx11Ev;	.scl	2;	.type	32;	.endef
	.seh_proc	_ZN12UserFuncNode5toCppB5cxx11Ev
_ZN12UserFuncNode5toCppB5cxx11Ev:
.LFB3997:
	pushq	%rbp
	.seh_pushreg	%rbp
	pushq	%rbx
	.seh_pushreg	%rbx
	subq	$280, %rsp
	.seh_stackalloc	280
	leaq	128(%rsp), %rbp
	.seh_setframe	%rbp, 128
	.seh_endprologue
	movq	%rcx, 176(%rbp)
	movq	%rdx, 184(%rbp)
	movq	184(%rbp), %rax
	leaq	8(%rax), %rdx
	leaq	-80(%rbp), %rax
	movq	%rdx, %r8
	leaq	.LC29(%rip), %rdx
	movq	%rax, %rcx
.LEHB146:
	call	_ZStplIcSt11char_traitsIcESaIcEENSt7__cxx1112basic_stringIT_T0_T1_EEPKS5_RKS8_
.LEHE146:
	movq	176(%rbp), %rax
	leaq	-80(%rbp), %rdx
	leaq	.LC3(%rip), %r8
	movq	%rax, %rcx
.LEHB147:
	call	_ZStplIcSt11char_traitsIcESaIcEENSt7__cxx1112basic_stringIT_T0_T1_EEOS8_PKS5_
.LEHE147:
	leaq	-80(%rbp), %rax
	movq	%rax, %rcx
	call	_ZNSt7__cxx1112basic_stringIcSt11char_traitsIcESaIcEED1Ev
	movq	$0, 136(%rbp)
	jmp	.L502
.L505:
	movq	184(%rbp), %rax
	addq	$40, %rax
	movq	%rax, %rcx
	call	_ZNKSt6vectorINSt7__cxx1112basic_stringIcSt11char_traitsIcESaIcEEESaIS5_EE4sizeEv
	subq	$1, %rax
	cmpq	%rax, 136(%rbp)
	jnb	.L503
	leaq	.LC48(%rip), %rbx
	jmp	.L504
.L503:
	leaq	.LC1(%rip), %rbx
.L504:
	movq	184(%rbp), %rax
	leaq	40(%rax), %rcx
	movq	136(%rbp), %rax
	movq	%rax, %rdx
	call	_ZNSt6vectorINSt7__cxx1112basic_stringIcSt11char_traitsIcESaIcEEESaIS5_EEixEy
	movq	%rax, %rdx
	leaq	-16(%rbp), %rax
	movq	%rdx, %r8
	leaq	.LC75(%rip), %rdx
	movq	%rax, %rcx
.LEHB148:
	call	_ZStplIcSt11char_traitsIcESaIcEENSt7__cxx1112basic_stringIT_T0_T1_EEPKS5_RKS8_
.LEHE148:
	leaq	-48(%rbp), %rax
	leaq	-16(%rbp), %rdx
	movq	%rbx, %r8
	movq	%rax, %rcx
.LEHB149:
	call	_ZStplIcSt11char_traitsIcESaIcEENSt7__cxx1112basic_stringIT_T0_T1_EEOS8_PKS5_
.LEHE149:
	leaq	-48(%rbp), %rdx
	movq	176(%rbp), %rax
	movq	%rax, %rcx
.LEHB150:
	call	_ZNSt7__cxx1112basic_stringIcSt11char_traitsIcESaIcEEpLERKS4_
.LEHE150:
	leaq	-48(%rbp), %rax
	movq	%rax, %rcx
	call	_ZNSt7__cxx1112basic_stringIcSt11char_traitsIcESaIcEED1Ev
	leaq	-16(%rbp), %rax
	movq	%rax, %rcx
	call	_ZNSt7__cxx1112basic_stringIcSt11char_traitsIcESaIcEED1Ev
	addq	$1, 136(%rbp)
.L502:
	movq	184(%rbp), %rax
	addq	$40, %rax
	movq	%rax, %rcx
	call	_ZNKSt6vectorINSt7__cxx1112basic_stringIcSt11char_traitsIcESaIcEEESaIS5_EE4sizeEv
	cmpq	%rax, 136(%rbp)
	setb	%al
	testb	%al, %al
	jne	.L505
	movq	176(%rbp), %rax
	leaq	.LC70(%rip), %rdx
	movq	%rax, %rcx
.LEHB151:
	call	_ZNSt7__cxx1112basic_stringIcSt11char_traitsIcESaIcEEpLEPKc
	movq	184(%rbp), %rax
	addq	$64, %rax
	movq	%rax, 128(%rbp)
	movq	128(%rbp), %rax
	movq	%rax, %rcx
	call	_ZNSt6vectorISt10unique_ptrI7ASTNodeSt14default_deleteIS1_EESaIS4_EE5beginEv
	movq	%rax, -88(%rbp)
	movq	128(%rbp), %rax
	movq	%rax, %rcx
	call	_ZNSt6vectorISt10unique_ptrI7ASTNodeSt14default_deleteIS1_EESaIS4_EE3endEv
	movq	%rax, -96(%rbp)
	jmp	.L506
.L507:
	leaq	-88(%rbp), %rax
	movq	%rax, %rcx
	call	_ZNK9__gnu_cxx17__normal_iteratorIPSt10unique_ptrI7ASTNodeSt14default_deleteIS2_EESt6vectorIS5_SaIS5_EEEdeEv
	movq	%rax, 120(%rbp)
	movq	120(%rbp), %rax
	movq	%rax, %rcx
	call	_ZNKSt10unique_ptrI7ASTNodeSt14default_deleteIS0_EEptEv
	movq	(%rax), %rdx
	addq	$16, %rdx
	movq	(%rdx), %r8
	leaq	80(%rbp), %rcx
	movq	%rax, %rdx
	call	*%r8
.LEHE151:
	leaq	48(%rbp), %rax
	leaq	80(%rbp), %rdx
	movq	%rdx, %r8
	leaq	.LC35(%rip), %rdx
	movq	%rax, %rcx
.LEHB152:
	call	_ZStplIcSt11char_traitsIcESaIcEENSt7__cxx1112basic_stringIT_T0_T1_EEPKS5_OS8_
.LEHE152:
	leaq	16(%rbp), %rax
	leaq	48(%rbp), %rdx
	leaq	.LC34(%rip), %r8
	movq	%rax, %rcx
.LEHB153:
	call	_ZStplIcSt11char_traitsIcESaIcEENSt7__cxx1112basic_stringIT_T0_T1_EEOS8_PKS5_
.LEHE153:
	leaq	16(%rbp), %rdx
	movq	176(%rbp), %rax
	movq	%rax, %rcx
.LEHB154:
	call	_ZNSt7__cxx1112basic_stringIcSt11char_traitsIcESaIcEEpLERKS4_
.LEHE154:
	leaq	16(%rbp), %rax
	movq	%rax, %rcx
	call	_ZNSt7__cxx1112basic_stringIcSt11char_traitsIcESaIcEED1Ev
	leaq	48(%rbp), %rax
	movq	%rax, %rcx
	call	_ZNSt7__cxx1112basic_stringIcSt11char_traitsIcESaIcEED1Ev
	leaq	80(%rbp), %rax
	movq	%rax, %rcx
	call	_ZNSt7__cxx1112basic_stringIcSt11char_traitsIcESaIcEED1Ev
	leaq	-88(%rbp), %rax
	movq	%rax, %rcx
	call	_ZN9__gnu_cxx17__normal_iteratorIPSt10unique_ptrI7ASTNodeSt14default_deleteIS2_EESt6vectorIS5_SaIS5_EEEppEv
.L506:
	leaq	-96(%rbp), %rdx
	leaq	-88(%rbp), %rax
	movq	%rax, %rcx
	call	_ZN9__gnu_cxxneIPSt10unique_ptrI7ASTNodeSt14default_deleteIS2_EESt6vectorIS5_SaIS5_EEEEbRKNS_17__normal_iteratorIT_T0_EESF_
	testb	%al, %al
	jne	.L507
	movq	176(%rbp), %rax
	leaq	.LC76(%rip), %rdx
	movq	%rax, %rcx
.LEHB155:
	call	_ZNSt7__cxx1112basic_stringIcSt11char_traitsIcESaIcEEpLEPKc
.LEHE155:
	jmp	.L523
.L516:
	movq	%rax, %rbx
	leaq	-80(%rbp), %rax
	movq	%rax, %rcx
	call	_ZNSt7__cxx1112basic_stringIcSt11char_traitsIcESaIcEED1Ev
	movq	%rbx, %rax
	movq	%rax, %rcx
.LEHB156:
	call	_Unwind_Resume
.L518:
	movq	%rax, %rbx
	leaq	-48(%rbp), %rax
	movq	%rax, %rcx
	call	_ZNSt7__cxx1112basic_stringIcSt11char_traitsIcESaIcEED1Ev
	jmp	.L511
.L517:
	movq	%rax, %rbx
.L511:
	leaq	-16(%rbp), %rax
	movq	%rax, %rcx
	call	_ZNSt7__cxx1112basic_stringIcSt11char_traitsIcESaIcEED1Ev
	jmp	.L512
.L522:
	movq	%rax, %rbx
	leaq	16(%rbp), %rax
	movq	%rax, %rcx
	call	_ZNSt7__cxx1112basic_stringIcSt11char_traitsIcESaIcEED1Ev
	jmp	.L514
.L521:
	movq	%rax, %rbx
.L514:
	leaq	48(%rbp), %rax
	movq	%rax, %rcx
	call	_ZNSt7__cxx1112basic_stringIcSt11char_traitsIcESaIcEED1Ev
	jmp	.L515
.L520:
	movq	%rax, %rbx
.L515:
	leaq	80(%rbp), %rax
	movq	%rax, %rcx
	call	_ZNSt7__cxx1112basic_stringIcSt11char_traitsIcESaIcEED1Ev
	jmp	.L512
.L519:
	movq	%rax, %rbx
.L512:
	movq	176(%rbp), %rax
	movq	%rax, %rcx
	call	_ZNSt7__cxx1112basic_stringIcSt11char_traitsIcESaIcEED1Ev
	movq	%rbx, %rax
	movq	%rax, %rcx
	call	_Unwind_Resume
.LEHE156:
.L523:
	movq	176(%rbp), %rax
	addq	$280, %rsp
	popq	%rbx
	popq	%rbp
	ret
	.seh_handler	__gxx_personality_seh0, @unwind, @except
	.seh_handlerdata
.LLSDA3997:
	.byte	0xff
	.byte	0xff
	.byte	0x1
	.uleb128 .LLSDACSE3997-.LLSDACSB3997
.LLSDACSB3997:
	.uleb128 .LEHB146-.LFB3997
	.uleb128 .LEHE146-.LEHB146
	.uleb128 0
	.uleb128 0
	.uleb128 .LEHB147-.LFB3997
	.uleb128 .LEHE147-.LEHB147
	.uleb128 .L516-.LFB3997
	.uleb128 0
	.uleb128 .LEHB148-.LFB3997
	.uleb128 .LEHE148-.LEHB148
	.uleb128 .L519-.LFB3997
	.uleb128 0
	.uleb128 .LEHB149-.LFB3997
	.uleb128 .LEHE149-.LEHB149
	.uleb128 .L517-.LFB3997
	.uleb128 0
	.uleb128 .LEHB150-.LFB3997
	.uleb128 .LEHE150-.LEHB150
	.uleb128 .L518-.LFB3997
	.uleb128 0
	.uleb128 .LEHB151-.LFB3997
	.uleb128 .LEHE151-.LEHB151
	.uleb128 .L519-.LFB3997
	.uleb128 0
	.uleb128 .LEHB152-.LFB3997
	.uleb128 .LEHE152-.LEHB152
	.uleb128 .L520-.LFB3997
	.uleb128 0
	.uleb128 .LEHB153-.LFB3997
	.uleb128 .LEHE153-.LEHB153
	.uleb128 .L521-.LFB3997
	.uleb128 0
	.uleb128 .LEHB154-.LFB3997
	.uleb128 .LEHE154-.LEHB154
	.uleb128 .L522-.LFB3997
	.uleb128 0
	.uleb128 .LEHB155-.LFB3997
	.uleb128 .LEHE155-.LEHB155
	.uleb128 .L519-.LFB3997
	.uleb128 0
	.uleb128 .LEHB156-.LFB3997
	.uleb128 .LEHE156-.LEHB156
	.uleb128 0
	.uleb128 0
.LLSDACSE3997:
	.section	.text$_ZN12UserFuncNode5toCppB5cxx11Ev,"x"
	.linkonce discard
	.seh_endproc
	.section	.text$_ZN10ReturnNodeC1ERKNSt7__cxx1112basic_stringIcSt11char_traitsIcESaIcEEE,"x"
	.linkonce discard
	.align 2
	.globl	_ZN10ReturnNodeC1ERKNSt7__cxx1112basic_stringIcSt11char_traitsIcESaIcEEE
	.def	_ZN10ReturnNodeC1ERKNSt7__cxx1112basic_stringIcSt11char_traitsIcESaIcEEE;	.scl	2;	.type	32;	.endef
	.seh_proc	_ZN10ReturnNodeC1ERKNSt7__cxx1112basic_stringIcSt11char_traitsIcESaIcEEE
_ZN10ReturnNodeC1ERKNSt7__cxx1112basic_stringIcSt11char_traitsIcESaIcEEE:
.LFB4000:
	pushq	%rbp
	.seh_pushreg	%rbp
	pushq	%rbx
	.seh_pushreg	%rbx
	subq	$40, %rsp
	.seh_stackalloc	40
	leaq	32(%rsp), %rbp
	.seh_setframe	%rbp, 32
	.seh_endprologue
	movq	%rcx, 32(%rbp)
	movq	%rdx, 40(%rbp)
	movq	32(%rbp), %rax
	movq	%rax, %rcx
	call	_ZN7ASTNodeC2Ev
	leaq	16+_ZTV10ReturnNode(%rip), %rdx
	movq	32(%rbp), %rax
	movq	%rdx, (%rax)
	movq	32(%rbp), %rax
	leaq	8(%rax), %rcx
	movq	40(%rbp), %rax
	movq	%rax, %rdx
.LEHB157:
	call	_ZNSt7__cxx1112basic_stringIcSt11char_traitsIcESaIcEEC1ERKS4_
.LEHE157:
	jmp	.L527
.L526:
	movq	%rax, %rbx
	movq	32(%rbp), %rax
	movq	%rax, %rcx
	call	_ZN7ASTNodeD2Ev
	movq	%rbx, %rax
	movq	%rax, %rcx
.LEHB158:
	call	_Unwind_Resume
	nop
.LEHE158:
.L527:
	addq	$40, %rsp
	popq	%rbx
	popq	%rbp
	ret
	.seh_handler	__gxx_personality_seh0, @unwind, @except
	.seh_handlerdata
.LLSDA4000:
	.byte	0xff
	.byte	0xff
	.byte	0x1
	.uleb128 .LLSDACSE4000-.LLSDACSB4000
.LLSDACSB4000:
	.uleb128 .LEHB157-.LFB4000
	.uleb128 .LEHE157-.LEHB157
	.uleb128 .L526-.LFB4000
	.uleb128 0
	.uleb128 .LEHB158-.LFB4000
	.uleb128 .LEHE158-.LEHB158
	.uleb128 0
	.uleb128 0
.LLSDACSE4000:
	.section	.text$_ZN10ReturnNodeC1ERKNSt7__cxx1112basic_stringIcSt11char_traitsIcESaIcEEE,"x"
	.linkonce discard
	.seh_endproc
	.section .rdata,"dr"
.LC77:
	.ascii "return \0"
	.section	.text$_ZN10ReturnNode5toCppB5cxx11Ev,"x"
	.linkonce discard
	.align 2
	.globl	_ZN10ReturnNode5toCppB5cxx11Ev
	.def	_ZN10ReturnNode5toCppB5cxx11Ev;	.scl	2;	.type	32;	.endef
	.seh_proc	_ZN10ReturnNode5toCppB5cxx11Ev
_ZN10ReturnNode5toCppB5cxx11Ev:
.LFB4001:
	pushq	%rbp
	.seh_pushreg	%rbp
	pushq	%rbx
	.seh_pushreg	%rbx
	subq	$72, %rsp
	.seh_stackalloc	72
	leaq	64(%rsp), %rbp
	.seh_setframe	%rbp, 64
	.seh_endprologue
	movq	%rcx, 32(%rbp)
	movq	%rdx, 40(%rbp)
	movq	40(%rbp), %rax
	leaq	8(%rax), %rdx
	leaq	-32(%rbp), %rax
	movq	%rdx, %r8
	leaq	.LC77(%rip), %rdx
	movq	%rax, %rcx
.LEHB159:
	call	_ZStplIcSt11char_traitsIcESaIcEENSt7__cxx1112basic_stringIT_T0_T1_EEPKS5_RKS8_
.LEHE159:
	movq	32(%rbp), %rax
	leaq	-32(%rbp), %rdx
	leaq	.LC24(%rip), %r8
	movq	%rax, %rcx
.LEHB160:
	call	_ZStplIcSt11char_traitsIcESaIcEENSt7__cxx1112basic_stringIT_T0_T1_EEOS8_PKS5_
.LEHE160:
	nop
	leaq	-32(%rbp), %rax
	movq	%rax, %rcx
	call	_ZNSt7__cxx1112basic_stringIcSt11char_traitsIcESaIcEED1Ev
	jmp	.L532
.L531:
	movq	%rax, %rbx
	leaq	-32(%rbp), %rax
	movq	%rax, %rcx
	call	_ZNSt7__cxx1112basic_stringIcSt11char_traitsIcESaIcEED1Ev
	movq	%rbx, %rax
	movq	%rax, %rcx
.LEHB161:
	call	_Unwind_Resume
.LEHE161:
.L532:
	movq	32(%rbp), %rax
	addq	$72, %rsp
	popq	%rbx
	popq	%rbp
	ret
	.seh_handler	__gxx_personality_seh0, @unwind, @except
	.seh_handlerdata
.LLSDA4001:
	.byte	0xff
	.byte	0xff
	.byte	0x1
	.uleb128 .LLSDACSE4001-.LLSDACSB4001
.LLSDACSB4001:
	.uleb128 .LEHB159-.LFB4001
	.uleb128 .LEHE159-.LEHB159
	.uleb128 0
	.uleb128 0
	.uleb128 .LEHB160-.LFB4001
	.uleb128 .LEHE160-.LEHB160
	.uleb128 .L531-.LFB4001
	.uleb128 0
	.uleb128 .LEHB161-.LFB4001
	.uleb128 .LEHE161-.LEHB161
	.uleb128 0
	.uleb128 0
.LLSDACSE4001:
	.section	.text$_ZN10ReturnNode5toCppB5cxx11Ev,"x"
	.linkonce discard
	.seh_endproc
	.globl	_ZZN9EveryNodeC4ENSt7__cxx1112basic_stringIcSt11char_traitsIcESaIcEEESt6vectorISt10unique_ptrI7ASTNodeSt14default_deleteIS8_EESaISB_EEE7counter
	.section	.data$_ZZN9EveryNodeC4ENSt7__cxx1112basic_stringIcSt11char_traitsIcESaIcEEESt6vectorISt10unique_ptrI7ASTNodeSt14default_deleteIS8_EESaISB_EEE7counter,"w"
	.linkonce same_size
	.align 4
_ZZN9EveryNodeC4ENSt7__cxx1112basic_stringIcSt11char_traitsIcESaIcEEESt6vectorISt10unique_ptrI7ASTNodeSt14default_deleteIS8_EESaISB_EEE7counter:
	.space 4
	.section	.text$_ZN9EveryNodeC1ENSt7__cxx1112basic_stringIcSt11char_traitsIcESaIcEEESt6vectorISt10unique_ptrI7ASTNodeSt14default_deleteIS8_EESaISB_EE,"x"
	.linkonce discard
	.align 2
	.globl	_ZN9EveryNodeC1ENSt7__cxx1112basic_stringIcSt11char_traitsIcESaIcEEESt6vectorISt10unique_ptrI7ASTNodeSt14default_deleteIS8_EESaISB_EE
	.def	_ZN9EveryNodeC1ENSt7__cxx1112basic_stringIcSt11char_traitsIcESaIcEEESt6vectorISt10unique_ptrI7ASTNodeSt14default_deleteIS8_EESaISB_EE;	.scl	2;	.type	32;	.endef
	.seh_proc	_ZN9EveryNodeC1ENSt7__cxx1112basic_stringIcSt11char_traitsIcESaIcEEESt6vectorISt10unique_ptrI7ASTNodeSt14default_deleteIS8_EESaISB_EE
_ZN9EveryNodeC1ENSt7__cxx1112basic_stringIcSt11char_traitsIcESaIcEEESt6vectorISt10unique_ptrI7ASTNodeSt14default_deleteIS8_EESaISB_EE:
.LFB4004:
	pushq	%rbp
	.seh_pushreg	%rbp
	pushq	%rbx
	.seh_pushreg	%rbx
	subq	$40, %rsp
	.seh_stackalloc	40
	leaq	32(%rsp), %rbp
	.seh_setframe	%rbp, 32
	.seh_endprologue
	movq	%rcx, 32(%rbp)
	movq	%rdx, 40(%rbp)
	movq	%r8, 48(%rbp)
	movq	32(%rbp), %rax
	movq	%rax, %rcx
	call	_ZN7ASTNodeC2Ev
	leaq	16+_ZTV9EveryNode(%rip), %rdx
	movq	32(%rbp), %rax
	movq	%rdx, (%rax)
	movq	32(%rbp), %rax
	leaq	8(%rax), %rcx
	movq	40(%rbp), %rax
	movq	%rax, %rdx
.LEHB162:
	call	_ZNSt7__cxx1112basic_stringIcSt11char_traitsIcESaIcEEC1ERKS4_
.LEHE162:
	movq	32(%rbp), %rax
	leaq	40(%rax), %rbx
	movq	48(%rbp), %rax
	movq	%rax, %rcx
	call	_ZSt4moveIRSt6vectorISt10unique_ptrI7ASTNodeSt14default_deleteIS2_EESaIS5_EEEONSt16remove_referenceIT_E4typeEOSA_
	movq	%rax, %rdx
	movq	%rbx, %rcx
	call	_ZNSt6vectorISt10unique_ptrI7ASTNodeSt14default_deleteIS1_EESaIS4_EEC1EOS6_
	movl	_ZZN9EveryNodeC4ENSt7__cxx1112basic_stringIcSt11char_traitsIcESaIcEEESt6vectorISt10unique_ptrI7ASTNodeSt14default_deleteIS8_EESaISB_EEE7counter(%rip), %eax
	leal	1(%rax), %edx
	movl	%edx, _ZZN9EveryNodeC4ENSt7__cxx1112basic_stringIcSt11char_traitsIcESaIcEEESt6vectorISt10unique_ptrI7ASTNodeSt14default_deleteIS8_EESaISB_EEE7counter(%rip)
	movq	32(%rbp), %rdx
	movl	%eax, 64(%rdx)
	jmp	.L536
.L535:
	movq	%rax, %rbx
	movq	32(%rbp), %rax
	movq	%rax, %rcx
	call	_ZN7ASTNodeD2Ev
	movq	%rbx, %rax
	movq	%rax, %rcx
.LEHB163:
	call	_Unwind_Resume
	nop
.LEHE163:
.L536:
	addq	$40, %rsp
	popq	%rbx
	popq	%rbp
	ret
	.seh_handler	__gxx_personality_seh0, @unwind, @except
	.seh_handlerdata
.LLSDA4004:
	.byte	0xff
	.byte	0xff
	.byte	0x1
	.uleb128 .LLSDACSE4004-.LLSDACSB4004
.LLSDACSB4004:
	.uleb128 .LEHB162-.LFB4004
	.uleb128 .LEHE162-.LEHB162
	.uleb128 .L535-.LFB4004
	.uleb128 0
	.uleb128 .LEHB163-.LFB4004
	.uleb128 .LEHE163-.LEHB163
	.uleb128 0
	.uleb128 0
.LLSDACSE4004:
	.section	.text$_ZN9EveryNodeC1ENSt7__cxx1112basic_stringIcSt11char_traitsIcESaIcEEESt6vectorISt10unique_ptrI7ASTNodeSt14default_deleteIS8_EESaISB_EE,"x"
	.linkonce discard
	.seh_endproc
	.section .rdata,"dr"
.LC78:
	.ascii "_every_timer_\0"
.LC79:
	.ascii "static unsigned long \0"
.LC80:
	.ascii " = 0;\12\0"
.LC81:
	.ascii "    if (millis() - \0"
.LC82:
	.ascii " >= \0"
.LC83:
	.ascii " = millis();\12\0"
	.section	.text$_ZN9EveryNode5toCppB5cxx11Ev,"x"
	.linkonce discard
	.align 2
	.globl	_ZN9EveryNode5toCppB5cxx11Ev
	.def	_ZN9EveryNode5toCppB5cxx11Ev;	.scl	2;	.type	32;	.endef
	.seh_proc	_ZN9EveryNode5toCppB5cxx11Ev
_ZN9EveryNode5toCppB5cxx11Ev:
.LFB4005:
	pushq	%rbp
	.seh_pushreg	%rbp
	pushq	%rbx
	.seh_pushreg	%rbx
	subq	$456, %rsp
	.seh_stackalloc	456
	leaq	128(%rsp), %rbp
	.seh_setframe	%rbp, 128
	.seh_endprologue
	movq	%rcx, 352(%rbp)
	movq	%rdx, 360(%rbp)
	movq	360(%rbp), %rax
	movl	64(%rax), %edx
	leaq	-48(%rbp), %rax
	movq	%rax, %rcx
	call	_ZNSt7__cxx119to_stringEi
	leaq	-80(%rbp), %rax
	leaq	-48(%rbp), %rdx
	movq	%rdx, %r8
	leaq	.LC78(%rip), %rdx
	movq	%rax, %rcx
.LEHB164:
	call	_ZStplIcSt11char_traitsIcESaIcEENSt7__cxx1112basic_stringIT_T0_T1_EEPKS5_OS8_
.LEHE164:
	leaq	-48(%rbp), %rax
	movq	%rax, %rcx
	call	_ZNSt7__cxx1112basic_stringIcSt11char_traitsIcESaIcEED1Ev
	leaq	-16(%rbp), %rax
	leaq	-80(%rbp), %rdx
	movq	%rdx, %r8
	leaq	.LC79(%rip), %rdx
	movq	%rax, %rcx
.LEHB165:
	call	_ZStplIcSt11char_traitsIcESaIcEENSt7__cxx1112basic_stringIT_T0_T1_EEPKS5_RKS8_
.LEHE165:
	movq	352(%rbp), %rax
	leaq	-16(%rbp), %rdx
	leaq	.LC80(%rip), %r8
	movq	%rax, %rcx
.LEHB166:
	call	_ZStplIcSt11char_traitsIcESaIcEENSt7__cxx1112basic_stringIT_T0_T1_EEOS8_PKS5_
.LEHE166:
	leaq	-16(%rbp), %rax
	movq	%rax, %rcx
	call	_ZNSt7__cxx1112basic_stringIcSt11char_traitsIcESaIcEED1Ev
	movq	360(%rbp), %rax
	leaq	8(%rax), %rbx
	leaq	112(%rbp), %rax
	leaq	-80(%rbp), %rdx
	movq	%rdx, %r8
	leaq	.LC81(%rip), %rdx
	movq	%rax, %rcx
.LEHB167:
	call	_ZStplIcSt11char_traitsIcESaIcEENSt7__cxx1112basic_stringIT_T0_T1_EEPKS5_RKS8_
.LEHE167:
	leaq	80(%rbp), %rax
	leaq	112(%rbp), %rdx
	leaq	.LC82(%rip), %r8
	movq	%rax, %rcx
.LEHB168:
	call	_ZStplIcSt11char_traitsIcESaIcEENSt7__cxx1112basic_stringIT_T0_T1_EEOS8_PKS5_
.LEHE168:
	leaq	48(%rbp), %rax
	leaq	80(%rbp), %rdx
	movq	%rbx, %r8
	movq	%rax, %rcx
.LEHB169:
	call	_ZStplIcSt11char_traitsIcESaIcEENSt7__cxx1112basic_stringIT_T0_T1_EEOS8_RKS8_
.LEHE169:
	leaq	16(%rbp), %rax
	leaq	48(%rbp), %rdx
	leaq	.LC70(%rip), %r8
	movq	%rax, %rcx
.LEHB170:
	call	_ZStplIcSt11char_traitsIcESaIcEENSt7__cxx1112basic_stringIT_T0_T1_EEOS8_PKS5_
.LEHE170:
	leaq	16(%rbp), %rdx
	movq	352(%rbp), %rax
	movq	%rax, %rcx
.LEHB171:
	call	_ZNSt7__cxx1112basic_stringIcSt11char_traitsIcESaIcEEpLERKS4_
.LEHE171:
	leaq	16(%rbp), %rax
	movq	%rax, %rcx
	call	_ZNSt7__cxx1112basic_stringIcSt11char_traitsIcESaIcEED1Ev
	leaq	48(%rbp), %rax
	movq	%rax, %rcx
	call	_ZNSt7__cxx1112basic_stringIcSt11char_traitsIcESaIcEED1Ev
	leaq	80(%rbp), %rax
	movq	%rax, %rcx
	call	_ZNSt7__cxx1112basic_stringIcSt11char_traitsIcESaIcEED1Ev
	leaq	112(%rbp), %rax
	movq	%rax, %rcx
	call	_ZNSt7__cxx1112basic_stringIcSt11char_traitsIcESaIcEED1Ev
	leaq	176(%rbp), %rax
	leaq	-80(%rbp), %rdx
	movq	%rdx, %r8
	leaq	.LC71(%rip), %rdx
	movq	%rax, %rcx
.LEHB172:
	call	_ZStplIcSt11char_traitsIcESaIcEENSt7__cxx1112basic_stringIT_T0_T1_EEPKS5_RKS8_
.LEHE172:
	leaq	144(%rbp), %rax
	leaq	176(%rbp), %rdx
	leaq	.LC83(%rip), %r8
	movq	%rax, %rcx
.LEHB173:
	call	_ZStplIcSt11char_traitsIcESaIcEENSt7__cxx1112basic_stringIT_T0_T1_EEOS8_PKS5_
.LEHE173:
	leaq	144(%rbp), %rdx
	movq	352(%rbp), %rax
	movq	%rax, %rcx
.LEHB174:
	call	_ZNSt7__cxx1112basic_stringIcSt11char_traitsIcESaIcEEpLERKS4_
.LEHE174:
	leaq	144(%rbp), %rax
	movq	%rax, %rcx
	call	_ZNSt7__cxx1112basic_stringIcSt11char_traitsIcESaIcEED1Ev
	leaq	176(%rbp), %rax
	movq	%rax, %rcx
	call	_ZNSt7__cxx1112basic_stringIcSt11char_traitsIcESaIcEED1Ev
	movq	360(%rbp), %rax
	addq	$40, %rax
	movq	%rax, 312(%rbp)
	movq	312(%rbp), %rax
	movq	%rax, %rcx
	call	_ZNSt6vectorISt10unique_ptrI7ASTNodeSt14default_deleteIS1_EESaIS4_EE5beginEv
	movq	%rax, -88(%rbp)
	movq	312(%rbp), %rax
	movq	%rax, %rcx
	call	_ZNSt6vectorISt10unique_ptrI7ASTNodeSt14default_deleteIS1_EESaIS4_EE3endEv
	movq	%rax, -96(%rbp)
	jmp	.L538
.L539:
	leaq	-88(%rbp), %rax
	movq	%rax, %rcx
	call	_ZNK9__gnu_cxx17__normal_iteratorIPSt10unique_ptrI7ASTNodeSt14default_deleteIS2_EESt6vectorIS5_SaIS5_EEEdeEv
	movq	%rax, 304(%rbp)
	movq	304(%rbp), %rax
	movq	%rax, %rcx
	call	_ZNKSt10unique_ptrI7ASTNodeSt14default_deleteIS0_EEptEv
	movq	(%rax), %rdx
	addq	$16, %rdx
	movq	(%rdx), %r8
	leaq	272(%rbp), %rcx
	movq	%rax, %rdx
.LEHB175:
	call	*%r8
.LEHE175:
	leaq	240(%rbp), %rax
	leaq	272(%rbp), %rdx
	movq	%rdx, %r8
	leaq	.LC71(%rip), %rdx
	movq	%rax, %rcx
.LEHB176:
	call	_ZStplIcSt11char_traitsIcESaIcEENSt7__cxx1112basic_stringIT_T0_T1_EEPKS5_OS8_
.LEHE176:
	leaq	208(%rbp), %rax
	leaq	240(%rbp), %rdx
	leaq	.LC34(%rip), %r8
	movq	%rax, %rcx
.LEHB177:
	call	_ZStplIcSt11char_traitsIcESaIcEENSt7__cxx1112basic_stringIT_T0_T1_EEOS8_PKS5_
.LEHE177:
	leaq	208(%rbp), %rdx
	movq	352(%rbp), %rax
	movq	%rax, %rcx
.LEHB178:
	call	_ZNSt7__cxx1112basic_stringIcSt11char_traitsIcESaIcEEpLERKS4_
.LEHE178:
	leaq	208(%rbp), %rax
	movq	%rax, %rcx
	call	_ZNSt7__cxx1112basic_stringIcSt11char_traitsIcESaIcEED1Ev
	leaq	240(%rbp), %rax
	movq	%rax, %rcx
	call	_ZNSt7__cxx1112basic_stringIcSt11char_traitsIcESaIcEED1Ev
	leaq	272(%rbp), %rax
	movq	%rax, %rcx
	call	_ZNSt7__cxx1112basic_stringIcSt11char_traitsIcESaIcEED1Ev
	leaq	-88(%rbp), %rax
	movq	%rax, %rcx
	call	_ZN9__gnu_cxx17__normal_iteratorIPSt10unique_ptrI7ASTNodeSt14default_deleteIS2_EESt6vectorIS5_SaIS5_EEEppEv
.L538:
	leaq	-96(%rbp), %rdx
	leaq	-88(%rbp), %rax
	movq	%rax, %rcx
	call	_ZN9__gnu_cxxneIPSt10unique_ptrI7ASTNodeSt14default_deleteIS2_EESt6vectorIS5_SaIS5_EEEEbRKNS_17__normal_iteratorIT_T0_EESF_
	testb	%al, %al
	jne	.L539
	movq	352(%rbp), %rax
	leaq	.LC72(%rip), %rdx
	movq	%rax, %rcx
.LEHB179:
	call	_ZNSt7__cxx1112basic_stringIcSt11char_traitsIcESaIcEEpLEPKc
.LEHE179:
	leaq	-80(%rbp), %rax
	movq	%rax, %rcx
	call	_ZNSt7__cxx1112basic_stringIcSt11char_traitsIcESaIcEED1Ev
	jmp	.L567
.L554:
	movq	%rax, %rbx
	leaq	-48(%rbp), %rax
	movq	%rax, %rcx
	call	_ZNSt7__cxx1112basic_stringIcSt11char_traitsIcESaIcEED1Ev
	movq	%rbx, %rax
	movq	%rax, %rcx
.LEHB180:
	call	_Unwind_Resume
.L555:
	movq	%rax, %rbx
	leaq	-16(%rbp), %rax
	movq	%rax, %rcx
	call	_ZNSt7__cxx1112basic_stringIcSt11char_traitsIcESaIcEED1Ev
	jmp	.L543
.L560:
	movq	%rax, %rbx
	leaq	16(%rbp), %rax
	movq	%rax, %rcx
	call	_ZNSt7__cxx1112basic_stringIcSt11char_traitsIcESaIcEED1Ev
	jmp	.L545
.L559:
	movq	%rax, %rbx
.L545:
	leaq	48(%rbp), %rax
	movq	%rax, %rcx
	call	_ZNSt7__cxx1112basic_stringIcSt11char_traitsIcESaIcEED1Ev
	jmp	.L546
.L558:
	movq	%rax, %rbx
.L546:
	leaq	80(%rbp), %rax
	movq	%rax, %rcx
	call	_ZNSt7__cxx1112basic_stringIcSt11char_traitsIcESaIcEED1Ev
	jmp	.L547
.L557:
	movq	%rax, %rbx
.L547:
	leaq	112(%rbp), %rax
	movq	%rax, %rcx
	call	_ZNSt7__cxx1112basic_stringIcSt11char_traitsIcESaIcEED1Ev
	jmp	.L548
.L563:
	movq	%rax, %rbx
	leaq	144(%rbp), %rax
	movq	%rax, %rcx
	call	_ZNSt7__cxx1112basic_stringIcSt11char_traitsIcESaIcEED1Ev
	jmp	.L550
.L562:
	movq	%rax, %rbx
.L550:
	leaq	176(%rbp), %rax
	movq	%rax, %rcx
	call	_ZNSt7__cxx1112basic_stringIcSt11char_traitsIcESaIcEED1Ev
	jmp	.L548
.L566:
	movq	%rax, %rbx
	leaq	208(%rbp), %rax
	movq	%rax, %rcx
	call	_ZNSt7__cxx1112basic_stringIcSt11char_traitsIcESaIcEED1Ev
	jmp	.L552
.L565:
	movq	%rax, %rbx
.L552:
	leaq	240(%rbp), %rax
	movq	%rax, %rcx
	call	_ZNSt7__cxx1112basic_stringIcSt11char_traitsIcESaIcEED1Ev
	jmp	.L553
.L564:
	movq	%rax, %rbx
.L553:
	leaq	272(%rbp), %rax
	movq	%rax, %rcx
	call	_ZNSt7__cxx1112basic_stringIcSt11char_traitsIcESaIcEED1Ev
	jmp	.L548
.L561:
	movq	%rax, %rbx
.L548:
	movq	352(%rbp), %rax
	movq	%rax, %rcx
	call	_ZNSt7__cxx1112basic_stringIcSt11char_traitsIcESaIcEED1Ev
	jmp	.L543
.L556:
	movq	%rax, %rbx
.L543:
	leaq	-80(%rbp), %rax
	movq	%rax, %rcx
	call	_ZNSt7__cxx1112basic_stringIcSt11char_traitsIcESaIcEED1Ev
	movq	%rbx, %rax
	movq	%rax, %rcx
	call	_Unwind_Resume
.LEHE180:
.L567:
	movq	352(%rbp), %rax
	addq	$456, %rsp
	popq	%rbx
	popq	%rbp
	ret
	.seh_handler	__gxx_personality_seh0, @unwind, @except
	.seh_handlerdata
.LLSDA4005:
	.byte	0xff
	.byte	0xff
	.byte	0x1
	.uleb128 .LLSDACSE4005-.LLSDACSB4005
.LLSDACSB4005:
	.uleb128 .LEHB164-.LFB4005
	.uleb128 .LEHE164-.LEHB164
	.uleb128 .L554-.LFB4005
	.uleb128 0
	.uleb128 .LEHB165-.LFB4005
	.uleb128 .LEHE165-.LEHB165
	.uleb128 .L556-.LFB4005
	.uleb128 0
	.uleb128 .LEHB166-.LFB4005
	.uleb128 .LEHE166-.LEHB166
	.uleb128 .L555-.LFB4005
	.uleb128 0
	.uleb128 .LEHB167-.LFB4005
	.uleb128 .LEHE167-.LEHB167
	.uleb128 .L561-.LFB4005
	.uleb128 0
	.uleb128 .LEHB168-.LFB4005
	.uleb128 .LEHE168-.LEHB168
	.uleb128 .L557-.LFB4005
	.uleb128 0
	.uleb128 .LEHB169-.LFB4005
	.uleb128 .LEHE169-.LEHB169
	.uleb128 .L558-.LFB4005
	.uleb128 0
	.uleb128 .LEHB170-.LFB4005
	.uleb128 .LEHE170-.LEHB170
	.uleb128 .L559-.LFB4005
	.uleb128 0
	.uleb128 .LEHB171-.LFB4005
	.uleb128 .LEHE171-.LEHB171
	.uleb128 .L560-.LFB4005
	.uleb128 0
	.uleb128 .LEHB172-.LFB4005
	.uleb128 .LEHE172-.LEHB172
	.uleb128 .L561-.LFB4005
	.uleb128 0
	.uleb128 .LEHB173-.LFB4005
	.uleb128 .LEHE173-.LEHB173
	.uleb128 .L562-.LFB4005
	.uleb128 0
	.uleb128 .LEHB174-.LFB4005
	.uleb128 .LEHE174-.LEHB174
	.uleb128 .L563-.LFB4005
	.uleb128 0
	.uleb128 .LEHB175-.LFB4005
	.uleb128 .LEHE175-.LEHB175
	.uleb128 .L561-.LFB4005
	.uleb128 0
	.uleb128 .LEHB176-.LFB4005
	.uleb128 .LEHE176-.LEHB176
	.uleb128 .L564-.LFB4005
	.uleb128 0
	.uleb128 .LEHB177-.LFB4005
	.uleb128 .LEHE177-.LEHB177
	.uleb128 .L565-.LFB4005
	.uleb128 0
	.uleb128 .LEHB178-.LFB4005
	.uleb128 .LEHE178-.LEHB178
	.uleb128 .L566-.LFB4005
	.uleb128 0
	.uleb128 .LEHB179-.LFB4005
	.uleb128 .LEHE179-.LEHB179
	.uleb128 .L561-.LFB4005
	.uleb128 0
	.uleb128 .LEHB180-.LFB4005
	.uleb128 .LEHE180-.LEHB180
	.uleb128 0
	.uleb128 0
.LLSDACSE4005:
	.section	.text$_ZN9EveryNode5toCppB5cxx11Ev,"x"
	.linkonce discard
	.seh_endproc
	.section	.text$_ZN9WhileNodeC1ENSt7__cxx1112basic_stringIcSt11char_traitsIcESaIcEEESt6vectorISt10unique_ptrI7ASTNodeSt14default_deleteIS8_EESaISB_EE,"x"
	.linkonce discard
	.align 2
	.globl	_ZN9WhileNodeC1ENSt7__cxx1112basic_stringIcSt11char_traitsIcESaIcEEESt6vectorISt10unique_ptrI7ASTNodeSt14default_deleteIS8_EESaISB_EE
	.def	_ZN9WhileNodeC1ENSt7__cxx1112basic_stringIcSt11char_traitsIcESaIcEEESt6vectorISt10unique_ptrI7ASTNodeSt14default_deleteIS8_EESaISB_EE;	.scl	2;	.type	32;	.endef
	.seh_proc	_ZN9WhileNodeC1ENSt7__cxx1112basic_stringIcSt11char_traitsIcESaIcEEESt6vectorISt10unique_ptrI7ASTNodeSt14default_deleteIS8_EESaISB_EE
_ZN9WhileNodeC1ENSt7__cxx1112basic_stringIcSt11char_traitsIcESaIcEEESt6vectorISt10unique_ptrI7ASTNodeSt14default_deleteIS8_EESaISB_EE:
.LFB4008:
	pushq	%rbp
	.seh_pushreg	%rbp
	pushq	%rbx
	.seh_pushreg	%rbx
	subq	$40, %rsp
	.seh_stackalloc	40
	leaq	32(%rsp), %rbp
	.seh_setframe	%rbp, 32
	.seh_endprologue
	movq	%rcx, 32(%rbp)
	movq	%rdx, 40(%rbp)
	movq	%r8, 48(%rbp)
	movq	32(%rbp), %rax
	movq	%rax, %rcx
	call	_ZN7ASTNodeC2Ev
	leaq	16+_ZTV9WhileNode(%rip), %rdx
	movq	32(%rbp), %rax
	movq	%rdx, (%rax)
	movq	32(%rbp), %rax
	leaq	8(%rax), %rcx
	movq	40(%rbp), %rax
	movq	%rax, %rdx
.LEHB181:
	call	_ZNSt7__cxx1112basic_stringIcSt11char_traitsIcESaIcEEC1ERKS4_
.LEHE181:
	movq	32(%rbp), %rax
	leaq	40(%rax), %rbx
	movq	48(%rbp), %rax
	movq	%rax, %rcx
	call	_ZSt4moveIRSt6vectorISt10unique_ptrI7ASTNodeSt14default_deleteIS2_EESaIS5_EEEONSt16remove_referenceIT_E4typeEOSA_
	movq	%rax, %rdx
	movq	%rbx, %rcx
	call	_ZNSt6vectorISt10unique_ptrI7ASTNodeSt14default_deleteIS1_EESaIS4_EEC1EOS6_
	jmp	.L571
.L570:
	movq	%rax, %rbx
	movq	32(%rbp), %rax
	movq	%rax, %rcx
	call	_ZN7ASTNodeD2Ev
	movq	%rbx, %rax
	movq	%rax, %rcx
.LEHB182:
	call	_Unwind_Resume
	nop
.LEHE182:
.L571:
	addq	$40, %rsp
	popq	%rbx
	popq	%rbp
	ret
	.seh_handler	__gxx_personality_seh0, @unwind, @except
	.seh_handlerdata
.LLSDA4008:
	.byte	0xff
	.byte	0xff
	.byte	0x1
	.uleb128 .LLSDACSE4008-.LLSDACSB4008
.LLSDACSB4008:
	.uleb128 .LEHB181-.LFB4008
	.uleb128 .LEHE181-.LEHB181
	.uleb128 .L570-.LFB4008
	.uleb128 0
	.uleb128 .LEHB182-.LFB4008
	.uleb128 .LEHE182-.LEHB182
	.uleb128 0
	.uleb128 0
.LLSDACSE4008:
	.section	.text$_ZN9WhileNodeC1ENSt7__cxx1112basic_stringIcSt11char_traitsIcESaIcEEESt6vectorISt10unique_ptrI7ASTNodeSt14default_deleteIS8_EESaISB_EE,"x"
	.linkonce discard
	.seh_endproc
	.section .rdata,"dr"
.LC84:
	.ascii "while (\0"
	.section	.text$_ZN9WhileNode5toCppB5cxx11Ev,"x"
	.linkonce discard
	.align 2
	.globl	_ZN9WhileNode5toCppB5cxx11Ev
	.def	_ZN9WhileNode5toCppB5cxx11Ev;	.scl	2;	.type	32;	.endef
	.seh_proc	_ZN9WhileNode5toCppB5cxx11Ev
_ZN9WhileNode5toCppB5cxx11Ev:
.LFB4009:
	pushq	%rbp
	.seh_pushreg	%rbp
	pushq	%rbx
	.seh_pushreg	%rbx
	subq	$200, %rsp
	.seh_stackalloc	200
	leaq	192(%rsp), %rbp
	.seh_setframe	%rbp, 192
	.seh_endprologue
	movq	%rcx, 32(%rbp)
	movq	%rdx, 40(%rbp)
	movq	40(%rbp), %rax
	leaq	8(%rax), %rdx
	leaq	-144(%rbp), %rax
	movq	%rdx, %r8
	leaq	.LC84(%rip), %rdx
	movq	%rax, %rcx
.LEHB183:
	call	_ZStplIcSt11char_traitsIcESaIcEENSt7__cxx1112basic_stringIT_T0_T1_EEPKS5_RKS8_
.LEHE183:
	movq	32(%rbp), %rax
	leaq	-144(%rbp), %rdx
	leaq	.LC70(%rip), %r8
	movq	%rax, %rcx
.LEHB184:
	call	_ZStplIcSt11char_traitsIcESaIcEENSt7__cxx1112basic_stringIT_T0_T1_EEOS8_PKS5_
.LEHE184:
	leaq	-144(%rbp), %rax
	movq	%rax, %rcx
	call	_ZNSt7__cxx1112basic_stringIcSt11char_traitsIcESaIcEED1Ev
	movq	40(%rbp), %rax
	addq	$40, %rax
	movq	%rax, -8(%rbp)
	movq	-8(%rbp), %rax
	movq	%rax, %rcx
	call	_ZNSt6vectorISt10unique_ptrI7ASTNodeSt14default_deleteIS1_EESaIS4_EE5beginEv
	movq	%rax, -152(%rbp)
	movq	-8(%rbp), %rax
	movq	%rax, %rcx
	call	_ZNSt6vectorISt10unique_ptrI7ASTNodeSt14default_deleteIS1_EESaIS4_EE3endEv
	movq	%rax, -160(%rbp)
	jmp	.L573
.L574:
	leaq	-152(%rbp), %rax
	movq	%rax, %rcx
	call	_ZNK9__gnu_cxx17__normal_iteratorIPSt10unique_ptrI7ASTNodeSt14default_deleteIS2_EESt6vectorIS5_SaIS5_EEEdeEv
	movq	%rax, -16(%rbp)
	movq	-16(%rbp), %rax
	movq	%rax, %rcx
	call	_ZNKSt10unique_ptrI7ASTNodeSt14default_deleteIS0_EEptEv
	movq	(%rax), %rdx
	addq	$16, %rdx
	movq	(%rdx), %r8
	leaq	-48(%rbp), %rcx
	movq	%rax, %rdx
.LEHB185:
	call	*%r8
.LEHE185:
	leaq	-80(%rbp), %rax
	leaq	-48(%rbp), %rdx
	movq	%rdx, %r8
	leaq	.LC71(%rip), %rdx
	movq	%rax, %rcx
.LEHB186:
	call	_ZStplIcSt11char_traitsIcESaIcEENSt7__cxx1112basic_stringIT_T0_T1_EEPKS5_OS8_
.LEHE186:
	leaq	-112(%rbp), %rax
	leaq	-80(%rbp), %rdx
	leaq	.LC34(%rip), %r8
	movq	%rax, %rcx
.LEHB187:
	call	_ZStplIcSt11char_traitsIcESaIcEENSt7__cxx1112basic_stringIT_T0_T1_EEOS8_PKS5_
.LEHE187:
	leaq	-112(%rbp), %rdx
	movq	32(%rbp), %rax
	movq	%rax, %rcx
.LEHB188:
	call	_ZNSt7__cxx1112basic_stringIcSt11char_traitsIcESaIcEEpLERKS4_
.LEHE188:
	leaq	-112(%rbp), %rax
	movq	%rax, %rcx
	call	_ZNSt7__cxx1112basic_stringIcSt11char_traitsIcESaIcEED1Ev
	leaq	-80(%rbp), %rax
	movq	%rax, %rcx
	call	_ZNSt7__cxx1112basic_stringIcSt11char_traitsIcESaIcEED1Ev
	leaq	-48(%rbp), %rax
	movq	%rax, %rcx
	call	_ZNSt7__cxx1112basic_stringIcSt11char_traitsIcESaIcEED1Ev
	leaq	-152(%rbp), %rax
	movq	%rax, %rcx
	call	_ZN9__gnu_cxx17__normal_iteratorIPSt10unique_ptrI7ASTNodeSt14default_deleteIS2_EESt6vectorIS5_SaIS5_EEEppEv
.L573:
	leaq	-160(%rbp), %rdx
	leaq	-152(%rbp), %rax
	movq	%rax, %rcx
	call	_ZN9__gnu_cxxneIPSt10unique_ptrI7ASTNodeSt14default_deleteIS2_EESt6vectorIS5_SaIS5_EEEEbRKNS_17__normal_iteratorIT_T0_EESF_
	testb	%al, %al
	jne	.L574
	movq	32(%rbp), %rax
	leaq	.LC72(%rip), %rdx
	movq	%rax, %rcx
.LEHB189:
	call	_ZNSt7__cxx1112basic_stringIcSt11char_traitsIcESaIcEEpLEPKc
.LEHE189:
	jmp	.L586
.L581:
	movq	%rax, %rbx
	leaq	-144(%rbp), %rax
	movq	%rax, %rcx
	call	_ZNSt7__cxx1112basic_stringIcSt11char_traitsIcESaIcEED1Ev
	movq	%rbx, %rax
	movq	%rax, %rcx
.LEHB190:
	call	_Unwind_Resume
.L584:
	movq	%rax, %rbx
	leaq	-112(%rbp), %rax
	movq	%rax, %rcx
	call	_ZNSt7__cxx1112basic_stringIcSt11char_traitsIcESaIcEED1Ev
	jmp	.L578
.L583:
	movq	%rax, %rbx
.L578:
	leaq	-80(%rbp), %rax
	movq	%rax, %rcx
	call	_ZNSt7__cxx1112basic_stringIcSt11char_traitsIcESaIcEED1Ev
	jmp	.L579
.L582:
	movq	%rax, %rbx
.L579:
	leaq	-48(%rbp), %rax
	movq	%rax, %rcx
	call	_ZNSt7__cxx1112basic_stringIcSt11char_traitsIcESaIcEED1Ev
	jmp	.L580
.L585:
	movq	%rax, %rbx
.L580:
	movq	32(%rbp), %rax
	movq	%rax, %rcx
	call	_ZNSt7__cxx1112basic_stringIcSt11char_traitsIcESaIcEED1Ev
	movq	%rbx, %rax
	movq	%rax, %rcx
	call	_Unwind_Resume
.LEHE190:
.L586:
	movq	32(%rbp), %rax
	addq	$200, %rsp
	popq	%rbx
	popq	%rbp
	ret
	.seh_handler	__gxx_personality_seh0, @unwind, @except
	.seh_handlerdata
.LLSDA4009:
	.byte	0xff
	.byte	0xff
	.byte	0x1
	.uleb128 .LLSDACSE4009-.LLSDACSB4009
.LLSDACSB4009:
	.uleb128 .LEHB183-.LFB4009
	.uleb128 .LEHE183-.LEHB183
	.uleb128 0
	.uleb128 0
	.uleb128 .LEHB184-.LFB4009
	.uleb128 .LEHE184-.LEHB184
	.uleb128 .L581-.LFB4009
	.uleb128 0
	.uleb128 .LEHB185-.LFB4009
	.uleb128 .LEHE185-.LEHB185
	.uleb128 .L585-.LFB4009
	.uleb128 0
	.uleb128 .LEHB186-.LFB4009
	.uleb128 .LEHE186-.LEHB186
	.uleb128 .L582-.LFB4009
	.uleb128 0
	.uleb128 .LEHB187-.LFB4009
	.uleb128 .LEHE187-.LEHB187
	.uleb128 .L583-.LFB4009
	.uleb128 0
	.uleb128 .LEHB188-.LFB4009
	.uleb128 .LEHE188-.LEHB188
	.uleb128 .L584-.LFB4009
	.uleb128 0
	.uleb128 .LEHB189-.LFB4009
	.uleb128 .LEHE189-.LEHB189
	.uleb128 .L585-.LFB4009
	.uleb128 0
	.uleb128 .LEHB190-.LFB4009
	.uleb128 .LEHE190-.LEHB190
	.uleb128 0
	.uleb128 0
.LLSDACSE4009:
	.section	.text$_ZN9WhileNode5toCppB5cxx11Ev,"x"
	.linkonce discard
	.seh_endproc
	.globl	_ZZN10RepeatNodeC4ENSt7__cxx1112basic_stringIcSt11char_traitsIcESaIcEEESt6vectorISt10unique_ptrI7ASTNodeSt14default_deleteIS8_EESaISB_EEE7counter
	.section	.data$_ZZN10RepeatNodeC4ENSt7__cxx1112basic_stringIcSt11char_traitsIcESaIcEEESt6vectorISt10unique_ptrI7ASTNodeSt14default_deleteIS8_EESaISB_EEE7counter,"w"
	.linkonce same_size
	.align 4
_ZZN10RepeatNodeC4ENSt7__cxx1112basic_stringIcSt11char_traitsIcESaIcEEESt6vectorISt10unique_ptrI7ASTNodeSt14default_deleteIS8_EESaISB_EEE7counter:
	.space 4
	.section	.text$_ZN10RepeatNodeC1ENSt7__cxx1112basic_stringIcSt11char_traitsIcESaIcEEESt6vectorISt10unique_ptrI7ASTNodeSt14default_deleteIS8_EESaISB_EE,"x"
	.linkonce discard
	.align 2
	.globl	_ZN10RepeatNodeC1ENSt7__cxx1112basic_stringIcSt11char_traitsIcESaIcEEESt6vectorISt10unique_ptrI7ASTNodeSt14default_deleteIS8_EESaISB_EE
	.def	_ZN10RepeatNodeC1ENSt7__cxx1112basic_stringIcSt11char_traitsIcESaIcEEESt6vectorISt10unique_ptrI7ASTNodeSt14default_deleteIS8_EESaISB_EE;	.scl	2;	.type	32;	.endef
	.seh_proc	_ZN10RepeatNodeC1ENSt7__cxx1112basic_stringIcSt11char_traitsIcESaIcEEESt6vectorISt10unique_ptrI7ASTNodeSt14default_deleteIS8_EESaISB_EE
_ZN10RepeatNodeC1ENSt7__cxx1112basic_stringIcSt11char_traitsIcESaIcEEESt6vectorISt10unique_ptrI7ASTNodeSt14default_deleteIS8_EESaISB_EE:
.LFB4012:
	pushq	%rbp
	.seh_pushreg	%rbp
	pushq	%rbx
	.seh_pushreg	%rbx
	subq	$40, %rsp
	.seh_stackalloc	40
	leaq	32(%rsp), %rbp
	.seh_setframe	%rbp, 32
	.seh_endprologue
	movq	%rcx, 32(%rbp)
	movq	%rdx, 40(%rbp)
	movq	%r8, 48(%rbp)
	movq	32(%rbp), %rax
	movq	%rax, %rcx
	call	_ZN7ASTNodeC2Ev
	leaq	16+_ZTV10RepeatNode(%rip), %rdx
	movq	32(%rbp), %rax
	movq	%rdx, (%rax)
	movq	32(%rbp), %rax
	leaq	8(%rax), %rcx
	movq	40(%rbp), %rax
	movq	%rax, %rdx
.LEHB191:
	call	_ZNSt7__cxx1112basic_stringIcSt11char_traitsIcESaIcEEC1ERKS4_
.LEHE191:
	movq	32(%rbp), %rax
	leaq	40(%rax), %rbx
	movq	48(%rbp), %rax
	movq	%rax, %rcx
	call	_ZSt4moveIRSt6vectorISt10unique_ptrI7ASTNodeSt14default_deleteIS2_EESaIS5_EEEONSt16remove_referenceIT_E4typeEOSA_
	movq	%rax, %rdx
	movq	%rbx, %rcx
	call	_ZNSt6vectorISt10unique_ptrI7ASTNodeSt14default_deleteIS1_EESaIS4_EEC1EOS6_
	movl	_ZZN10RepeatNodeC4ENSt7__cxx1112basic_stringIcSt11char_traitsIcESaIcEEESt6vectorISt10unique_ptrI7ASTNodeSt14default_deleteIS8_EESaISB_EEE7counter(%rip), %eax
	leal	1(%rax), %edx
	movl	%edx, _ZZN10RepeatNodeC4ENSt7__cxx1112basic_stringIcSt11char_traitsIcESaIcEEESt6vectorISt10unique_ptrI7ASTNodeSt14default_deleteIS8_EESaISB_EEE7counter(%rip)
	movq	32(%rbp), %rdx
	movl	%eax, 64(%rdx)
	jmp	.L590
.L589:
	movq	%rax, %rbx
	movq	32(%rbp), %rax
	movq	%rax, %rcx
	call	_ZN7ASTNodeD2Ev
	movq	%rbx, %rax
	movq	%rax, %rcx
.LEHB192:
	call	_Unwind_Resume
	nop
.LEHE192:
.L590:
	addq	$40, %rsp
	popq	%rbx
	popq	%rbp
	ret
	.seh_handler	__gxx_personality_seh0, @unwind, @except
	.seh_handlerdata
.LLSDA4012:
	.byte	0xff
	.byte	0xff
	.byte	0x1
	.uleb128 .LLSDACSE4012-.LLSDACSB4012
.LLSDACSB4012:
	.uleb128 .LEHB191-.LFB4012
	.uleb128 .LEHE191-.LEHB191
	.uleb128 .L589-.LFB4012
	.uleb128 0
	.uleb128 .LEHB192-.LFB4012
	.uleb128 .LEHE192-.LEHB192
	.uleb128 0
	.uleb128 0
.LLSDACSE4012:
	.section	.text$_ZN10RepeatNodeC1ENSt7__cxx1112basic_stringIcSt11char_traitsIcESaIcEEESt6vectorISt10unique_ptrI7ASTNodeSt14default_deleteIS8_EESaISB_EE,"x"
	.linkonce discard
	.seh_endproc
	.section .rdata,"dr"
.LC85:
	.ascii "_loop_i_\0"
.LC86:
	.ascii "for (int \0"
.LC87:
	.ascii " = 0; \0"
.LC88:
	.ascii " < \0"
.LC89:
	.ascii "; \0"
.LC90:
	.ascii "++) {\12\0"
	.section	.text$_ZN10RepeatNode5toCppB5cxx11Ev,"x"
	.linkonce discard
	.align 2
	.globl	_ZN10RepeatNode5toCppB5cxx11Ev
	.def	_ZN10RepeatNode5toCppB5cxx11Ev;	.scl	2;	.type	32;	.endef
	.seh_proc	_ZN10RepeatNode5toCppB5cxx11Ev
_ZN10RepeatNode5toCppB5cxx11Ev:
.LFB4013:
	pushq	%rbp
	.seh_pushreg	%rbp
	pushq	%rbx
	.seh_pushreg	%rbx
	subq	$456, %rsp
	.seh_stackalloc	456
	leaq	128(%rsp), %rbp
	.seh_setframe	%rbp, 128
	.seh_endprologue
	movq	%rcx, 352(%rbp)
	movq	%rdx, 360(%rbp)
	movq	360(%rbp), %rax
	movl	64(%rax), %edx
	leaq	-48(%rbp), %rax
	movq	%rax, %rcx
	call	_ZNSt7__cxx119to_stringEi
	leaq	-80(%rbp), %rax
	leaq	-48(%rbp), %rdx
	movq	%rdx, %r8
	leaq	.LC85(%rip), %rdx
	movq	%rax, %rcx
.LEHB193:
	call	_ZStplIcSt11char_traitsIcESaIcEENSt7__cxx1112basic_stringIT_T0_T1_EEPKS5_OS8_
.LEHE193:
	leaq	-48(%rbp), %rax
	movq	%rax, %rcx
	call	_ZNSt7__cxx1112basic_stringIcSt11char_traitsIcESaIcEED1Ev
	movq	360(%rbp), %rax
	leaq	8(%rax), %rbx
	leaq	176(%rbp), %rax
	leaq	-80(%rbp), %rdx
	movq	%rdx, %r8
	leaq	.LC86(%rip), %rdx
	movq	%rax, %rcx
.LEHB194:
	call	_ZStplIcSt11char_traitsIcESaIcEENSt7__cxx1112basic_stringIT_T0_T1_EEPKS5_RKS8_
.LEHE194:
	leaq	144(%rbp), %rax
	leaq	176(%rbp), %rdx
	leaq	.LC87(%rip), %r8
	movq	%rax, %rcx
.LEHB195:
	call	_ZStplIcSt11char_traitsIcESaIcEENSt7__cxx1112basic_stringIT_T0_T1_EEOS8_PKS5_
.LEHE195:
	leaq	112(%rbp), %rax
	leaq	-80(%rbp), %rcx
	leaq	144(%rbp), %rdx
	movq	%rcx, %r8
	movq	%rax, %rcx
.LEHB196:
	call	_ZStplIcSt11char_traitsIcESaIcEENSt7__cxx1112basic_stringIT_T0_T1_EEOS8_RKS8_
.LEHE196:
	leaq	80(%rbp), %rax
	leaq	112(%rbp), %rdx
	leaq	.LC88(%rip), %r8
	movq	%rax, %rcx
.LEHB197:
	call	_ZStplIcSt11char_traitsIcESaIcEENSt7__cxx1112basic_stringIT_T0_T1_EEOS8_PKS5_
.LEHE197:
	leaq	48(%rbp), %rax
	leaq	80(%rbp), %rdx
	movq	%rbx, %r8
	movq	%rax, %rcx
.LEHB198:
	call	_ZStplIcSt11char_traitsIcESaIcEENSt7__cxx1112basic_stringIT_T0_T1_EEOS8_RKS8_
.LEHE198:
	leaq	16(%rbp), %rax
	leaq	48(%rbp), %rdx
	leaq	.LC89(%rip), %r8
	movq	%rax, %rcx
.LEHB199:
	call	_ZStplIcSt11char_traitsIcESaIcEENSt7__cxx1112basic_stringIT_T0_T1_EEOS8_PKS5_
.LEHE199:
	leaq	-16(%rbp), %rax
	leaq	-80(%rbp), %rcx
	leaq	16(%rbp), %rdx
	movq	%rcx, %r8
	movq	%rax, %rcx
.LEHB200:
	call	_ZStplIcSt11char_traitsIcESaIcEENSt7__cxx1112basic_stringIT_T0_T1_EEOS8_RKS8_
.LEHE200:
	movq	352(%rbp), %rax
	leaq	-16(%rbp), %rdx
	leaq	.LC90(%rip), %r8
	movq	%rax, %rcx
.LEHB201:
	call	_ZStplIcSt11char_traitsIcESaIcEENSt7__cxx1112basic_stringIT_T0_T1_EEOS8_PKS5_
.LEHE201:
	leaq	-16(%rbp), %rax
	movq	%rax, %rcx
	call	_ZNSt7__cxx1112basic_stringIcSt11char_traitsIcESaIcEED1Ev
	leaq	16(%rbp), %rax
	movq	%rax, %rcx
	call	_ZNSt7__cxx1112basic_stringIcSt11char_traitsIcESaIcEED1Ev
	leaq	48(%rbp), %rax
	movq	%rax, %rcx
	call	_ZNSt7__cxx1112basic_stringIcSt11char_traitsIcESaIcEED1Ev
	leaq	80(%rbp), %rax
	movq	%rax, %rcx
	call	_ZNSt7__cxx1112basic_stringIcSt11char_traitsIcESaIcEED1Ev
	leaq	112(%rbp), %rax
	movq	%rax, %rcx
	call	_ZNSt7__cxx1112basic_stringIcSt11char_traitsIcESaIcEED1Ev
	leaq	144(%rbp), %rax
	movq	%rax, %rcx
	call	_ZNSt7__cxx1112basic_stringIcSt11char_traitsIcESaIcEED1Ev
	leaq	176(%rbp), %rax
	movq	%rax, %rcx
	call	_ZNSt7__cxx1112basic_stringIcSt11char_traitsIcESaIcEED1Ev
	movq	360(%rbp), %rax
	addq	$40, %rax
	movq	%rax, 312(%rbp)
	movq	312(%rbp), %rax
	movq	%rax, %rcx
	call	_ZNSt6vectorISt10unique_ptrI7ASTNodeSt14default_deleteIS1_EESaIS4_EE5beginEv
	movq	%rax, -88(%rbp)
	movq	312(%rbp), %rax
	movq	%rax, %rcx
	call	_ZNSt6vectorISt10unique_ptrI7ASTNodeSt14default_deleteIS1_EESaIS4_EE3endEv
	movq	%rax, -96(%rbp)
	jmp	.L592
.L593:
	leaq	-88(%rbp), %rax
	movq	%rax, %rcx
	call	_ZNK9__gnu_cxx17__normal_iteratorIPSt10unique_ptrI7ASTNodeSt14default_deleteIS2_EESt6vectorIS5_SaIS5_EEEdeEv
	movq	%rax, 304(%rbp)
	movq	304(%rbp), %rax
	movq	%rax, %rcx
	call	_ZNKSt10unique_ptrI7ASTNodeSt14default_deleteIS0_EEptEv
	movq	(%rax), %rdx
	addq	$16, %rdx
	movq	(%rdx), %r8
	leaq	272(%rbp), %rcx
	movq	%rax, %rdx
.LEHB202:
	call	*%r8
.LEHE202:
	leaq	240(%rbp), %rax
	leaq	272(%rbp), %rdx
	movq	%rdx, %r8
	leaq	.LC71(%rip), %rdx
	movq	%rax, %rcx
.LEHB203:
	call	_ZStplIcSt11char_traitsIcESaIcEENSt7__cxx1112basic_stringIT_T0_T1_EEPKS5_OS8_
.LEHE203:
	leaq	208(%rbp), %rax
	leaq	240(%rbp), %rdx
	leaq	.LC34(%rip), %r8
	movq	%rax, %rcx
.LEHB204:
	call	_ZStplIcSt11char_traitsIcESaIcEENSt7__cxx1112basic_stringIT_T0_T1_EEOS8_PKS5_
.LEHE204:
	leaq	208(%rbp), %rdx
	movq	352(%rbp), %rax
	movq	%rax, %rcx
.LEHB205:
	call	_ZNSt7__cxx1112basic_stringIcSt11char_traitsIcESaIcEEpLERKS4_
.LEHE205:
	leaq	208(%rbp), %rax
	movq	%rax, %rcx
	call	_ZNSt7__cxx1112basic_stringIcSt11char_traitsIcESaIcEED1Ev
	leaq	240(%rbp), %rax
	movq	%rax, %rcx
	call	_ZNSt7__cxx1112basic_stringIcSt11char_traitsIcESaIcEED1Ev
	leaq	272(%rbp), %rax
	movq	%rax, %rcx
	call	_ZNSt7__cxx1112basic_stringIcSt11char_traitsIcESaIcEED1Ev
	leaq	-88(%rbp), %rax
	movq	%rax, %rcx
	call	_ZN9__gnu_cxx17__normal_iteratorIPSt10unique_ptrI7ASTNodeSt14default_deleteIS2_EESt6vectorIS5_SaIS5_EEEppEv
.L592:
	leaq	-96(%rbp), %rdx
	leaq	-88(%rbp), %rax
	movq	%rax, %rcx
	call	_ZN9__gnu_cxxneIPSt10unique_ptrI7ASTNodeSt14default_deleteIS2_EESt6vectorIS5_SaIS5_EEEEbRKNS_17__normal_iteratorIT_T0_EESF_
	testb	%al, %al
	jne	.L593
	movq	352(%rbp), %rax
	leaq	.LC72(%rip), %rdx
	movq	%rax, %rcx
.LEHB206:
	call	_ZNSt7__cxx1112basic_stringIcSt11char_traitsIcESaIcEEpLEPKc
.LEHE206:
	leaq	-80(%rbp), %rax
	movq	%rax, %rcx
	call	_ZNSt7__cxx1112basic_stringIcSt11char_traitsIcESaIcEED1Ev
	jmp	.L621
.L608:
	movq	%rax, %rbx
	leaq	-48(%rbp), %rax
	movq	%rax, %rcx
	call	_ZNSt7__cxx1112basic_stringIcSt11char_traitsIcESaIcEED1Ev
	movq	%rbx, %rax
	movq	%rax, %rcx
.LEHB207:
	call	_Unwind_Resume
.L615:
	movq	%rax, %rbx
	leaq	-16(%rbp), %rax
	movq	%rax, %rcx
	call	_ZNSt7__cxx1112basic_stringIcSt11char_traitsIcESaIcEED1Ev
	jmp	.L597
.L614:
	movq	%rax, %rbx
.L597:
	leaq	16(%rbp), %rax
	movq	%rax, %rcx
	call	_ZNSt7__cxx1112basic_stringIcSt11char_traitsIcESaIcEED1Ev
	jmp	.L598
.L613:
	movq	%rax, %rbx
.L598:
	leaq	48(%rbp), %rax
	movq	%rax, %rcx
	call	_ZNSt7__cxx1112basic_stringIcSt11char_traitsIcESaIcEED1Ev
	jmp	.L599
.L612:
	movq	%rax, %rbx
.L599:
	leaq	80(%rbp), %rax
	movq	%rax, %rcx
	call	_ZNSt7__cxx1112basic_stringIcSt11char_traitsIcESaIcEED1Ev
	jmp	.L600
.L611:
	movq	%rax, %rbx
.L600:
	leaq	112(%rbp), %rax
	movq	%rax, %rcx
	call	_ZNSt7__cxx1112basic_stringIcSt11char_traitsIcESaIcEED1Ev
	jmp	.L601
.L610:
	movq	%rax, %rbx
.L601:
	leaq	144(%rbp), %rax
	movq	%rax, %rcx
	call	_ZNSt7__cxx1112basic_stringIcSt11char_traitsIcESaIcEED1Ev
	jmp	.L602
.L609:
	movq	%rax, %rbx
.L602:
	leaq	176(%rbp), %rax
	movq	%rax, %rcx
	call	_ZNSt7__cxx1112basic_stringIcSt11char_traitsIcESaIcEED1Ev
	jmp	.L603
.L619:
	movq	%rax, %rbx
	leaq	208(%rbp), %rax
	movq	%rax, %rcx
	call	_ZNSt7__cxx1112basic_stringIcSt11char_traitsIcESaIcEED1Ev
	jmp	.L605
.L618:
	movq	%rax, %rbx
.L605:
	leaq	240(%rbp), %rax
	movq	%rax, %rcx
	call	_ZNSt7__cxx1112basic_stringIcSt11char_traitsIcESaIcEED1Ev
	jmp	.L606
.L617:
	movq	%rax, %rbx
.L606:
	leaq	272(%rbp), %rax
	movq	%rax, %rcx
	call	_ZNSt7__cxx1112basic_stringIcSt11char_traitsIcESaIcEED1Ev
	jmp	.L607
.L620:
	movq	%rax, %rbx
.L607:
	movq	352(%rbp), %rax
	movq	%rax, %rcx
	call	_ZNSt7__cxx1112basic_stringIcSt11char_traitsIcESaIcEED1Ev
	jmp	.L603
.L616:
	movq	%rax, %rbx
.L603:
	leaq	-80(%rbp), %rax
	movq	%rax, %rcx
	call	_ZNSt7__cxx1112basic_stringIcSt11char_traitsIcESaIcEED1Ev
	movq	%rbx, %rax
	movq	%rax, %rcx
	call	_Unwind_Resume
.LEHE207:
.L621:
	movq	352(%rbp), %rax
	addq	$456, %rsp
	popq	%rbx
	popq	%rbp
	ret
	.seh_handler	__gxx_personality_seh0, @unwind, @except
	.seh_handlerdata
.LLSDA4013:
	.byte	0xff
	.byte	0xff
	.byte	0x1
	.uleb128 .LLSDACSE4013-.LLSDACSB4013
.LLSDACSB4013:
	.uleb128 .LEHB193-.LFB4013
	.uleb128 .LEHE193-.LEHB193
	.uleb128 .L608-.LFB4013
	.uleb128 0
	.uleb128 .LEHB194-.LFB4013
	.uleb128 .LEHE194-.LEHB194
	.uleb128 .L616-.LFB4013
	.uleb128 0
	.uleb128 .LEHB195-.LFB4013
	.uleb128 .LEHE195-.LEHB195
	.uleb128 .L609-.LFB4013
	.uleb128 0
	.uleb128 .LEHB196-.LFB4013
	.uleb128 .LEHE196-.LEHB196
	.uleb128 .L610-.LFB4013
	.uleb128 0
	.uleb128 .LEHB197-.LFB4013
	.uleb128 .LEHE197-.LEHB197
	.uleb128 .L611-.LFB4013
	.uleb128 0
	.uleb128 .LEHB198-.LFB4013
	.uleb128 .LEHE198-.LEHB198
	.uleb128 .L612-.LFB4013
	.uleb128 0
	.uleb128 .LEHB199-.LFB4013
	.uleb128 .LEHE199-.LEHB199
	.uleb128 .L613-.LFB4013
	.uleb128 0
	.uleb128 .LEHB200-.LFB4013
	.uleb128 .LEHE200-.LEHB200
	.uleb128 .L614-.LFB4013
	.uleb128 0
	.uleb128 .LEHB201-.LFB4013
	.uleb128 .LEHE201-.LEHB201
	.uleb128 .L615-.LFB4013
	.uleb128 0
	.uleb128 .LEHB202-.LFB4013
	.uleb128 .LEHE202-.LEHB202
	.uleb128 .L620-.LFB4013
	.uleb128 0
	.uleb128 .LEHB203-.LFB4013
	.uleb128 .LEHE203-.LEHB203
	.uleb128 .L617-.LFB4013
	.uleb128 0
	.uleb128 .LEHB204-.LFB4013
	.uleb128 .LEHE204-.LEHB204
	.uleb128 .L618-.LFB4013
	.uleb128 0
	.uleb128 .LEHB205-.LFB4013
	.uleb128 .LEHE205-.LEHB205
	.uleb128 .L619-.LFB4013
	.uleb128 0
	.uleb128 .LEHB206-.LFB4013
	.uleb128 .LEHE206-.LEHB206
	.uleb128 .L620-.LFB4013
	.uleb128 0
	.uleb128 .LEHB207-.LFB4013
	.uleb128 .LEHE207-.LEHB207
	.uleb128 0
	.uleb128 0
.LLSDACSE4013:
	.section	.text$_ZN10RepeatNode5toCppB5cxx11Ev,"x"
	.linkonce discard
	.seh_endproc
	.globl	_ZZN11OnPressNodeC4ENSt7__cxx1112basic_stringIcSt11char_traitsIcESaIcEEESt6vectorISt10unique_ptrI7ASTNodeSt14default_deleteIS8_EESaISB_EEE7counter
	.section	.data$_ZZN11OnPressNodeC4ENSt7__cxx1112basic_stringIcSt11char_traitsIcESaIcEEESt6vectorISt10unique_ptrI7ASTNodeSt14default_deleteIS8_EESaISB_EEE7counter,"w"
	.linkonce same_size
	.align 4
_ZZN11OnPressNodeC4ENSt7__cxx1112basic_stringIcSt11char_traitsIcESaIcEEESt6vectorISt10unique_ptrI7ASTNodeSt14default_deleteIS8_EESaISB_EEE7counter:
	.space 4
	.section	.text$_ZN11OnPressNodeC1ENSt7__cxx1112basic_stringIcSt11char_traitsIcESaIcEEESt6vectorISt10unique_ptrI7ASTNodeSt14default_deleteIS8_EESaISB_EE,"x"
	.linkonce discard
	.align 2
	.globl	_ZN11OnPressNodeC1ENSt7__cxx1112basic_stringIcSt11char_traitsIcESaIcEEESt6vectorISt10unique_ptrI7ASTNodeSt14default_deleteIS8_EESaISB_EE
	.def	_ZN11OnPressNodeC1ENSt7__cxx1112basic_stringIcSt11char_traitsIcESaIcEEESt6vectorISt10unique_ptrI7ASTNodeSt14default_deleteIS8_EESaISB_EE;	.scl	2;	.type	32;	.endef
	.seh_proc	_ZN11OnPressNodeC1ENSt7__cxx1112basic_stringIcSt11char_traitsIcESaIcEEESt6vectorISt10unique_ptrI7ASTNodeSt14default_deleteIS8_EESaISB_EE
_ZN11OnPressNodeC1ENSt7__cxx1112basic_stringIcSt11char_traitsIcESaIcEEESt6vectorISt10unique_ptrI7ASTNodeSt14default_deleteIS8_EESaISB_EE:
.LFB4016:
	pushq	%rbp
	.seh_pushreg	%rbp
	pushq	%rbx
	.seh_pushreg	%rbx
	subq	$56, %rsp
	.seh_stackalloc	56
	leaq	48(%rsp), %rbp
	.seh_setframe	%rbp, 48
	.seh_endprologue
	movq	%rcx, 32(%rbp)
	movq	%rdx, 40(%rbp)
	movq	%r8, 48(%rbp)
	movq	32(%rbp), %rax
	movq	%rax, %rcx
	call	_ZN7ASTNodeC2Ev
	leaq	16+_ZTV11OnPressNode(%rip), %rdx
	movq	32(%rbp), %rax
	movq	%rdx, (%rax)
	movq	32(%rbp), %rax
	leaq	8(%rax), %rcx
	movq	40(%rbp), %rax
	movq	%rax, %rdx
.LEHB208:
	call	_ZNSt7__cxx1112basic_stringIcSt11char_traitsIcESaIcEEC1ERKS4_
.LEHE208:
	movq	32(%rbp), %rax
	leaq	40(%rax), %rbx
	movq	48(%rbp), %rax
	movq	%rax, %rcx
	call	_ZSt4moveIRSt6vectorISt10unique_ptrI7ASTNodeSt14default_deleteIS2_EESaIS5_EEEONSt16remove_referenceIT_E4typeEOSA_
	movq	%rax, %rdx
	movq	%rbx, %rcx
	call	_ZNSt6vectorISt10unique_ptrI7ASTNodeSt14default_deleteIS1_EESaIS4_EEC1EOS6_
	movl	_ZZN11OnPressNodeC4ENSt7__cxx1112basic_stringIcSt11char_traitsIcESaIcEEESt6vectorISt10unique_ptrI7ASTNodeSt14default_deleteIS8_EESaISB_EEE7counter(%rip), %eax
	leal	1(%rax), %edx
	movl	%edx, _ZZN11OnPressNodeC4ENSt7__cxx1112basic_stringIcSt11char_traitsIcESaIcEEESt6vectorISt10unique_ptrI7ASTNodeSt14default_deleteIS8_EESaISB_EEE7counter(%rip)
	movq	32(%rbp), %rdx
	movl	%eax, 64(%rdx)
	leaq	-16(%rbp), %rax
	movq	40(%rbp), %rdx
	movq	%rdx, %r8
	leaq	_Z9inputPinsB5cxx11(%rip), %rdx
	movq	%rax, %rcx
.LEHB209:
	call	_ZNSt3setINSt7__cxx1112basic_stringIcSt11char_traitsIcESaIcEEESt4lessIS5_ESaIS5_EE6insertERKS5_
.LEHE209:
	jmp	.L627
.L626:
	movq	%rax, %rbx
	movq	32(%rbp), %rax
	addq	$40, %rax
	movq	%rax, %rcx
	call	_ZNSt6vectorISt10unique_ptrI7ASTNodeSt14default_deleteIS1_EESaIS4_EED1Ev
	movq	32(%rbp), %rax
	addq	$8, %rax
	movq	%rax, %rcx
	call	_ZNSt7__cxx1112basic_stringIcSt11char_traitsIcESaIcEED1Ev
	jmp	.L624
.L625:
	movq	%rax, %rbx
.L624:
	movq	32(%rbp), %rax
	movq	%rax, %rcx
	call	_ZN7ASTNodeD2Ev
	movq	%rbx, %rax
	movq	%rax, %rcx
.LEHB210:
	call	_Unwind_Resume
	nop
.LEHE210:
.L627:
	addq	$56, %rsp
	popq	%rbx
	popq	%rbp
	ret
	.seh_handler	__gxx_personality_seh0, @unwind, @except
	.seh_handlerdata
.LLSDA4016:
	.byte	0xff
	.byte	0xff
	.byte	0x1
	.uleb128 .LLSDACSE4016-.LLSDACSB4016
.LLSDACSB4016:
	.uleb128 .LEHB208-.LFB4016
	.uleb128 .LEHE208-.LEHB208
	.uleb128 .L625-.LFB4016
	.uleb128 0
	.uleb128 .LEHB209-.LFB4016
	.uleb128 .LEHE209-.LEHB209
	.uleb128 .L626-.LFB4016
	.uleb128 0
	.uleb128 .LEHB210-.LFB4016
	.uleb128 .LEHE210-.LEHB210
	.uleb128 0
	.uleb128 0
.LLSDACSE4016:
	.section	.text$_ZN11OnPressNodeC1ENSt7__cxx1112basic_stringIcSt11char_traitsIcESaIcEEESt6vectorISt10unique_ptrI7ASTNodeSt14default_deleteIS8_EESaISB_EE,"x"
	.linkonce discard
	.seh_endproc
	.section .rdata,"dr"
.LC91:
	.ascii "_btn_timer_\0"
.LC92:
	.ascii "_btn_last_\0"
.LC93:
	.ascii "_btn_curr_\0"
.LC94:
	.ascii "    static bool \0"
.LC95:
	.ascii " = HIGH;\12\0"
.LC96:
	.ascii "    bool \0"
.LC97:
	.ascii " = digitalRead(\0"
.LC98:
	.ascii ");\12\0"
.LC99:
	.ascii "    if (\0"
.LC100:
	.ascii " == LOW && \0"
.LC101:
	.ascii " == HIGH && (millis() - \0"
.LC102:
	.ascii " > 200)) {\12\0"
.LC103:
	.ascii "    }\12\0"
	.section	.text$_ZN11OnPressNode5toCppB5cxx11Ev,"x"
	.linkonce discard
	.align 2
	.globl	_ZN11OnPressNode5toCppB5cxx11Ev
	.def	_ZN11OnPressNode5toCppB5cxx11Ev;	.scl	2;	.type	32;	.endef
	.seh_proc	_ZN11OnPressNode5toCppB5cxx11Ev
_ZN11OnPressNode5toCppB5cxx11Ev:
.LFB4017:
	pushq	%rbp
	.seh_pushreg	%rbp
	pushq	%rbx
	.seh_pushreg	%rbx
	subq	$968, %rsp
	.seh_stackalloc	968
	leaq	128(%rsp), %rbp
	.seh_setframe	%rbp, 128
	.seh_endprologue
	movq	%rcx, 864(%rbp)
	movq	%rdx, 872(%rbp)
	movq	872(%rbp), %rax
	movl	64(%rax), %edx
	leaq	16(%rbp), %rax
	movq	%rax, %rcx
	call	_ZNSt7__cxx119to_stringEi
	leaq	-16(%rbp), %rax
	leaq	16(%rbp), %rdx
	movq	%rdx, %r8
	leaq	.LC91(%rip), %rdx
	movq	%rax, %rcx
.LEHB211:
	call	_ZStplIcSt11char_traitsIcESaIcEENSt7__cxx1112basic_stringIT_T0_T1_EEPKS5_OS8_
.LEHE211:
	leaq	16(%rbp), %rax
	movq	%rax, %rcx
	call	_ZNSt7__cxx1112basic_stringIcSt11char_traitsIcESaIcEED1Ev
	movq	872(%rbp), %rax
	movl	64(%rax), %edx
	leaq	48(%rbp), %rax
	movq	%rax, %rcx
	call	_ZNSt7__cxx119to_stringEi
	leaq	-48(%rbp), %rax
	leaq	48(%rbp), %rdx
	movq	%rdx, %r8
	leaq	.LC92(%rip), %rdx
	movq	%rax, %rcx
.LEHB212:
	call	_ZStplIcSt11char_traitsIcESaIcEENSt7__cxx1112basic_stringIT_T0_T1_EEPKS5_OS8_
.LEHE212:
	leaq	48(%rbp), %rax
	movq	%rax, %rcx
	call	_ZNSt7__cxx1112basic_stringIcSt11char_traitsIcESaIcEED1Ev
	movq	872(%rbp), %rax
	movl	64(%rax), %edx
	leaq	80(%rbp), %rax
	movq	%rax, %rcx
	call	_ZNSt7__cxx119to_stringEi
	leaq	-80(%rbp), %rax
	leaq	80(%rbp), %rdx
	movq	%rdx, %r8
	leaq	.LC93(%rip), %rdx
	movq	%rax, %rcx
.LEHB213:
	call	_ZStplIcSt11char_traitsIcESaIcEENSt7__cxx1112basic_stringIT_T0_T1_EEPKS5_OS8_
.LEHE213:
	leaq	80(%rbp), %rax
	movq	%rax, %rcx
	call	_ZNSt7__cxx1112basic_stringIcSt11char_traitsIcESaIcEED1Ev
	leaq	112(%rbp), %rax
	leaq	-16(%rbp), %rdx
	movq	%rdx, %r8
	leaq	.LC79(%rip), %rdx
	movq	%rax, %rcx
.LEHB214:
	call	_ZStplIcSt11char_traitsIcESaIcEENSt7__cxx1112basic_stringIT_T0_T1_EEPKS5_RKS8_
.LEHE214:
	movq	864(%rbp), %rax
	leaq	112(%rbp), %rdx
	leaq	.LC80(%rip), %r8
	movq	%rax, %rcx
.LEHB215:
	call	_ZStplIcSt11char_traitsIcESaIcEENSt7__cxx1112basic_stringIT_T0_T1_EEOS8_PKS5_
.LEHE215:
	leaq	112(%rbp), %rax
	movq	%rax, %rcx
	call	_ZNSt7__cxx1112basic_stringIcSt11char_traitsIcESaIcEED1Ev
	leaq	176(%rbp), %rax
	leaq	-48(%rbp), %rdx
	movq	%rdx, %r8
	leaq	.LC94(%rip), %rdx
	movq	%rax, %rcx
.LEHB216:
	call	_ZStplIcSt11char_traitsIcESaIcEENSt7__cxx1112basic_stringIT_T0_T1_EEPKS5_RKS8_
.LEHE216:
	leaq	144(%rbp), %rax
	leaq	176(%rbp), %rdx
	leaq	.LC95(%rip), %r8
	movq	%rax, %rcx
.LEHB217:
	call	_ZStplIcSt11char_traitsIcESaIcEENSt7__cxx1112basic_stringIT_T0_T1_EEOS8_PKS5_
.LEHE217:
	leaq	144(%rbp), %rdx
	movq	864(%rbp), %rax
	movq	%rax, %rcx
.LEHB218:
	call	_ZNSt7__cxx1112basic_stringIcSt11char_traitsIcESaIcEEpLERKS4_
.LEHE218:
	leaq	144(%rbp), %rax
	movq	%rax, %rcx
	call	_ZNSt7__cxx1112basic_stringIcSt11char_traitsIcESaIcEED1Ev
	leaq	176(%rbp), %rax
	movq	%rax, %rcx
	call	_ZNSt7__cxx1112basic_stringIcSt11char_traitsIcESaIcEED1Ev
	movq	872(%rbp), %rax
	leaq	8(%rax), %rbx
	leaq	304(%rbp), %rax
	leaq	-80(%rbp), %rdx
	movq	%rdx, %r8
	leaq	.LC96(%rip), %rdx
	movq	%rax, %rcx
.LEHB219:
	call	_ZStplIcSt11char_traitsIcESaIcEENSt7__cxx1112basic_stringIT_T0_T1_EEPKS5_RKS8_
.LEHE219:
	leaq	272(%rbp), %rax
	leaq	304(%rbp), %rdx
	leaq	.LC97(%rip), %r8
	movq	%rax, %rcx
.LEHB220:
	call	_ZStplIcSt11char_traitsIcESaIcEENSt7__cxx1112basic_stringIT_T0_T1_EEOS8_PKS5_
.LEHE220:
	leaq	240(%rbp), %rax
	leaq	272(%rbp), %rdx
	movq	%rbx, %r8
	movq	%rax, %rcx
.LEHB221:
	call	_ZStplIcSt11char_traitsIcESaIcEENSt7__cxx1112basic_stringIT_T0_T1_EEOS8_RKS8_
.LEHE221:
	leaq	208(%rbp), %rax
	leaq	240(%rbp), %rdx
	leaq	.LC98(%rip), %r8
	movq	%rax, %rcx
.LEHB222:
	call	_ZStplIcSt11char_traitsIcESaIcEENSt7__cxx1112basic_stringIT_T0_T1_EEOS8_PKS5_
.LEHE222:
	leaq	208(%rbp), %rdx
	movq	864(%rbp), %rax
	movq	%rax, %rcx
.LEHB223:
	call	_ZNSt7__cxx1112basic_stringIcSt11char_traitsIcESaIcEEpLERKS4_
.LEHE223:
	leaq	208(%rbp), %rax
	movq	%rax, %rcx
	call	_ZNSt7__cxx1112basic_stringIcSt11char_traitsIcESaIcEED1Ev
	leaq	240(%rbp), %rax
	movq	%rax, %rcx
	call	_ZNSt7__cxx1112basic_stringIcSt11char_traitsIcESaIcEED1Ev
	leaq	272(%rbp), %rax
	movq	%rax, %rcx
	call	_ZNSt7__cxx1112basic_stringIcSt11char_traitsIcESaIcEED1Ev
	leaq	304(%rbp), %rax
	movq	%rax, %rcx
	call	_ZNSt7__cxx1112basic_stringIcSt11char_traitsIcESaIcEED1Ev
	leaq	496(%rbp), %rax
	leaq	-80(%rbp), %rdx
	movq	%rdx, %r8
	leaq	.LC99(%rip), %rdx
	movq	%rax, %rcx
.LEHB224:
	call	_ZStplIcSt11char_traitsIcESaIcEENSt7__cxx1112basic_stringIT_T0_T1_EEPKS5_RKS8_
.LEHE224:
	leaq	464(%rbp), %rax
	leaq	496(%rbp), %rdx
	leaq	.LC100(%rip), %r8
	movq	%rax, %rcx
.LEHB225:
	call	_ZStplIcSt11char_traitsIcESaIcEENSt7__cxx1112basic_stringIT_T0_T1_EEOS8_PKS5_
.LEHE225:
	leaq	432(%rbp), %rax
	leaq	-48(%rbp), %rcx
	leaq	464(%rbp), %rdx
	movq	%rcx, %r8
	movq	%rax, %rcx
.LEHB226:
	call	_ZStplIcSt11char_traitsIcESaIcEENSt7__cxx1112basic_stringIT_T0_T1_EEOS8_RKS8_
.LEHE226:
	leaq	400(%rbp), %rax
	leaq	432(%rbp), %rdx
	leaq	.LC101(%rip), %r8
	movq	%rax, %rcx
.LEHB227:
	call	_ZStplIcSt11char_traitsIcESaIcEENSt7__cxx1112basic_stringIT_T0_T1_EEOS8_PKS5_
.LEHE227:
	leaq	368(%rbp), %rax
	leaq	-16(%rbp), %rcx
	leaq	400(%rbp), %rdx
	movq	%rcx, %r8
	movq	%rax, %rcx
.LEHB228:
	call	_ZStplIcSt11char_traitsIcESaIcEENSt7__cxx1112basic_stringIT_T0_T1_EEOS8_RKS8_
.LEHE228:
	leaq	336(%rbp), %rax
	leaq	368(%rbp), %rdx
	leaq	.LC102(%rip), %r8
	movq	%rax, %rcx
.LEHB229:
	call	_ZStplIcSt11char_traitsIcESaIcEENSt7__cxx1112basic_stringIT_T0_T1_EEOS8_PKS5_
.LEHE229:
	leaq	336(%rbp), %rdx
	movq	864(%rbp), %rax
	movq	%rax, %rcx
.LEHB230:
	call	_ZNSt7__cxx1112basic_stringIcSt11char_traitsIcESaIcEEpLERKS4_
.LEHE230:
	leaq	336(%rbp), %rax
	movq	%rax, %rcx
	call	_ZNSt7__cxx1112basic_stringIcSt11char_traitsIcESaIcEED1Ev
	leaq	368(%rbp), %rax
	movq	%rax, %rcx
	call	_ZNSt7__cxx1112basic_stringIcSt11char_traitsIcESaIcEED1Ev
	leaq	400(%rbp), %rax
	movq	%rax, %rcx
	call	_ZNSt7__cxx1112basic_stringIcSt11char_traitsIcESaIcEED1Ev
	leaq	432(%rbp), %rax
	movq	%rax, %rcx
	call	_ZNSt7__cxx1112basic_stringIcSt11char_traitsIcESaIcEED1Ev
	leaq	464(%rbp), %rax
	movq	%rax, %rcx
	call	_ZNSt7__cxx1112basic_stringIcSt11char_traitsIcESaIcEED1Ev
	leaq	496(%rbp), %rax
	movq	%rax, %rcx
	call	_ZNSt7__cxx1112basic_stringIcSt11char_traitsIcESaIcEED1Ev
	leaq	560(%rbp), %rax
	leaq	-16(%rbp), %rdx
	movq	%rdx, %r8
	leaq	.LC71(%rip), %rdx
	movq	%rax, %rcx
.LEHB231:
	call	_ZStplIcSt11char_traitsIcESaIcEENSt7__cxx1112basic_stringIT_T0_T1_EEPKS5_RKS8_
.LEHE231:
	leaq	528(%rbp), %rax
	leaq	560(%rbp), %rdx
	leaq	.LC83(%rip), %r8
	movq	%rax, %rcx
.LEHB232:
	call	_ZStplIcSt11char_traitsIcESaIcEENSt7__cxx1112basic_stringIT_T0_T1_EEOS8_PKS5_
.LEHE232:
	leaq	528(%rbp), %rdx
	movq	864(%rbp), %rax
	movq	%rax, %rcx
.LEHB233:
	call	_ZNSt7__cxx1112basic_stringIcSt11char_traitsIcESaIcEEpLERKS4_
.LEHE233:
	leaq	528(%rbp), %rax
	movq	%rax, %rcx
	call	_ZNSt7__cxx1112basic_stringIcSt11char_traitsIcESaIcEED1Ev
	leaq	560(%rbp), %rax
	movq	%rax, %rcx
	call	_ZNSt7__cxx1112basic_stringIcSt11char_traitsIcESaIcEED1Ev
	movq	872(%rbp), %rax
	addq	$40, %rax
	movq	%rax, 824(%rbp)
	movq	824(%rbp), %rax
	movq	%rax, %rcx
	call	_ZNSt6vectorISt10unique_ptrI7ASTNodeSt14default_deleteIS1_EESaIS4_EE5beginEv
	movq	%rax, -88(%rbp)
	movq	824(%rbp), %rax
	movq	%rax, %rcx
	call	_ZNSt6vectorISt10unique_ptrI7ASTNodeSt14default_deleteIS1_EESaIS4_EE3endEv
	movq	%rax, -96(%rbp)
	jmp	.L629
.L630:
	leaq	-88(%rbp), %rax
	movq	%rax, %rcx
	call	_ZNK9__gnu_cxx17__normal_iteratorIPSt10unique_ptrI7ASTNodeSt14default_deleteIS2_EESt6vectorIS5_SaIS5_EEEdeEv
	movq	%rax, 816(%rbp)
	movq	816(%rbp), %rax
	movq	%rax, %rcx
	call	_ZNKSt10unique_ptrI7ASTNodeSt14default_deleteIS0_EEptEv
	movq	(%rax), %rdx
	addq	$16, %rdx
	movq	(%rdx), %r8
	leaq	656(%rbp), %rcx
	movq	%rax, %rdx
.LEHB234:
	call	*%r8
.LEHE234:
	leaq	624(%rbp), %rax
	leaq	656(%rbp), %rdx
	movq	%rdx, %r8
	leaq	.LC71(%rip), %rdx
	movq	%rax, %rcx
.LEHB235:
	call	_ZStplIcSt11char_traitsIcESaIcEENSt7__cxx1112basic_stringIT_T0_T1_EEPKS5_OS8_
.LEHE235:
	leaq	592(%rbp), %rax
	leaq	624(%rbp), %rdx
	leaq	.LC34(%rip), %r8
	movq	%rax, %rcx
.LEHB236:
	call	_ZStplIcSt11char_traitsIcESaIcEENSt7__cxx1112basic_stringIT_T0_T1_EEOS8_PKS5_
.LEHE236:
	leaq	592(%rbp), %rdx
	movq	864(%rbp), %rax
	movq	%rax, %rcx
.LEHB237:
	call	_ZNSt7__cxx1112basic_stringIcSt11char_traitsIcESaIcEEpLERKS4_
.LEHE237:
	leaq	592(%rbp), %rax
	movq	%rax, %rcx
	call	_ZNSt7__cxx1112basic_stringIcSt11char_traitsIcESaIcEED1Ev
	leaq	624(%rbp), %rax
	movq	%rax, %rcx
	call	_ZNSt7__cxx1112basic_stringIcSt11char_traitsIcESaIcEED1Ev
	leaq	656(%rbp), %rax
	movq	%rax, %rcx
	call	_ZNSt7__cxx1112basic_stringIcSt11char_traitsIcESaIcEED1Ev
	leaq	-88(%rbp), %rax
	movq	%rax, %rcx
	call	_ZN9__gnu_cxx17__normal_iteratorIPSt10unique_ptrI7ASTNodeSt14default_deleteIS2_EESt6vectorIS5_SaIS5_EEEppEv
.L629:
	leaq	-96(%rbp), %rdx
	leaq	-88(%rbp), %rax
	movq	%rax, %rcx
	call	_ZN9__gnu_cxxneIPSt10unique_ptrI7ASTNodeSt14default_deleteIS2_EESt6vectorIS5_SaIS5_EEEEbRKNS_17__normal_iteratorIT_T0_EESF_
	testb	%al, %al
	jne	.L630
	movq	864(%rbp), %rax
	leaq	.LC103(%rip), %rdx
	movq	%rax, %rcx
.LEHB238:
	call	_ZNSt7__cxx1112basic_stringIcSt11char_traitsIcESaIcEEpLEPKc
	leaq	784(%rbp), %rax
	leaq	-48(%rbp), %rdx
	movq	%rdx, %r8
	leaq	.LC35(%rip), %rdx
	movq	%rax, %rcx
	call	_ZStplIcSt11char_traitsIcESaIcEENSt7__cxx1112basic_stringIT_T0_T1_EEPKS5_RKS8_
.LEHE238:
	leaq	752(%rbp), %rax
	leaq	784(%rbp), %rdx
	leaq	.LC23(%rip), %r8
	movq	%rax, %rcx
.LEHB239:
	call	_ZStplIcSt11char_traitsIcESaIcEENSt7__cxx1112basic_stringIT_T0_T1_EEOS8_PKS5_
.LEHE239:
	leaq	720(%rbp), %rax
	leaq	-80(%rbp), %rcx
	leaq	752(%rbp), %rdx
	movq	%rcx, %r8
	movq	%rax, %rcx
.LEHB240:
	call	_ZStplIcSt11char_traitsIcESaIcEENSt7__cxx1112basic_stringIT_T0_T1_EEOS8_RKS8_
.LEHE240:
	leaq	688(%rbp), %rax
	leaq	720(%rbp), %rdx
	leaq	.LC24(%rip), %r8
	movq	%rax, %rcx
.LEHB241:
	call	_ZStplIcSt11char_traitsIcESaIcEENSt7__cxx1112basic_stringIT_T0_T1_EEOS8_PKS5_
.LEHE241:
	leaq	688(%rbp), %rdx
	movq	864(%rbp), %rax
	movq	%rax, %rcx
.LEHB242:
	call	_ZNSt7__cxx1112basic_stringIcSt11char_traitsIcESaIcEEpLERKS4_
.LEHE242:
	leaq	688(%rbp), %rax
	movq	%rax, %rcx
	call	_ZNSt7__cxx1112basic_stringIcSt11char_traitsIcESaIcEED1Ev
	leaq	720(%rbp), %rax
	movq	%rax, %rcx
	call	_ZNSt7__cxx1112basic_stringIcSt11char_traitsIcESaIcEED1Ev
	leaq	752(%rbp), %rax
	movq	%rax, %rcx
	call	_ZNSt7__cxx1112basic_stringIcSt11char_traitsIcESaIcEED1Ev
	leaq	784(%rbp), %rax
	movq	%rax, %rcx
	call	_ZNSt7__cxx1112basic_stringIcSt11char_traitsIcESaIcEED1Ev
	leaq	-80(%rbp), %rax
	movq	%rax, %rcx
	call	_ZNSt7__cxx1112basic_stringIcSt11char_traitsIcESaIcEED1Ev
	leaq	-48(%rbp), %rax
	movq	%rax, %rcx
	call	_ZNSt7__cxx1112basic_stringIcSt11char_traitsIcESaIcEED1Ev
	leaq	-16(%rbp), %rax
	movq	%rax, %rcx
	call	_ZNSt7__cxx1112basic_stringIcSt11char_traitsIcESaIcEED1Ev
	jmp	.L688
.L661:
	movq	%rax, %rbx
	leaq	16(%rbp), %rax
	movq	%rax, %rcx
	call	_ZNSt7__cxx1112basic_stringIcSt11char_traitsIcESaIcEED1Ev
	movq	%rbx, %rax
	movq	%rax, %rcx
.LEHB243:
	call	_Unwind_Resume
.L662:
	movq	%rax, %rbx
	leaq	48(%rbp), %rax
	movq	%rax, %rcx
	call	_ZNSt7__cxx1112basic_stringIcSt11char_traitsIcESaIcEED1Ev
	jmp	.L634
.L663:
	movq	%rax, %rbx
	leaq	80(%rbp), %rax
	movq	%rax, %rcx
	call	_ZNSt7__cxx1112basic_stringIcSt11char_traitsIcESaIcEED1Ev
	jmp	.L636
.L664:
	movq	%rax, %rbx
	leaq	112(%rbp), %rax
	movq	%rax, %rcx
	call	_ZNSt7__cxx1112basic_stringIcSt11char_traitsIcESaIcEED1Ev
	jmp	.L638
.L667:
	movq	%rax, %rbx
	leaq	144(%rbp), %rax
	movq	%rax, %rcx
	call	_ZNSt7__cxx1112basic_stringIcSt11char_traitsIcESaIcEED1Ev
	jmp	.L640
.L666:
	movq	%rax, %rbx
.L640:
	leaq	176(%rbp), %rax
	movq	%rax, %rcx
	call	_ZNSt7__cxx1112basic_stringIcSt11char_traitsIcESaIcEED1Ev
	jmp	.L641
.L672:
	movq	%rax, %rbx
	leaq	208(%rbp), %rax
	movq	%rax, %rcx
	call	_ZNSt7__cxx1112basic_stringIcSt11char_traitsIcESaIcEED1Ev
	jmp	.L643
.L671:
	movq	%rax, %rbx
.L643:
	leaq	240(%rbp), %rax
	movq	%rax, %rcx
	call	_ZNSt7__cxx1112basic_stringIcSt11char_traitsIcESaIcEED1Ev
	jmp	.L644
.L670:
	movq	%rax, %rbx
.L644:
	leaq	272(%rbp), %rax
	movq	%rax, %rcx
	call	_ZNSt7__cxx1112basic_stringIcSt11char_traitsIcESaIcEED1Ev
	jmp	.L645
.L669:
	movq	%rax, %rbx
.L645:
	leaq	304(%rbp), %rax
	movq	%rax, %rcx
	call	_ZNSt7__cxx1112basic_stringIcSt11char_traitsIcESaIcEED1Ev
	jmp	.L641
.L678:
	movq	%rax, %rbx
	leaq	336(%rbp), %rax
	movq	%rax, %rcx
	call	_ZNSt7__cxx1112basic_stringIcSt11char_traitsIcESaIcEED1Ev
	jmp	.L647
.L677:
	movq	%rax, %rbx
.L647:
	leaq	368(%rbp), %rax
	movq	%rax, %rcx
	call	_ZNSt7__cxx1112basic_stringIcSt11char_traitsIcESaIcEED1Ev
	jmp	.L648
.L676:
	movq	%rax, %rbx
.L648:
	leaq	400(%rbp), %rax
	movq	%rax, %rcx
	call	_ZNSt7__cxx1112basic_stringIcSt11char_traitsIcESaIcEED1Ev
	jmp	.L649
.L675:
	movq	%rax, %rbx
.L649:
	leaq	432(%rbp), %rax
	movq	%rax, %rcx
	call	_ZNSt7__cxx1112basic_stringIcSt11char_traitsIcESaIcEED1Ev
	jmp	.L650
.L674:
	movq	%rax, %rbx
.L650:
	leaq	464(%rbp), %rax
	movq	%rax, %rcx
	call	_ZNSt7__cxx1112basic_stringIcSt11char_traitsIcESaIcEED1Ev
	jmp	.L651
.L673:
	movq	%rax, %rbx
.L651:
	leaq	496(%rbp), %rax
	movq	%rax, %rcx
	call	_ZNSt7__cxx1112basic_stringIcSt11char_traitsIcESaIcEED1Ev
	jmp	.L641
.L680:
	movq	%rax, %rbx
	leaq	528(%rbp), %rax
	movq	%rax, %rcx
	call	_ZNSt7__cxx1112basic_stringIcSt11char_traitsIcESaIcEED1Ev
	jmp	.L653
.L679:
	movq	%rax, %rbx
.L653:
	leaq	560(%rbp), %rax
	movq	%rax, %rcx
	call	_ZNSt7__cxx1112basic_stringIcSt11char_traitsIcESaIcEED1Ev
	jmp	.L641
.L683:
	movq	%rax, %rbx
	leaq	592(%rbp), %rax
	movq	%rax, %rcx
	call	_ZNSt7__cxx1112basic_stringIcSt11char_traitsIcESaIcEED1Ev
	jmp	.L655
.L682:
	movq	%rax, %rbx
.L655:
	leaq	624(%rbp), %rax
	movq	%rax, %rcx
	call	_ZNSt7__cxx1112basic_stringIcSt11char_traitsIcESaIcEED1Ev
	jmp	.L656
.L681:
	movq	%rax, %rbx
.L656:
	leaq	656(%rbp), %rax
	movq	%rax, %rcx
	call	_ZNSt7__cxx1112basic_stringIcSt11char_traitsIcESaIcEED1Ev
	jmp	.L641
.L687:
	movq	%rax, %rbx
	leaq	688(%rbp), %rax
	movq	%rax, %rcx
	call	_ZNSt7__cxx1112basic_stringIcSt11char_traitsIcESaIcEED1Ev
	jmp	.L658
.L686:
	movq	%rax, %rbx
.L658:
	leaq	720(%rbp), %rax
	movq	%rax, %rcx
	call	_ZNSt7__cxx1112basic_stringIcSt11char_traitsIcESaIcEED1Ev
	jmp	.L659
.L685:
	movq	%rax, %rbx
.L659:
	leaq	752(%rbp), %rax
	movq	%rax, %rcx
	call	_ZNSt7__cxx1112basic_stringIcSt11char_traitsIcESaIcEED1Ev
	jmp	.L660
.L684:
	movq	%rax, %rbx
.L660:
	leaq	784(%rbp), %rax
	movq	%rax, %rcx
	call	_ZNSt7__cxx1112basic_stringIcSt11char_traitsIcESaIcEED1Ev
	jmp	.L641
.L668:
	movq	%rax, %rbx
.L641:
	movq	864(%rbp), %rax
	movq	%rax, %rcx
	call	_ZNSt7__cxx1112basic_stringIcSt11char_traitsIcESaIcEED1Ev
	jmp	.L638
.L665:
	movq	%rax, %rbx
.L638:
	leaq	-80(%rbp), %rax
	movq	%rax, %rcx
	call	_ZNSt7__cxx1112basic_stringIcSt11char_traitsIcESaIcEED1Ev
.L636:
	leaq	-48(%rbp), %rax
	movq	%rax, %rcx
	call	_ZNSt7__cxx1112basic_stringIcSt11char_traitsIcESaIcEED1Ev
.L634:
	leaq	-16(%rbp), %rax
	movq	%rax, %rcx
	call	_ZNSt7__cxx1112basic_stringIcSt11char_traitsIcESaIcEED1Ev
	movq	%rbx, %rax
	movq	%rax, %rcx
	call	_Unwind_Resume
.LEHE243:
.L688:
	movq	864(%rbp), %rax
	addq	$968, %rsp
	popq	%rbx
	popq	%rbp
	ret
	.seh_handler	__gxx_personality_seh0, @unwind, @except
	.seh_handlerdata
.LLSDA4017:
	.byte	0xff
	.byte	0xff
	.byte	0x1
	.uleb128 .LLSDACSE4017-.LLSDACSB4017
.LLSDACSB4017:
	.uleb128 .LEHB211-.LFB4017
	.uleb128 .LEHE211-.LEHB211
	.uleb128 .L661-.LFB4017
	.uleb128 0
	.uleb128 .LEHB212-.LFB4017
	.uleb128 .LEHE212-.LEHB212
	.uleb128 .L662-.LFB4017
	.uleb128 0
	.uleb128 .LEHB213-.LFB4017
	.uleb128 .LEHE213-.LEHB213
	.uleb128 .L663-.LFB4017
	.uleb128 0
	.uleb128 .LEHB214-.LFB4017
	.uleb128 .LEHE214-.LEHB214
	.uleb128 .L665-.LFB4017
	.uleb128 0
	.uleb128 .LEHB215-.LFB4017
	.uleb128 .LEHE215-.LEHB215
	.uleb128 .L664-.LFB4017
	.uleb128 0
	.uleb128 .LEHB216-.LFB4017
	.uleb128 .LEHE216-.LEHB216
	.uleb128 .L668-.LFB4017
	.uleb128 0
	.uleb128 .LEHB217-.LFB4017
	.uleb128 .LEHE217-.LEHB217
	.uleb128 .L666-.LFB4017
	.uleb128 0
	.uleb128 .LEHB218-.LFB4017
	.uleb128 .LEHE218-.LEHB218
	.uleb128 .L667-.LFB4017
	.uleb128 0
	.uleb128 .LEHB219-.LFB4017
	.uleb128 .LEHE219-.LEHB219
	.uleb128 .L668-.LFB4017
	.uleb128 0
	.uleb128 .LEHB220-.LFB4017
	.uleb128 .LEHE220-.LEHB220
	.uleb128 .L669-.LFB4017
	.uleb128 0
	.uleb128 .LEHB221-.LFB4017
	.uleb128 .LEHE221-.LEHB221
	.uleb128 .L670-.LFB4017
	.uleb128 0
	.uleb128 .LEHB222-.LFB4017
	.uleb128 .LEHE222-.LEHB222
	.uleb128 .L671-.LFB4017
	.uleb128 0
	.uleb128 .LEHB223-.LFB4017
	.uleb128 .LEHE223-.LEHB223
	.uleb128 .L672-.LFB4017
	.uleb128 0
	.uleb128 .LEHB224-.LFB4017
	.uleb128 .LEHE224-.LEHB224
	.uleb128 .L668-.LFB4017
	.uleb128 0
	.uleb128 .LEHB225-.LFB4017
	.uleb128 .LEHE225-.LEHB225
	.uleb128 .L673-.LFB4017
	.uleb128 0
	.uleb128 .LEHB226-.LFB4017
	.uleb128 .LEHE226-.LEHB226
	.uleb128 .L674-.LFB4017
	.uleb128 0
	.uleb128 .LEHB227-.LFB4017
	.uleb128 .LEHE227-.LEHB227
	.uleb128 .L675-.LFB4017
	.uleb128 0
	.uleb128 .LEHB228-.LFB4017
	.uleb128 .LEHE228-.LEHB228
	.uleb128 .L676-.LFB4017
	.uleb128 0
	.uleb128 .LEHB229-.LFB4017
	.uleb128 .LEHE229-.LEHB229
	.uleb128 .L677-.LFB4017
	.uleb128 0
	.uleb128 .LEHB230-.LFB4017
	.uleb128 .LEHE230-.LEHB230
	.uleb128 .L678-.LFB4017
	.uleb128 0
	.uleb128 .LEHB231-.LFB4017
	.uleb128 .LEHE231-.LEHB231
	.uleb128 .L668-.LFB4017
	.uleb128 0
	.uleb128 .LEHB232-.LFB4017
	.uleb128 .LEHE232-.LEHB232
	.uleb128 .L679-.LFB4017
	.uleb128 0
	.uleb128 .LEHB233-.LFB4017
	.uleb128 .LEHE233-.LEHB233
	.uleb128 .L680-.LFB4017
	.uleb128 0
	.uleb128 .LEHB234-.LFB4017
	.uleb128 .LEHE234-.LEHB234
	.uleb128 .L668-.LFB4017
	.uleb128 0
	.uleb128 .LEHB235-.LFB4017
	.uleb128 .LEHE235-.LEHB235
	.uleb128 .L681-.LFB4017
	.uleb128 0
	.uleb128 .LEHB236-.LFB4017
	.uleb128 .LEHE236-.LEHB236
	.uleb128 .L682-.LFB4017
	.uleb128 0
	.uleb128 .LEHB237-.LFB4017
	.uleb128 .LEHE237-.LEHB237
	.uleb128 .L683-.LFB4017
	.uleb128 0
	.uleb128 .LEHB238-.LFB4017
	.uleb128 .LEHE238-.LEHB238
	.uleb128 .L668-.LFB4017
	.uleb128 0
	.uleb128 .LEHB239-.LFB4017
	.uleb128 .LEHE239-.LEHB239
	.uleb128 .L684-.LFB4017
	.uleb128 0
	.uleb128 .LEHB240-.LFB4017
	.uleb128 .LEHE240-.LEHB240
	.uleb128 .L685-.LFB4017
	.uleb128 0
	.uleb128 .LEHB241-.LFB4017
	.uleb128 .LEHE241-.LEHB241
	.uleb128 .L686-.LFB4017
	.uleb128 0
	.uleb128 .LEHB242-.LFB4017
	.uleb128 .LEHE242-.LEHB242
	.uleb128 .L687-.LFB4017
	.uleb128 0
	.uleb128 .LEHB243-.LFB4017
	.uleb128 .LEHE243-.LEHB243
	.uleb128 0
	.uleb128 0
.LLSDACSE4017:
	.section	.text$_ZN11OnPressNode5toCppB5cxx11Ev,"x"
	.linkonce discard
	.seh_endproc
	.section	.text$_ZN14MethodCallNodeC1ENSt7__cxx1112basic_stringIcSt11char_traitsIcESaIcEEESt10unique_ptrI7ASTNodeSt14default_deleteIS7_EE,"x"
	.linkonce discard
	.align 2
	.globl	_ZN14MethodCallNodeC1ENSt7__cxx1112basic_stringIcSt11char_traitsIcESaIcEEESt10unique_ptrI7ASTNodeSt14default_deleteIS7_EE
	.def	_ZN14MethodCallNodeC1ENSt7__cxx1112basic_stringIcSt11char_traitsIcESaIcEEESt10unique_ptrI7ASTNodeSt14default_deleteIS7_EE;	.scl	2;	.type	32;	.endef
	.seh_proc	_ZN14MethodCallNodeC1ENSt7__cxx1112basic_stringIcSt11char_traitsIcESaIcEEESt10unique_ptrI7ASTNodeSt14default_deleteIS7_EE
_ZN14MethodCallNodeC1ENSt7__cxx1112basic_stringIcSt11char_traitsIcESaIcEEESt10unique_ptrI7ASTNodeSt14default_deleteIS7_EE:
.LFB4020:
	pushq	%rbp
	.seh_pushreg	%rbp
	pushq	%rbx
	.seh_pushreg	%rbx
	subq	$40, %rsp
	.seh_stackalloc	40
	leaq	32(%rsp), %rbp
	.seh_setframe	%rbp, 32
	.seh_endprologue
	movq	%rcx, 32(%rbp)
	movq	%rdx, 40(%rbp)
	movq	%r8, 48(%rbp)
	movq	32(%rbp), %rax
	movq	%rax, %rcx
	call	_ZN7ASTNodeC2Ev
	leaq	16+_ZTV14MethodCallNode(%rip), %rdx
	movq	32(%rbp), %rax
	movq	%rdx, (%rax)
	movq	32(%rbp), %rax
	leaq	8(%rax), %rcx
	movq	40(%rbp), %rax
	movq	%rax, %rdx
.LEHB244:
	call	_ZNSt7__cxx1112basic_stringIcSt11char_traitsIcESaIcEEC1ERKS4_
.LEHE244:
	movq	32(%rbp), %rax
	leaq	40(%rax), %rbx
	movq	48(%rbp), %rax
	movq	%rax, %rcx
	call	_ZSt4moveIRSt10unique_ptrI7ASTNodeSt14default_deleteIS1_EEEONSt16remove_referenceIT_E4typeEOS7_
	movq	%rax, %rdx
	movq	%rbx, %rcx
	call	_ZNSt10unique_ptrI7ASTNodeSt14default_deleteIS0_EEC1EOS3_
	jmp	.L692
.L691:
	movq	%rax, %rbx
	movq	32(%rbp), %rax
	movq	%rax, %rcx
	call	_ZN7ASTNodeD2Ev
	movq	%rbx, %rax
	movq	%rax, %rcx
.LEHB245:
	call	_Unwind_Resume
	nop
.LEHE245:
.L692:
	addq	$40, %rsp
	popq	%rbx
	popq	%rbp
	ret
	.seh_handler	__gxx_personality_seh0, @unwind, @except
	.seh_handlerdata
.LLSDA4020:
	.byte	0xff
	.byte	0xff
	.byte	0x1
	.uleb128 .LLSDACSE4020-.LLSDACSB4020
.LLSDACSB4020:
	.uleb128 .LEHB244-.LFB4020
	.uleb128 .LEHE244-.LEHB244
	.uleb128 .L691-.LFB4020
	.uleb128 0
	.uleb128 .LEHB245-.LFB4020
	.uleb128 .LEHE245-.LEHB245
	.uleb128 0
	.uleb128 0
.LLSDACSE4020:
	.section	.text$_ZN14MethodCallNodeC1ENSt7__cxx1112basic_stringIcSt11char_traitsIcESaIcEEESt10unique_ptrI7ASTNodeSt14default_deleteIS7_EE,"x"
	.linkonce discard
	.seh_endproc
	.section .rdata,"dr"
.LC104:
	.ascii ".\0"
	.section	.text$_ZN14MethodCallNode5toCppB5cxx11Ev,"x"
	.linkonce discard
	.align 2
	.globl	_ZN14MethodCallNode5toCppB5cxx11Ev
	.def	_ZN14MethodCallNode5toCppB5cxx11Ev;	.scl	2;	.type	32;	.endef
	.seh_proc	_ZN14MethodCallNode5toCppB5cxx11Ev
_ZN14MethodCallNode5toCppB5cxx11Ev:
.LFB4021:
	pushq	%rbp
	.seh_pushreg	%rbp
	pushq	%rbx
	.seh_pushreg	%rbx
	subq	$104, %rsp
	.seh_stackalloc	104
	leaq	96(%rsp), %rbp
	.seh_setframe	%rbp, 96
	.seh_endprologue
	movq	%rcx, 32(%rbp)
	movq	%rdx, 40(%rbp)
	movq	40(%rbp), %rax
	addq	$40, %rax
	movq	%rax, %rcx
	call	_ZNKSt10unique_ptrI7ASTNodeSt14default_deleteIS0_EEptEv
	movq	(%rax), %rdx
	addq	$16, %rdx
	movq	(%rdx), %r8
	leaq	-64(%rbp), %rcx
	movq	%rax, %rdx
.LEHB246:
	call	*%r8
.LEHE246:
	movq	40(%rbp), %rax
	leaq	8(%rax), %rdx
	leaq	-32(%rbp), %rax
	leaq	.LC104(%rip), %r8
	movq	%rax, %rcx
.LEHB247:
	call	_ZStplIcSt11char_traitsIcESaIcEENSt7__cxx1112basic_stringIT_T0_T1_EERKS8_PKS5_
.LEHE247:
	movq	32(%rbp), %rax
	leaq	-64(%rbp), %rcx
	leaq	-32(%rbp), %rdx
	movq	%rcx, %r8
	movq	%rax, %rcx
.LEHB248:
	call	_ZStplIcSt11char_traitsIcESaIcEENSt7__cxx1112basic_stringIT_T0_T1_EEOS8_RKS8_
.LEHE248:
	nop
	leaq	-32(%rbp), %rax
	movq	%rax, %rcx
	call	_ZNSt7__cxx1112basic_stringIcSt11char_traitsIcESaIcEED1Ev
	leaq	-64(%rbp), %rax
	movq	%rax, %rcx
	call	_ZNSt7__cxx1112basic_stringIcSt11char_traitsIcESaIcEED1Ev
	jmp	.L699
.L698:
	movq	%rax, %rbx
	leaq	-32(%rbp), %rax
	movq	%rax, %rcx
	call	_ZNSt7__cxx1112basic_stringIcSt11char_traitsIcESaIcEED1Ev
	jmp	.L696
.L697:
	movq	%rax, %rbx
.L696:
	leaq	-64(%rbp), %rax
	movq	%rax, %rcx
	call	_ZNSt7__cxx1112basic_stringIcSt11char_traitsIcESaIcEED1Ev
	movq	%rbx, %rax
	movq	%rax, %rcx
.LEHB249:
	call	_Unwind_Resume
.LEHE249:
.L699:
	movq	32(%rbp), %rax
	addq	$104, %rsp
	popq	%rbx
	popq	%rbp
	ret
	.seh_handler	__gxx_personality_seh0, @unwind, @except
	.seh_handlerdata
.LLSDA4021:
	.byte	0xff
	.byte	0xff
	.byte	0x1
	.uleb128 .LLSDACSE4021-.LLSDACSB4021
.LLSDACSB4021:
	.uleb128 .LEHB246-.LFB4021
	.uleb128 .LEHE246-.LEHB246
	.uleb128 0
	.uleb128 0
	.uleb128 .LEHB247-.LFB4021
	.uleb128 .LEHE247-.LEHB247
	.uleb128 .L697-.LFB4021
	.uleb128 0
	.uleb128 .LEHB248-.LFB4021
	.uleb128 .LEHE248-.LEHB248
	.uleb128 .L698-.LFB4021
	.uleb128 0
	.uleb128 .LEHB249-.LFB4021
	.uleb128 .LEHE249-.LEHB249
	.uleb128 0
	.uleb128 0
.LLSDACSE4021:
	.section	.text$_ZN14MethodCallNode5toCppB5cxx11Ev,"x"
	.linkonce discard
	.seh_endproc
	.section	.text$_ZN5TokenD1Ev,"x"
	.linkonce discard
	.align 2
	.globl	_ZN5TokenD1Ev
	.def	_ZN5TokenD1Ev;	.scl	2;	.type	32;	.endef
	.seh_proc	_ZN5TokenD1Ev
_ZN5TokenD1Ev:
.LFB4541:
	pushq	%rbp
	.seh_pushreg	%rbp
	movq	%rsp, %rbp
	.seh_setframe	%rbp, 0
	subq	$32, %rsp
	.seh_stackalloc	32
	.seh_endprologue
	movq	%rcx, 16(%rbp)
	movq	16(%rbp), %rax
	addq	$8, %rax
	movq	%rax, %rcx
	call	_ZNSt7__cxx1112basic_stringIcSt11char_traitsIcESaIcEED1Ev
	nop
	addq	$32, %rsp
	popq	%rbp
	ret
	.seh_endproc
	.section	.text$_ZN5TokenaSERKS_,"x"
	.linkonce discard
	.align 2
	.globl	_ZN5TokenaSERKS_
	.def	_ZN5TokenaSERKS_;	.scl	2;	.type	32;	.endef
	.seh_proc	_ZN5TokenaSERKS_
_ZN5TokenaSERKS_:
.LFB4542:
	pushq	%rbp
	.seh_pushreg	%rbp
	movq	%rsp, %rbp
	.seh_setframe	%rbp, 0
	subq	$32, %rsp
	.seh_stackalloc	32
	.seh_endprologue
	movq	%rcx, 16(%rbp)
	movq	%rdx, 24(%rbp)
	movq	24(%rbp), %rax
	movl	(%rax), %edx
	movq	16(%rbp), %rax
	movl	%edx, (%rax)
	movq	24(%rbp), %rax
	leaq	8(%rax), %rdx
	movq	16(%rbp), %rax
	addq	$8, %rax
	movq	%rax, %rcx
	call	_ZNSt7__cxx1112basic_stringIcSt11char_traitsIcESaIcEEaSERKS4_
	movq	16(%rbp), %rax
	addq	$32, %rsp
	popq	%rbp
	ret
	.seh_endproc
	.text
	.align 2
	.globl	_ZN6ParserC2ERKSt6vectorI5TokenSaIS1_EE
	.def	_ZN6ParserC2ERKSt6vectorI5TokenSaIS1_EE;	.scl	2;	.type	32;	.endef
	.seh_proc	_ZN6ParserC2ERKSt6vectorI5TokenSaIS1_EE
_ZN6ParserC2ERKSt6vectorI5TokenSaIS1_EE:
.LFB4543:
	pushq	%rbp
	.seh_pushreg	%rbp
	pushq	%rbx
	.seh_pushreg	%rbx
	subq	$40, %rsp
	.seh_stackalloc	40
	leaq	32(%rsp), %rbp
	.seh_setframe	%rbp, 32
	.seh_endprologue
	movq	%rcx, 32(%rbp)
	movq	%rdx, 40(%rbp)
	movq	32(%rbp), %rax
	movq	40(%rbp), %rdx
	movq	%rax, %rcx
.LEHB250:
	call	_ZNSt6vectorI5TokenSaIS0_EEC1ERKS2_
.LEHE250:
	movq	32(%rbp), %rax
	movq	$0, 24(%rax)
	movq	32(%rbp), %rax
	addq	$32, %rax
	movq	%rax, %rcx
.LEHB251:
	call	_ZN5TokenC1Ev
.LEHE251:
	movq	40(%rbp), %rax
	movq	%rax, %rcx
	call	_ZNKSt6vectorI5TokenSaIS0_EE5emptyEv
	xorl	$1, %eax
	testb	%al, %al
	je	.L709
	movq	40(%rbp), %rax
	movl	$0, %edx
	movq	%rax, %rcx
	call	_ZNKSt6vectorI5TokenSaIS0_EEixEy
	movq	%rax, %rdx
	movq	32(%rbp), %rax
	addq	$32, %rax
	movq	%rax, %rcx
.LEHB252:
	call	_ZN5TokenaSERKS_
.LEHE252:
	jmp	.L709
.L708:
	movq	%rax, %rbx
	movq	32(%rbp), %rax
	addq	$32, %rax
	movq	%rax, %rcx
	call	_ZN5TokenD1Ev
	jmp	.L706
.L707:
	movq	%rax, %rbx
.L706:
	movq	32(%rbp), %rax
	movq	%rax, %rcx
	call	_ZNSt6vectorI5TokenSaIS0_EED1Ev
	movq	%rbx, %rax
	movq	%rax, %rcx
.LEHB253:
	call	_Unwind_Resume
.LEHE253:
.L709:
	nop
	addq	$40, %rsp
	popq	%rbx
	popq	%rbp
	ret
	.seh_handler	__gxx_personality_seh0, @unwind, @except
	.seh_handlerdata
.LLSDA4543:
	.byte	0xff
	.byte	0xff
	.byte	0x1
	.uleb128 .LLSDACSE4543-.LLSDACSB4543
.LLSDACSB4543:
	.uleb128 .LEHB250-.LFB4543
	.uleb128 .LEHE250-.LEHB250
	.uleb128 0
	.uleb128 0
	.uleb128 .LEHB251-.LFB4543
	.uleb128 .LEHE251-.LEHB251
	.uleb128 .L707-.LFB4543
	.uleb128 0
	.uleb128 .LEHB252-.LFB4543
	.uleb128 .LEHE252-.LEHB252
	.uleb128 .L708-.LFB4543
	.uleb128 0
	.uleb128 .LEHB253-.LFB4543
	.uleb128 .LEHE253-.LEHB253
	.uleb128 0
	.uleb128 0
.LLSDACSE4543:
	.text
	.seh_endproc
	.globl	_ZN6ParserC1ERKSt6vectorI5TokenSaIS1_EE
	.def	_ZN6ParserC1ERKSt6vectorI5TokenSaIS1_EE;	.scl	2;	.type	32;	.endef
	.set	_ZN6ParserC1ERKSt6vectorI5TokenSaIS1_EE,_ZN6ParserC2ERKSt6vectorI5TokenSaIS1_EE
	.section	.text$_ZN5TokenaSEOS_,"x"
	.linkonce discard
	.align 2
	.globl	_ZN5TokenaSEOS_
	.def	_ZN5TokenaSEOS_;	.scl	2;	.type	32;	.endef
	.seh_proc	_ZN5TokenaSEOS_
_ZN5TokenaSEOS_:
.LFB4546:
	pushq	%rbp
	.seh_pushreg	%rbp
	movq	%rsp, %rbp
	.seh_setframe	%rbp, 0
	subq	$32, %rsp
	.seh_stackalloc	32
	.seh_endprologue
	movq	%rcx, 16(%rbp)
	movq	%rdx, 24(%rbp)
	movq	24(%rbp), %rax
	movl	(%rax), %edx
	movq	16(%rbp), %rax
	movl	%edx, (%rax)
	movq	24(%rbp), %rax
	leaq	8(%rax), %rdx
	movq	16(%rbp), %rax
	addq	$8, %rax
	movq	%rax, %rcx
	call	_ZNSt7__cxx1112basic_stringIcSt11char_traitsIcESaIcEEaSEOS4_
	movq	16(%rbp), %rax
	addq	$32, %rsp
	popq	%rbp
	ret
	.seh_endproc
	.text
	.align 2
	.globl	_ZN6Parser7advanceEv
	.def	_ZN6Parser7advanceEv;	.scl	2;	.type	32;	.endef
	.seh_proc	_ZN6Parser7advanceEv
_ZN6Parser7advanceEv:
.LFB4545:
	pushq	%rbp
	.seh_pushreg	%rbp
	pushq	%rbx
	.seh_pushreg	%rbx
	subq	$136, %rsp
	.seh_stackalloc	136
	leaq	128(%rsp), %rbp
	.seh_setframe	%rbp, 128
	.seh_endprologue
	movq	%rcx, 32(%rbp)
	movq	32(%rbp), %rax
	movq	24(%rax), %rbx
	movq	32(%rbp), %rax
	movq	%rax, %rcx
	call	_ZNKSt6vectorI5TokenSaIS0_EE4sizeEv
	cmpq	%rax, %rbx
	setb	%al
	testb	%al, %al
	je	.L713
	movq	32(%rbp), %rax
	movq	24(%rax), %rax
	leaq	1(%rax), %rdx
	movq	32(%rbp), %rax
	movq	%rdx, 24(%rax)
.L713:
	movq	32(%rbp), %rax
	movq	24(%rax), %rbx
	movq	32(%rbp), %rax
	movq	%rax, %rcx
	call	_ZNKSt6vectorI5TokenSaIS0_EE4sizeEv
	cmpq	%rax, %rbx
	setb	%al
	testb	%al, %al
	je	.L714
	movq	32(%rbp), %rax
	movq	32(%rbp), %rdx
	movq	24(%rdx), %rdx
	movq	%rax, %rcx
	call	_ZNSt6vectorI5TokenSaIS0_EEixEy
	movq	%rax, %rdx
	movq	32(%rbp), %rax
	addq	$32, %rax
	movq	%rax, %rcx
.LEHB254:
	call	_ZN5TokenaSERKS_
.LEHE254:
	jmp	.L712
.L714:
	leaq	-9(%rbp), %rax
	movq	%rax, -8(%rbp)
	nop
	nop
	leaq	-9(%rbp), %rdx
	leaq	-48(%rbp), %rax
	movq	%rdx, %r8
	leaq	.LC1(%rip), %rdx
	movq	%rax, %rcx
.LEHB255:
	call	_ZNSt7__cxx1112basic_stringIcSt11char_traitsIcESaIcEEC1IS3_EEPKcRKS3_
.LEHE255:
	leaq	-48(%rbp), %rdx
	leaq	-96(%rbp), %rax
	movq	%rdx, %r8
	movl	$18, %edx
	movq	%rax, %rcx
.LEHB256:
	call	_ZN5TokenC1E9TokenTypeRKNSt7__cxx1112basic_stringIcSt11char_traitsIcESaIcEEE
.LEHE256:
	movq	32(%rbp), %rax
	leaq	32(%rax), %rcx
	leaq	-96(%rbp), %rax
	movq	%rax, %rdx
	call	_ZN5TokenaSEOS_
	leaq	-96(%rbp), %rax
	movq	%rax, %rcx
	call	_ZN5TokenD1Ev
	leaq	-48(%rbp), %rax
	movq	%rax, %rcx
	call	_ZNSt7__cxx1112basic_stringIcSt11char_traitsIcESaIcEED1Ev
	leaq	-9(%rbp), %rax
	movq	%rax, %rcx
	call	_ZNSt15__new_allocatorIcED2Ev
	nop
	jmp	.L712
.L719:
	movq	%rax, %rbx
	leaq	-48(%rbp), %rax
	movq	%rax, %rcx
	call	_ZNSt7__cxx1112basic_stringIcSt11char_traitsIcESaIcEED1Ev
	jmp	.L717
.L718:
	movq	%rax, %rbx
.L717:
	leaq	-9(%rbp), %rax
	movq	%rax, %rcx
	call	_ZNSt15__new_allocatorIcED2Ev
	nop
	movq	%rbx, %rax
	movq	%rax, %rcx
.LEHB257:
	call	_Unwind_Resume
	nop
.LEHE257:
.L712:
	addq	$136, %rsp
	popq	%rbx
	popq	%rbp
	ret
	.seh_handler	__gxx_personality_seh0, @unwind, @except
	.seh_handlerdata
.LLSDA4545:
	.byte	0xff
	.byte	0xff
	.byte	0x1
	.uleb128 .LLSDACSE4545-.LLSDACSB4545
.LLSDACSB4545:
	.uleb128 .LEHB254-.LFB4545
	.uleb128 .LEHE254-.LEHB254
	.uleb128 0
	.uleb128 0
	.uleb128 .LEHB255-.LFB4545
	.uleb128 .LEHE255-.LEHB255
	.uleb128 .L718-.LFB4545
	.uleb128 0
	.uleb128 .LEHB256-.LFB4545
	.uleb128 .LEHE256-.LEHB256
	.uleb128 .L719-.LFB4545
	.uleb128 0
	.uleb128 .LEHB257-.LFB4545
	.uleb128 .LEHE257-.LEHB257
	.uleb128 0
	.uleb128 0
.LLSDACSE4545:
	.text
	.seh_endproc
	.align 2
	.globl	_ZN6Parser5matchE9TokenType
